

Microchip Technology PIC PRO Macro Assembler V1.44 build -154322312 
                                                                                               Sun Nov 05 00:56:35 2017

Microchip Technology Omniscient Code Generator v1.44 (PRO mode) build 201709140600
     1                           	processor	16LF1825
     2                           	opt	pw 120
     3                           	opt	pm
     4                           	psect	stringtext1,global,class=STRCODE,delta=2
     5                           	psect	stringtext2,global,class=STRCODE,delta=2
     6                           	psect	stringtext3,global,class=STRCODE,delta=2
     7                           	psect	stringtext4,global,class=STRCODE,delta=2
     8                           	psect	stringtext5,global,class=STRCODE,delta=2
     9                           	psect	stringtext6,global,class=STRCODE,delta=2
    10                           	psect	stringtext7,global,class=STRCODE,delta=2
    11                           	psect	stringtext8,global,class=STRCODE,delta=2
    12                           	psect	stringtext9,global,class=STRCODE,delta=2
    13                           	psect	stringtext10,global,class=STRCODE,delta=2
    14                           	psect	stringtext11,global,class=STRCODE,delta=2
    15                           	psect	stringtext12,global,class=STRCODE,delta=2
    16                           	psect	stringtext13,global,class=STRCODE,delta=2
    17                           	psect	stringtext14,global,class=STRCODE,delta=2
    18                           	psect	stringtext15,global,class=STRCODE,delta=2
    19                           	psect	stringtext16,global,class=STRCODE,delta=2
    20                           	psect	cinit,global,class=CODE,merge=1,delta=2
    21                           	psect	bssCOMMON,global,class=COMMON,space=1,delta=1
    22                           	psect	bssBANK2,global,class=BANK2,space=1,delta=1
    23                           	psect	clrtext,global,class=CODE,delta=2
    24                           	psect	cstackBANK2,global,class=BANK2,space=1,delta=1
    25                           	psect	cstackBANK1,global,class=BANK1,space=1,delta=1
    26                           	psect	cstackCOMMON,global,class=COMMON,space=1,delta=1
    27                           	psect	cstackBANK0,global,class=BANK0,space=1,delta=1
    28                           	psect	text2,local,class=CODE,merge=1,delta=2
    29                           	psect	text25,local,class=CODE,merge=1,delta=2
    30                           	psect	intentry,global,class=CODE,delta=2
    31                           	psect	pa_nodes0,global,class=CODE,delta=2
    32                           	dabs	1,0x620,48
    33                           	dabs	1,0x5C0,48
    34                           	dabs	1,0x5A0,32
    35                           	dabs	1,0x52C,68
    36                           	dabs	1,0x520,12
    37                           	dabs	1,0x4A0,80
    38                           	dabs	1,0x468,8
    39                           	dabs	1,0x420,72
    40                           	dabs	1,0x3A0,80
    41                           	dabs	1,0x348,40
    42                           	dabs	1,0x232C,0,_UART_buffer_RX
    43                           	dabs	1,0x2208,0,_champsTrameGPSGGA
    44                           	dabs	1,0x22C8,0,_chaine
    45                           	dabs	1,0x2390,0,_champsTrameGPSVTG
    46                           	dabs	1,0x7E,2
    47  0000                     
    48                           ; Version 1.44
    49                           ; Generated 14/09/2017 GMT
    50                           ; 
    51                           ; Copyright © 2017, Microchip Technology Inc. and its subsidiaries ("Microchip")
    52                           ; All rights reserved.
    53                           ; 
    54                           ; This software is developed by Microchip Technology Inc. and its subsidiaries ("Microch
      +                          ip").
    55                           ; 
    56                           ; Redistribution and use in source and binary forms, with or without modification, are
    57                           ; permitted provided that the following conditions are met:
    58                           ; 
    59                           ;     1. Redistributions of source code must retain the above copyright notice, this lis
      +                          t of
    60                           ;        conditions and the following disclaimer.
    61                           ; 
    62                           ;     2. Redistributions in binary form must reproduce the above copyright notice, this 
      +                          list
    63                           ;        of conditions and the following disclaimer in the documentation and/or other
    64                           ;        materials provided with the distribution.
    65                           ; 
    66                           ;     3. Microchip's name may not be used to endorse or promote products derived from th
      +                          is
    67                           ;        software without specific prior written permission.
    68                           ; 
    69                           ; THIS SOFTWARE IS PROVIDED BY MICROCHIP "AS IS" AND ANY EXPRESS OR IMPLIED WARRANTIES,
    70                           ; INCLUDING, BUT NOT LIMITED TO, THE IMPLIED WARRANTIES OF MERCHANTABILITY AND FITNESS F
      +                          OR
    71                           ; PURPOSE ARE DISCLAIMED.  IN NO EVENT SHALL MICROCHIP BE LIABLE FOR ANY DIRECT, INDIREC
      +                          T,
    72                           ; INCIDENTAL, SPECIAL, EXEMPLARY, OR CONSEQUENTIAL DAMAGES (INCLUDING BUT NOT LIMITED TO
    73                           ; PROCUREMENT OF SUBSTITUTE GOODS OR SERVICES; LOSS OF USE, DATA OR PROFITS; OR BUSINESS
    74                           ; INTERRUPTION) HOWSOEVER CAUSED AND ON ANY THEORY OF LIABILITY, WHETHER IN CONTRACT, ST
      +                          RICT
    75                           ; LIABILITY, OR TORT (INCLUDING NEGLIGENCE OR OTHERWISE) ARISING IN ANY WAY OUT OF THE U
      +                          SE OF
    76                           ; THIS SOFTWARE, EVEN IF ADVISED OF THE POSSIBILITY OF SUCH DAMAGE.
    77                           ; 
    78                           ; 
    79                           ; Code-generator required, PIC16LF1825 Definitions
    80                           ; 
    81                           ; SFR Addresses
    82  0000                     	;# 
    83  0001                     	;# 
    84  0002                     	;# 
    85  0003                     	;# 
    86  0004                     	;# 
    87  0005                     	;# 
    88  0006                     	;# 
    89  0007                     	;# 
    90  0008                     	;# 
    91  0009                     	;# 
    92  000A                     	;# 
    93  000B                     	;# 
    94  000C                     	;# 
    95  000E                     	;# 
    96  0011                     	;# 
    97  0012                     	;# 
    98  0013                     	;# 
    99  0015                     	;# 
   100  0016                     	;# 
   101  0016                     	;# 
   102  0017                     	;# 
   103  0018                     	;# 
   104  0019                     	;# 
   105  001A                     	;# 
   106  001B                     	;# 
   107  001C                     	;# 
   108  001E                     	;# 
   109  001F                     	;# 
   110  008C                     	;# 
   111  008E                     	;# 
   112  0091                     	;# 
   113  0092                     	;# 
   114  0093                     	;# 
   115  0095                     	;# 
   116  0096                     	;# 
   117  0097                     	;# 
   118  0098                     	;# 
   119  0099                     	;# 
   120  009A                     	;# 
   121  009B                     	;# 
   122  009B                     	;# 
   123  009C                     	;# 
   124  009D                     	;# 
   125  009E                     	;# 
   126  010C                     	;# 
   127  010E                     	;# 
   128  0111                     	;# 
   129  0112                     	;# 
   130  0113                     	;# 
   131  0114                     	;# 
   132  0115                     	;# 
   133  0116                     	;# 
   134  0117                     	;# 
   135  0118                     	;# 
   136  0119                     	;# 
   137  011A                     	;# 
   138  011B                     	;# 
   139  011D                     	;# 
   140  011E                     	;# 
   141  018C                     	;# 
   142  018E                     	;# 
   143  0191                     	;# 
   144  0191                     	;# 
   145  0192                     	;# 
   146  0193                     	;# 
   147  0193                     	;# 
   148  0193                     	;# 
   149  0194                     	;# 
   150  0195                     	;# 
   151  0196                     	;# 
   152  0199                     	;# 
   153  019A                     	;# 
   154  019B                     	;# 
   155  019B                     	;# 
   156  019C                     	;# 
   157  019D                     	;# 
   158  019E                     	;# 
   159  019F                     	;# 
   160  020C                     	;# 
   161  020E                     	;# 
   162  0211                     	;# 
   163  0211                     	;# 
   164  0212                     	;# 
   165  0212                     	;# 
   166  0213                     	;# 
   167  0213                     	;# 
   168  0214                     	;# 
   169  0214                     	;# 
   170  0215                     	;# 
   171  0215                     	;# 
   172  0215                     	;# 
   173  0216                     	;# 
   174  0216                     	;# 
   175  0217                     	;# 
   176  0217                     	;# 
   177  0291                     	;# 
   178  0291                     	;# 
   179  0292                     	;# 
   180  0293                     	;# 
   181  0294                     	;# 
   182  0295                     	;# 
   183  0295                     	;# 
   184  0296                     	;# 
   185  0298                     	;# 
   186  0298                     	;# 
   187  0299                     	;# 
   188  029A                     	;# 
   189  029B                     	;# 
   190  029C                     	;# 
   191  029D                     	;# 
   192  029E                     	;# 
   193  0311                     	;# 
   194  0311                     	;# 
   195  0312                     	;# 
   196  0313                     	;# 
   197  0318                     	;# 
   198  0318                     	;# 
   199  0319                     	;# 
   200  031A                     	;# 
   201  038C                     	;# 
   202  038E                     	;# 
   203  0391                     	;# 
   204  0392                     	;# 
   205  0393                     	;# 
   206  039A                     	;# 
   207  039C                     	;# 
   208  039D                     	;# 
   209  039E                     	;# 
   210  039F                     	;# 
   211  0415                     	;# 
   212  0416                     	;# 
   213  0417                     	;# 
   214  041C                     	;# 
   215  041D                     	;# 
   216  041E                     	;# 
   217  0FE4                     	;# 
   218  0FE5                     	;# 
   219  0FE6                     	;# 
   220  0FE7                     	;# 
   221  0FE8                     	;# 
   222  0FE9                     	;# 
   223  0FEA                     	;# 
   224  0FEB                     	;# 
   225  0FED                     	;# 
   226  0FEE                     	;# 
   227  0FEF                     	;# 
   228  0000                     	;# 
   229  0001                     	;# 
   230  0002                     	;# 
   231  0003                     	;# 
   232  0004                     	;# 
   233  0005                     	;# 
   234  0006                     	;# 
   235  0007                     	;# 
   236  0008                     	;# 
   237  0009                     	;# 
   238  000A                     	;# 
   239  000B                     	;# 
   240  000C                     	;# 
   241  000E                     	;# 
   242  0011                     	;# 
   243  0012                     	;# 
   244  0013                     	;# 
   245  0015                     	;# 
   246  0016                     	;# 
   247  0016                     	;# 
   248  0017                     	;# 
   249  0018                     	;# 
   250  0019                     	;# 
   251  001A                     	;# 
   252  001B                     	;# 
   253  001C                     	;# 
   254  001E                     	;# 
   255  001F                     	;# 
   256  008C                     	;# 
   257  008E                     	;# 
   258  0091                     	;# 
   259  0092                     	;# 
   260  0093                     	;# 
   261  0095                     	;# 
   262  0096                     	;# 
   263  0097                     	;# 
   264  0098                     	;# 
   265  0099                     	;# 
   266  009A                     	;# 
   267  009B                     	;# 
   268  009B                     	;# 
   269  009C                     	;# 
   270  009D                     	;# 
   271  009E                     	;# 
   272  010C                     	;# 
   273  010E                     	;# 
   274  0111                     	;# 
   275  0112                     	;# 
   276  0113                     	;# 
   277  0114                     	;# 
   278  0115                     	;# 
   279  0116                     	;# 
   280  0117                     	;# 
   281  0118                     	;# 
   282  0119                     	;# 
   283  011A                     	;# 
   284  011B                     	;# 
   285  011D                     	;# 
   286  011E                     	;# 
   287  018C                     	;# 
   288  018E                     	;# 
   289  0191                     	;# 
   290  0191                     	;# 
   291  0192                     	;# 
   292  0193                     	;# 
   293  0193                     	;# 
   294  0193                     	;# 
   295  0194                     	;# 
   296  0195                     	;# 
   297  0196                     	;# 
   298  0199                     	;# 
   299  019A                     	;# 
   300  019B                     	;# 
   301  019B                     	;# 
   302  019C                     	;# 
   303  019D                     	;# 
   304  019E                     	;# 
   305  019F                     	;# 
   306  020C                     	;# 
   307  020E                     	;# 
   308  0211                     	;# 
   309  0211                     	;# 
   310  0212                     	;# 
   311  0212                     	;# 
   312  0213                     	;# 
   313  0213                     	;# 
   314  0214                     	;# 
   315  0214                     	;# 
   316  0215                     	;# 
   317  0215                     	;# 
   318  0215                     	;# 
   319  0216                     	;# 
   320  0216                     	;# 
   321  0217                     	;# 
   322  0217                     	;# 
   323  0291                     	;# 
   324  0291                     	;# 
   325  0292                     	;# 
   326  0293                     	;# 
   327  0294                     	;# 
   328  0295                     	;# 
   329  0295                     	;# 
   330  0296                     	;# 
   331  0298                     	;# 
   332  0298                     	;# 
   333  0299                     	;# 
   334  029A                     	;# 
   335  029B                     	;# 
   336  029C                     	;# 
   337  029D                     	;# 
   338  029E                     	;# 
   339  0311                     	;# 
   340  0311                     	;# 
   341  0312                     	;# 
   342  0313                     	;# 
   343  0318                     	;# 
   344  0318                     	;# 
   345  0319                     	;# 
   346  031A                     	;# 
   347  038C                     	;# 
   348  038E                     	;# 
   349  0391                     	;# 
   350  0392                     	;# 
   351  0393                     	;# 
   352  039A                     	;# 
   353  039C                     	;# 
   354  039D                     	;# 
   355  039E                     	;# 
   356  039F                     	;# 
   357  0415                     	;# 
   358  0416                     	;# 
   359  0417                     	;# 
   360  041C                     	;# 
   361  041D                     	;# 
   362  041E                     	;# 
   363  0FE4                     	;# 
   364  0FE5                     	;# 
   365  0FE6                     	;# 
   366  0FE7                     	;# 
   367  0FE8                     	;# 
   368  0FE9                     	;# 
   369  0FEA                     	;# 
   370  0FEB                     	;# 
   371  0FED                     	;# 
   372  0FEE                     	;# 
   373  0FEF                     	;# 
   374  0000                     	;# 
   375  0001                     	;# 
   376  0002                     	;# 
   377  0003                     	;# 
   378  0004                     	;# 
   379  0005                     	;# 
   380  0006                     	;# 
   381  0007                     	;# 
   382  0008                     	;# 
   383  0009                     	;# 
   384  000A                     	;# 
   385  000B                     	;# 
   386  000C                     	;# 
   387  000E                     	;# 
   388  0011                     	;# 
   389  0012                     	;# 
   390  0013                     	;# 
   391  0015                     	;# 
   392  0016                     	;# 
   393  0016                     	;# 
   394  0017                     	;# 
   395  0018                     	;# 
   396  0019                     	;# 
   397  001A                     	;# 
   398  001B                     	;# 
   399  001C                     	;# 
   400  001E                     	;# 
   401  001F                     	;# 
   402  008C                     	;# 
   403  008E                     	;# 
   404  0091                     	;# 
   405  0092                     	;# 
   406  0093                     	;# 
   407  0095                     	;# 
   408  0096                     	;# 
   409  0097                     	;# 
   410  0098                     	;# 
   411  0099                     	;# 
   412  009A                     	;# 
   413  009B                     	;# 
   414  009B                     	;# 
   415  009C                     	;# 
   416  009D                     	;# 
   417  009E                     	;# 
   418  010C                     	;# 
   419  010E                     	;# 
   420  0111                     	;# 
   421  0112                     	;# 
   422  0113                     	;# 
   423  0114                     	;# 
   424  0115                     	;# 
   425  0116                     	;# 
   426  0117                     	;# 
   427  0118                     	;# 
   428  0119                     	;# 
   429  011A                     	;# 
   430  011B                     	;# 
   431  011D                     	;# 
   432  011E                     	;# 
   433  018C                     	;# 
   434  018E                     	;# 
   435  0191                     	;# 
   436  0191                     	;# 
   437  0192                     	;# 
   438  0193                     	;# 
   439  0193                     	;# 
   440  0193                     	;# 
   441  0194                     	;# 
   442  0195                     	;# 
   443  0196                     	;# 
   444  0199                     	;# 
   445  019A                     	;# 
   446  019B                     	;# 
   447  019B                     	;# 
   448  019C                     	;# 
   449  019D                     	;# 
   450  019E                     	;# 
   451  019F                     	;# 
   452  020C                     	;# 
   453  020E                     	;# 
   454  0211                     	;# 
   455  0211                     	;# 
   456  0212                     	;# 
   457  0212                     	;# 
   458  0213                     	;# 
   459  0213                     	;# 
   460  0214                     	;# 
   461  0214                     	;# 
   462  0215                     	;# 
   463  0215                     	;# 
   464  0215                     	;# 
   465  0216                     	;# 
   466  0216                     	;# 
   467  0217                     	;# 
   468  0217                     	;# 
   469  0291                     	;# 
   470  0291                     	;# 
   471  0292                     	;# 
   472  0293                     	;# 
   473  0294                     	;# 
   474  0295                     	;# 
   475  0295                     	;# 
   476  0296                     	;# 
   477  0298                     	;# 
   478  0298                     	;# 
   479  0299                     	;# 
   480  029A                     	;# 
   481  029B                     	;# 
   482  029C                     	;# 
   483  029D                     	;# 
   484  029E                     	;# 
   485  0311                     	;# 
   486  0311                     	;# 
   487  0312                     	;# 
   488  0313                     	;# 
   489  0318                     	;# 
   490  0318                     	;# 
   491  0319                     	;# 
   492  031A                     	;# 
   493  038C                     	;# 
   494  038E                     	;# 
   495  0391                     	;# 
   496  0392                     	;# 
   497  0393                     	;# 
   498  039A                     	;# 
   499  039C                     	;# 
   500  039D                     	;# 
   501  039E                     	;# 
   502  039F                     	;# 
   503  0415                     	;# 
   504  0416                     	;# 
   505  0417                     	;# 
   506  041C                     	;# 
   507  041D                     	;# 
   508  041E                     	;# 
   509  0FE4                     	;# 
   510  0FE5                     	;# 
   511  0FE6                     	;# 
   512  0FE7                     	;# 
   513  0FE8                     	;# 
   514  0FE9                     	;# 
   515  0FEA                     	;# 
   516  0FEB                     	;# 
   517  0FED                     	;# 
   518  0FEE                     	;# 
   519  0FEF                     	;# 
   520  0000                     	;# 
   521  0001                     	;# 
   522  0002                     	;# 
   523  0003                     	;# 
   524  0004                     	;# 
   525  0005                     	;# 
   526  0006                     	;# 
   527  0007                     	;# 
   528  0008                     	;# 
   529  0009                     	;# 
   530  000A                     	;# 
   531  000B                     	;# 
   532  000C                     	;# 
   533  000E                     	;# 
   534  0011                     	;# 
   535  0012                     	;# 
   536  0013                     	;# 
   537  0015                     	;# 
   538  0016                     	;# 
   539  0016                     	;# 
   540  0017                     	;# 
   541  0018                     	;# 
   542  0019                     	;# 
   543  001A                     	;# 
   544  001B                     	;# 
   545  001C                     	;# 
   546  001E                     	;# 
   547  001F                     	;# 
   548  008C                     	;# 
   549  008E                     	;# 
   550  0091                     	;# 
   551  0092                     	;# 
   552  0093                     	;# 
   553  0095                     	;# 
   554  0096                     	;# 
   555  0097                     	;# 
   556  0098                     	;# 
   557  0099                     	;# 
   558  009A                     	;# 
   559  009B                     	;# 
   560  009B                     	;# 
   561  009C                     	;# 
   562  009D                     	;# 
   563  009E                     	;# 
   564  010C                     	;# 
   565  010E                     	;# 
   566  0111                     	;# 
   567  0112                     	;# 
   568  0113                     	;# 
   569  0114                     	;# 
   570  0115                     	;# 
   571  0116                     	;# 
   572  0117                     	;# 
   573  0118                     	;# 
   574  0119                     	;# 
   575  011A                     	;# 
   576  011B                     	;# 
   577  011D                     	;# 
   578  011E                     	;# 
   579  018C                     	;# 
   580  018E                     	;# 
   581  0191                     	;# 
   582  0191                     	;# 
   583  0192                     	;# 
   584  0193                     	;# 
   585  0193                     	;# 
   586  0193                     	;# 
   587  0194                     	;# 
   588  0195                     	;# 
   589  0196                     	;# 
   590  0199                     	;# 
   591  019A                     	;# 
   592  019B                     	;# 
   593  019B                     	;# 
   594  019C                     	;# 
   595  019D                     	;# 
   596  019E                     	;# 
   597  019F                     	;# 
   598  020C                     	;# 
   599  020E                     	;# 
   600  0211                     	;# 
   601  0211                     	;# 
   602  0212                     	;# 
   603  0212                     	;# 
   604  0213                     	;# 
   605  0213                     	;# 
   606  0214                     	;# 
   607  0214                     	;# 
   608  0215                     	;# 
   609  0215                     	;# 
   610  0215                     	;# 
   611  0216                     	;# 
   612  0216                     	;# 
   613  0217                     	;# 
   614  0217                     	;# 
   615  0291                     	;# 
   616  0291                     	;# 
   617  0292                     	;# 
   618  0293                     	;# 
   619  0294                     	;# 
   620  0295                     	;# 
   621  0295                     	;# 
   622  0296                     	;# 
   623  0298                     	;# 
   624  0298                     	;# 
   625  0299                     	;# 
   626  029A                     	;# 
   627  029B                     	;# 
   628  029C                     	;# 
   629  029D                     	;# 
   630  029E                     	;# 
   631  0311                     	;# 
   632  0311                     	;# 
   633  0312                     	;# 
   634  0313                     	;# 
   635  0318                     	;# 
   636  0318                     	;# 
   637  0319                     	;# 
   638  031A                     	;# 
   639  038C                     	;# 
   640  038E                     	;# 
   641  0391                     	;# 
   642  0392                     	;# 
   643  0393                     	;# 
   644  039A                     	;# 
   645  039C                     	;# 
   646  039D                     	;# 
   647  039E                     	;# 
   648  039F                     	;# 
   649  0415                     	;# 
   650  0416                     	;# 
   651  0417                     	;# 
   652  041C                     	;# 
   653  041D                     	;# 
   654  041E                     	;# 
   655  0FE4                     	;# 
   656  0FE5                     	;# 
   657  0FE6                     	;# 
   658  0FE7                     	;# 
   659  0FE8                     	;# 
   660  0FE9                     	;# 
   661  0FEA                     	;# 
   662  0FEB                     	;# 
   663  0FED                     	;# 
   664  0FEE                     	;# 
   665  0FEF                     	;# 
   666  0000                     	;# 
   667  0001                     	;# 
   668  0002                     	;# 
   669  0003                     	;# 
   670  0004                     	;# 
   671  0005                     	;# 
   672  0006                     	;# 
   673  0007                     	;# 
   674  0008                     	;# 
   675  0009                     	;# 
   676  000A                     	;# 
   677  000B                     	;# 
   678  000C                     	;# 
   679  000E                     	;# 
   680  0011                     	;# 
   681  0012                     	;# 
   682  0013                     	;# 
   683  0015                     	;# 
   684  0016                     	;# 
   685  0016                     	;# 
   686  0017                     	;# 
   687  0018                     	;# 
   688  0019                     	;# 
   689  001A                     	;# 
   690  001B                     	;# 
   691  001C                     	;# 
   692  001E                     	;# 
   693  001F                     	;# 
   694  008C                     	;# 
   695  008E                     	;# 
   696  0091                     	;# 
   697  0092                     	;# 
   698  0093                     	;# 
   699  0095                     	;# 
   700  0096                     	;# 
   701  0097                     	;# 
   702  0098                     	;# 
   703  0099                     	;# 
   704  009A                     	;# 
   705  009B                     	;# 
   706  009B                     	;# 
   707  009C                     	;# 
   708  009D                     	;# 
   709  009E                     	;# 
   710  010C                     	;# 
   711  010E                     	;# 
   712  0111                     	;# 
   713  0112                     	;# 
   714  0113                     	;# 
   715  0114                     	;# 
   716  0115                     	;# 
   717  0116                     	;# 
   718  0117                     	;# 
   719  0118                     	;# 
   720  0119                     	;# 
   721  011A                     	;# 
   722  011B                     	;# 
   723  011D                     	;# 
   724  011E                     	;# 
   725  018C                     	;# 
   726  018E                     	;# 
   727  0191                     	;# 
   728  0191                     	;# 
   729  0192                     	;# 
   730  0193                     	;# 
   731  0193                     	;# 
   732  0193                     	;# 
   733  0194                     	;# 
   734  0195                     	;# 
   735  0196                     	;# 
   736  0199                     	;# 
   737  019A                     	;# 
   738  019B                     	;# 
   739  019B                     	;# 
   740  019C                     	;# 
   741  019D                     	;# 
   742  019E                     	;# 
   743  019F                     	;# 
   744  020C                     	;# 
   745  020E                     	;# 
   746  0211                     	;# 
   747  0211                     	;# 
   748  0212                     	;# 
   749  0212                     	;# 
   750  0213                     	;# 
   751  0213                     	;# 
   752  0214                     	;# 
   753  0214                     	;# 
   754  0215                     	;# 
   755  0215                     	;# 
   756  0215                     	;# 
   757  0216                     	;# 
   758  0216                     	;# 
   759  0217                     	;# 
   760  0217                     	;# 
   761  0291                     	;# 
   762  0291                     	;# 
   763  0292                     	;# 
   764  0293                     	;# 
   765  0294                     	;# 
   766  0295                     	;# 
   767  0295                     	;# 
   768  0296                     	;# 
   769  0298                     	;# 
   770  0298                     	;# 
   771  0299                     	;# 
   772  029A                     	;# 
   773  029B                     	;# 
   774  029C                     	;# 
   775  029D                     	;# 
   776  029E                     	;# 
   777  0311                     	;# 
   778  0311                     	;# 
   779  0312                     	;# 
   780  0313                     	;# 
   781  0318                     	;# 
   782  0318                     	;# 
   783  0319                     	;# 
   784  031A                     	;# 
   785  038C                     	;# 
   786  038E                     	;# 
   787  0391                     	;# 
   788  0392                     	;# 
   789  0393                     	;# 
   790  039A                     	;# 
   791  039C                     	;# 
   792  039D                     	;# 
   793  039E                     	;# 
   794  039F                     	;# 
   795  0415                     	;# 
   796  0416                     	;# 
   797  0417                     	;# 
   798  041C                     	;# 
   799  041D                     	;# 
   800  041E                     	;# 
   801  0FE4                     	;# 
   802  0FE5                     	;# 
   803  0FE6                     	;# 
   804  0FE7                     	;# 
   805  0FE8                     	;# 
   806  0FE9                     	;# 
   807  0FEA                     	;# 
   808  0FEB                     	;# 
   809  0FED                     	;# 
   810  0FEE                     	;# 
   811  0FEF                     	;# 
   812  0000                     	;# 
   813  0001                     	;# 
   814  0002                     	;# 
   815  0003                     	;# 
   816  0004                     	;# 
   817  0005                     	;# 
   818  0006                     	;# 
   819  0007                     	;# 
   820  0008                     	;# 
   821  0009                     	;# 
   822  000A                     	;# 
   823  000B                     	;# 
   824  000C                     	;# 
   825  000E                     	;# 
   826  0011                     	;# 
   827  0012                     	;# 
   828  0013                     	;# 
   829  0015                     	;# 
   830  0016                     	;# 
   831  0016                     	;# 
   832  0017                     	;# 
   833  0018                     	;# 
   834  0019                     	;# 
   835  001A                     	;# 
   836  001B                     	;# 
   837  001C                     	;# 
   838  001E                     	;# 
   839  001F                     	;# 
   840  008C                     	;# 
   841  008E                     	;# 
   842  0091                     	;# 
   843  0092                     	;# 
   844  0093                     	;# 
   845  0095                     	;# 
   846  0096                     	;# 
   847  0097                     	;# 
   848  0098                     	;# 
   849  0099                     	;# 
   850  009A                     	;# 
   851  009B                     	;# 
   852  009B                     	;# 
   853  009C                     	;# 
   854  009D                     	;# 
   855  009E                     	;# 
   856  010C                     	;# 
   857  010E                     	;# 
   858  0111                     	;# 
   859  0112                     	;# 
   860  0113                     	;# 
   861  0114                     	;# 
   862  0115                     	;# 
   863  0116                     	;# 
   864  0117                     	;# 
   865  0118                     	;# 
   866  0119                     	;# 
   867  011A                     	;# 
   868  011B                     	;# 
   869  011D                     	;# 
   870  011E                     	;# 
   871  018C                     	;# 
   872  018E                     	;# 
   873  0191                     	;# 
   874  0191                     	;# 
   875  0192                     	;# 
   876  0193                     	;# 
   877  0193                     	;# 
   878  0193                     	;# 
   879  0194                     	;# 
   880  0195                     	;# 
   881  0196                     	;# 
   882  0199                     	;# 
   883  019A                     	;# 
   884  019B                     	;# 
   885  019B                     	;# 
   886  019C                     	;# 
   887  019D                     	;# 
   888  019E                     	;# 
   889  019F                     	;# 
   890  020C                     	;# 
   891  020E                     	;# 
   892  0211                     	;# 
   893  0211                     	;# 
   894  0212                     	;# 
   895  0212                     	;# 
   896  0213                     	;# 
   897  0213                     	;# 
   898  0214                     	;# 
   899  0214                     	;# 
   900  0215                     	;# 
   901  0215                     	;# 
   902  0215                     	;# 
   903  0216                     	;# 
   904  0216                     	;# 
   905  0217                     	;# 
   906  0217                     	;# 
   907  0291                     	;# 
   908  0291                     	;# 
   909  0292                     	;# 
   910  0293                     	;# 
   911  0294                     	;# 
   912  0295                     	;# 
   913  0295                     	;# 
   914  0296                     	;# 
   915  0298                     	;# 
   916  0298                     	;# 
   917  0299                     	;# 
   918  029A                     	;# 
   919  029B                     	;# 
   920  029C                     	;# 
   921  029D                     	;# 
   922  029E                     	;# 
   923  0311                     	;# 
   924  0311                     	;# 
   925  0312                     	;# 
   926  0313                     	;# 
   927  0318                     	;# 
   928  0318                     	;# 
   929  0319                     	;# 
   930  031A                     	;# 
   931  038C                     	;# 
   932  038E                     	;# 
   933  0391                     	;# 
   934  0392                     	;# 
   935  0393                     	;# 
   936  039A                     	;# 
   937  039C                     	;# 
   938  039D                     	;# 
   939  039E                     	;# 
   940  039F                     	;# 
   941  0415                     	;# 
   942  0416                     	;# 
   943  0417                     	;# 
   944  041C                     	;# 
   945  041D                     	;# 
   946  041E                     	;# 
   947  0FE4                     	;# 
   948  0FE5                     	;# 
   949  0FE6                     	;# 
   950  0FE7                     	;# 
   951  0FE8                     	;# 
   952  0FE9                     	;# 
   953  0FEA                     	;# 
   954  0FEB                     	;# 
   955  0FED                     	;# 
   956  0FEE                     	;# 
   957  0FEF                     	;# 
   958  0000                     	;# 
   959  0001                     	;# 
   960  0002                     	;# 
   961  0003                     	;# 
   962  0004                     	;# 
   963  0005                     	;# 
   964  0006                     	;# 
   965  0007                     	;# 
   966  0008                     	;# 
   967  0009                     	;# 
   968  000A                     	;# 
   969  000B                     	;# 
   970  000C                     	;# 
   971  000E                     	;# 
   972  0011                     	;# 
   973  0012                     	;# 
   974  0013                     	;# 
   975  0015                     	;# 
   976  0016                     	;# 
   977  0016                     	;# 
   978  0017                     	;# 
   979  0018                     	;# 
   980  0019                     	;# 
   981  001A                     	;# 
   982  001B                     	;# 
   983  001C                     	;# 
   984  001E                     	;# 
   985  001F                     	;# 
   986  008C                     	;# 
   987  008E                     	;# 
   988  0091                     	;# 
   989  0092                     	;# 
   990  0093                     	;# 
   991  0095                     	;# 
   992  0096                     	;# 
   993  0097                     	;# 
   994  0098                     	;# 
   995  0099                     	;# 
   996  009A                     	;# 
   997  009B                     	;# 
   998  009B                     	;# 
   999  009C                     	;# 
  1000  009D                     	;# 
  1001  009E                     	;# 
  1002  010C                     	;# 
  1003  010E                     	;# 
  1004  0111                     	;# 
  1005  0112                     	;# 
  1006  0113                     	;# 
  1007  0114                     	;# 
  1008  0115                     	;# 
  1009  0116                     	;# 
  1010  0117                     	;# 
  1011  0118                     	;# 
  1012  0119                     	;# 
  1013  011A                     	;# 
  1014  011B                     	;# 
  1015  011D                     	;# 
  1016  011E                     	;# 
  1017  018C                     	;# 
  1018  018E                     	;# 
  1019  0191                     	;# 
  1020  0191                     	;# 
  1021  0192                     	;# 
  1022  0193                     	;# 
  1023  0193                     	;# 
  1024  0193                     	;# 
  1025  0194                     	;# 
  1026  0195                     	;# 
  1027  0196                     	;# 
  1028  0199                     	;# 
  1029  019A                     	;# 
  1030  019B                     	;# 
  1031  019B                     	;# 
  1032  019C                     	;# 
  1033  019D                     	;# 
  1034  019E                     	;# 
  1035  019F                     	;# 
  1036  020C                     	;# 
  1037  020E                     	;# 
  1038  0211                     	;# 
  1039  0211                     	;# 
  1040  0212                     	;# 
  1041  0212                     	;# 
  1042  0213                     	;# 
  1043  0213                     	;# 
  1044  0214                     	;# 
  1045  0214                     	;# 
  1046  0215                     	;# 
  1047  0215                     	;# 
  1048  0215                     	;# 
  1049  0216                     	;# 
  1050  0216                     	;# 
  1051  0217                     	;# 
  1052  0217                     	;# 
  1053  0291                     	;# 
  1054  0291                     	;# 
  1055  0292                     	;# 
  1056  0293                     	;# 
  1057  0294                     	;# 
  1058  0295                     	;# 
  1059  0295                     	;# 
  1060  0296                     	;# 
  1061  0298                     	;# 
  1062  0298                     	;# 
  1063  0299                     	;# 
  1064  029A                     	;# 
  1065  029B                     	;# 
  1066  029C                     	;# 
  1067  029D                     	;# 
  1068  029E                     	;# 
  1069  0311                     	;# 
  1070  0311                     	;# 
  1071  0312                     	;# 
  1072  0313                     	;# 
  1073  0318                     	;# 
  1074  0318                     	;# 
  1075  0319                     	;# 
  1076  031A                     	;# 
  1077  038C                     	;# 
  1078  038E                     	;# 
  1079  0391                     	;# 
  1080  0392                     	;# 
  1081  0393                     	;# 
  1082  039A                     	;# 
  1083  039C                     	;# 
  1084  039D                     	;# 
  1085  039E                     	;# 
  1086  039F                     	;# 
  1087  0415                     	;# 
  1088  0416                     	;# 
  1089  0417                     	;# 
  1090  041C                     	;# 
  1091  041D                     	;# 
  1092  041E                     	;# 
  1093  0FE4                     	;# 
  1094  0FE5                     	;# 
  1095  0FE6                     	;# 
  1096  0FE7                     	;# 
  1097  0FE8                     	;# 
  1098  0FE9                     	;# 
  1099  0FEA                     	;# 
  1100  0FEB                     	;# 
  1101  0FED                     	;# 
  1102  0FEE                     	;# 
  1103  0FEF                     	;_champsTrameGPSGGA
  1104                           
  1105                           	psect	stringtext1
  1106  182F                     __pstringtext1:	
  1107  182F                     _VTG_ON:	
  1108  182F  3424               	retlw	36
  1109  1830  3450               	retlw	80
  1110  1831  3455               	retlw	85
  1111  1832  3442               	retlw	66
  1112  1833  3458               	retlw	88
  1113  1834  342C               	retlw	44
  1114  1835  3434               	retlw	52
  1115  1836  3430               	retlw	48
  1116  1837  342C               	retlw	44
  1117  1838  3456               	retlw	86
  1118  1839  3454               	retlw	84
  1119  183A  3447               	retlw	71
  1120  183B  342C               	retlw	44
  1121  183C  3430               	retlw	48
  1122  183D  342C               	retlw	44
  1123  183E  3431               	retlw	49
  1124  183F  342C               	retlw	44
  1125  1840  3430               	retlw	48
  1126  1841  342C               	retlw	44
  1127  1842  3430               	retlw	48
  1128  1843  342A               	retlw	42
  1129  1844  3435               	retlw	53
  1130  1845  3446               	retlw	70
  1131  1846  340D               	retlw	13
  1132  1847  340A               	retlw	10
  1133  1848  3400               	retlw	0
  1134  1849                     __end_of_VTG_ON:	
  1135                           
  1136                           	psect	stringtext2
  1137  1849                     __pstringtext2:	
  1138  1849                     _VTG_OFF:	
  1139  1849  3424               	retlw	36
  1140  184A  3450               	retlw	80
  1141  184B  3455               	retlw	85
  1142  184C  3442               	retlw	66
  1143  184D  3458               	retlw	88
  1144  184E  342C               	retlw	44
  1145  184F  3434               	retlw	52
  1146  1850  3430               	retlw	48
  1147  1851  342C               	retlw	44
  1148  1852  3456               	retlw	86
  1149  1853  3454               	retlw	84
  1150  1854  3447               	retlw	71
  1151  1855  342C               	retlw	44
  1152  1856  3430               	retlw	48
  1153  1857  342C               	retlw	44
  1154  1858  3430               	retlw	48
  1155  1859  342C               	retlw	44
  1156  185A  3430               	retlw	48
  1157  185B  342C               	retlw	44
  1158  185C  3430               	retlw	48
  1159  185D  342A               	retlw	42
  1160  185E  3435               	retlw	53
  1161  185F  3445               	retlw	69
  1162  1860  340D               	retlw	13
  1163  1861  340A               	retlw	10
  1164  1862  3400               	retlw	0
  1165  1863                     __end_of_VTG_OFF:	
  1166                           
  1167                           	psect	stringtext3
  1168  1863                     __pstringtext3:	
  1169  1863                     _GGA_ON:	
  1170  1863  3424               	retlw	36
  1171  1864  3450               	retlw	80
  1172  1865  3455               	retlw	85
  1173  1866  3442               	retlw	66
  1174  1867  3458               	retlw	88
  1175  1868  342C               	retlw	44
  1176  1869  3434               	retlw	52
  1177  186A  3430               	retlw	48
  1178  186B  342C               	retlw	44
  1179  186C  3447               	retlw	71
  1180  186D  3447               	retlw	71
  1181  186E  3441               	retlw	65
  1182  186F  342C               	retlw	44
  1183  1870  3430               	retlw	48
  1184  1871  342C               	retlw	44
  1185  1872  3431               	retlw	49
  1186  1873  342C               	retlw	44
  1187  1874  3430               	retlw	48
  1188  1875  342C               	retlw	44
  1189  1876  3430               	retlw	48
  1190  1877  342A               	retlw	42
  1191  1878  3435               	retlw	53
  1192  1879  3442               	retlw	66
  1193  187A  340D               	retlw	13
  1194  187B  340A               	retlw	10
  1195  187C  3400               	retlw	0
  1196  187D                     __end_of_GGA_ON:	
  1197                           
  1198                           	psect	stringtext4
  1199  187D                     __pstringtext4:	
  1200  187D                     _GGA_OFF:	
  1201  187D  3424               	retlw	36
  1202  187E  3450               	retlw	80
  1203  187F  3455               	retlw	85
  1204  1880  3442               	retlw	66
  1205  1881  3458               	retlw	88
  1206  1882  342C               	retlw	44
  1207  1883  3434               	retlw	52
  1208  1884  3430               	retlw	48
  1209  1885  342C               	retlw	44
  1210  1886  3447               	retlw	71
  1211  1887  3447               	retlw	71
  1212  1888  3441               	retlw	65
  1213  1889  342C               	retlw	44
  1214  188A  3430               	retlw	48
  1215  188B  342C               	retlw	44
  1216  188C  3430               	retlw	48
  1217  188D  342C               	retlw	44
  1218  188E  3430               	retlw	48
  1219  188F  342C               	retlw	44
  1220  1890  3430               	retlw	48
  1221  1891  342A               	retlw	42
  1222  1892  3435               	retlw	53
  1223  1893  3441               	retlw	65
  1224  1894  340D               	retlw	13
  1225  1895  340A               	retlw	10
  1226  1896  3400               	retlw	0
  1227  1897                     __end_of_GGA_OFF:	
  1228                           
  1229                           	psect	stringtext5
  1230  1897                     __pstringtext5:	
  1231  1897                     _RMC:	
  1232  1897  3424               	retlw	36
  1233  1898  3450               	retlw	80
  1234  1899  3455               	retlw	85
  1235  189A  3442               	retlw	66
  1236  189B  3458               	retlw	88
  1237  189C  342C               	retlw	44
  1238  189D  3434               	retlw	52
  1239  189E  3430               	retlw	48
  1240  189F  342C               	retlw	44
  1241  18A0  3452               	retlw	82
  1242  18A1  344D               	retlw	77
  1243  18A2  3443               	retlw	67
  1244  18A3  342C               	retlw	44
  1245  18A4  3430               	retlw	48
  1246  18A5  342C               	retlw	44
  1247  18A6  3430               	retlw	48
  1248  18A7  342C               	retlw	44
  1249  18A8  3430               	retlw	48
  1250  18A9  342C               	retlw	44
  1251  18AA  3430               	retlw	48
  1252  18AB  342A               	retlw	42
  1253  18AC  3434               	retlw	52
  1254  18AD  3437               	retlw	55
  1255  18AE  340D               	retlw	13
  1256  18AF  340A               	retlw	10
  1257  18B0  3400               	retlw	0
  1258  18B1                     __end_of_RMC:	
  1259                           
  1260                           	psect	stringtext6
  1261  18B1                     __pstringtext6:	
  1262  18B1                     _GSV:	
  1263  18B1  3424               	retlw	36
  1264  18B2  3450               	retlw	80
  1265  18B3  3455               	retlw	85
  1266  18B4  3442               	retlw	66
  1267  18B5  3458               	retlw	88
  1268  18B6  342C               	retlw	44
  1269  18B7  3434               	retlw	52
  1270  18B8  3430               	retlw	48
  1271  18B9  342C               	retlw	44
  1272  18BA  3447               	retlw	71
  1273  18BB  3453               	retlw	83
  1274  18BC  3456               	retlw	86
  1275  18BD  342C               	retlw	44
  1276  18BE  3430               	retlw	48
  1277  18BF  342C               	retlw	44
  1278  18C0  3430               	retlw	48
  1279  18C1  342C               	retlw	44
  1280  18C2  3430               	retlw	48
  1281  18C3  342C               	retlw	44
  1282  18C4  3430               	retlw	48
  1283  18C5  342A               	retlw	42
  1284  18C6  3435               	retlw	53
  1285  18C7  3439               	retlw	57
  1286  18C8  340D               	retlw	13
  1287  18C9  340A               	retlw	10
  1288  18CA  3400               	retlw	0
  1289  18CB                     __end_of_GSV:	
  1290                           
  1291                           	psect	stringtext7
  1292  18CB                     __pstringtext7:	
  1293  18CB                     _GSA:	
  1294  18CB  3424               	retlw	36
  1295  18CC  3450               	retlw	80
  1296  18CD  3455               	retlw	85
  1297  18CE  3442               	retlw	66
  1298  18CF  3458               	retlw	88
  1299  18D0  342C               	retlw	44
  1300  18D1  3434               	retlw	52
  1301  18D2  3430               	retlw	48
  1302  18D3  342C               	retlw	44
  1303  18D4  3447               	retlw	71
  1304  18D5  3453               	retlw	83
  1305  18D6  3441               	retlw	65
  1306  18D7  342C               	retlw	44
  1307  18D8  3430               	retlw	48
  1308  18D9  342C               	retlw	44
  1309  18DA  3430               	retlw	48
  1310  18DB  342C               	retlw	44
  1311  18DC  3430               	retlw	48
  1312  18DD  342C               	retlw	44
  1313  18DE  3430               	retlw	48
  1314  18DF  342A               	retlw	42
  1315  18E0  3434               	retlw	52
  1316  18E1  3445               	retlw	69
  1317  18E2  340D               	retlw	13
  1318  18E3  340A               	retlw	10
  1319  18E4  3400               	retlw	0
  1320  18E5                     __end_of_GSA:	
  1321                           
  1322                           	psect	stringtext8
  1323  1800                     __pstringtext8:	
  1324  1800                     _GGL:	
  1325  1800  3424               	retlw	36
  1326  1801  3450               	retlw	80
  1327  1802  3455               	retlw	85
  1328  1803  3442               	retlw	66
  1329  1804  3458               	retlw	88
  1330  1805  342C               	retlw	44
  1331  1806  3434               	retlw	52
  1332  1807  3430               	retlw	48
  1333  1808  342C               	retlw	44
  1334  1809  3447               	retlw	71
  1335  180A  344C               	retlw	76
  1336  180B  344C               	retlw	76
  1337  180C  342C               	retlw	44
  1338  180D  3430               	retlw	48
  1339  180E  342C               	retlw	44
  1340  180F  3430               	retlw	48
  1341  1810  342C               	retlw	44
  1342  1811  3430               	retlw	48
  1343  1812  342C               	retlw	44
  1344  1813  3430               	retlw	48
  1345  1814  342A               	retlw	42
  1346  1815  3435               	retlw	53
  1347  1816  3443               	retlw	67
  1348  1817  340D               	retlw	13
  1349  1818  340A               	retlw	10
  1350  1819  3400               	retlw	0
  1351  181A                     __end_of_GGL:	
  1352  000B                     _INTCONbits	set	11
  1353  008D                     _RCIF	set	141
  1354  009B                     _ADRESL	set	155
  1355  009C                     _ADRESH	set	156
  1356  009D                     _ADCON0bits	set	157
  1357  009E                     _ADCON1	set	158
  1358  009D                     _ADCON0	set	157
  1359  0091                     _PIE1bits	set	145
  1360  0092                     _PIE2	set	146
  1361  0091                     _PIE1	set	145
  1362  0097                     _WDTCONbits	set	151
  1363  009A                     _OSCSTATbits	set	154
  1364  0099                     _OSCCONbits	set	153
  1365  0472                     _TRISC2	set	1138
  1366  0473                     _TRISC3	set	1139
  1367  0460                     _TRISA0	set	1120
  1368  0461                     _TRISA1	set	1121
  1369  0464                     _TRISA4	set	1124
  1370  0465                     _TRISA5	set	1125
  1371  0474                     _TRISC4	set	1140
  1372  0475                     _TRISC5	set	1141
  1373  0462                     _TRISA2	set	1122
  1374  0471                     _TRISC1	set	1137
  1375  0470                     _TRISC0	set	1136
  1376  0117                     _FVRCON	set	279
  1377  011D                     _APFCON0bits	set	285
  1378  0860                     _LATA0	set	2144
  1379  0864                     _LATA4	set	2148
  1380  0871                     _LATC1	set	2161
  1381  0870                     _LATC0	set	2160
  1382  0865                     _LATA5	set	2149
  1383  0874                     _LATC4	set	2164
  1384  0875                     _LATC5	set	2165
  1385  0862                     _LATA2	set	2146
  1386  019A                     _TXREG	set	410
  1387  019E                     _TXSTAbits	set	414
  1388  019B                     _SPBRGL	set	411
  1389  019C                     _SPBRGH	set	412
  1390  018E                     _ANSELC	set	398
  1391  018C                     _ANSELA	set	396
  1392  0199                     _RCREG	set	409
  1393  019D                     _RCSTAbits	set	413
  1394  019F                     _BAUDCONbits	set	415
  1395  181A                     STR_8:	
  1396  181A  3441               	retlw	65	;'A'
  1397  181B  3454               	retlw	84	;'T'
  1398  181C  3424               	retlw	36	;'$'
  1399  181D  3443               	retlw	67	;'C'
  1400  181E  3457               	retlw	87	;'W'
  1401  181F  343D               	retlw	61	;'='
  1402  1820  3438               	retlw	56	;'8'
  1403  1821  3436               	retlw	54	;'6'
  1404  1822  3438               	retlw	56	;'8'
  1405  1823  3431               	retlw	49	;'1'
  1406  1824  3433               	retlw	51	;'3'
  1407  1825  3430               	retlw	48	;'0'
  1408  1826  3430               	retlw	48	;'0'
  1409  1827  3430               	retlw	48	;'0'
  1410  1828  3430               	retlw	48	;'0'
  1411  1829  342C               	retlw	44	;','
  1412  182A  3431               	retlw	49	;'1'
  1413  182B  342C               	retlw	44	;','
  1414  182C  3431               	retlw	49	;'1'
  1415  182D  3435               	retlw	53	;'5'
  1416  182E  3400               	retlw	0
  1417                           
  1418                           	psect	stringtext9
  1419  18E5                     __pstringtext9:	
  1420  18E5                     STR_9:	
  1421  18E5  3424               	retlw	36	;'$'
  1422  18E6  3447               	retlw	71	;'G'
  1423  18E7  3450               	retlw	80	;'P'
  1424  18E8  3447               	retlw	71	;'G'
  1425  18E9  3447               	retlw	71	;'G'
  1426  18EA  3441               	retlw	65	;'A'
  1427  18EB  3400               	retlw	0
  1428                           
  1429                           	psect	stringtext10
  1430  18EC                     __pstringtext10:	
  1431  18EC                     STR_10:	
  1432  18EC  3424               	retlw	36	;'$'
  1433  18ED  3447               	retlw	71	;'G'
  1434  18EE  3450               	retlw	80	;'P'
  1435  18EF  3456               	retlw	86	;'V'
  1436  18F0  3454               	retlw	84	;'T'
  1437  18F1  3447               	retlw	71	;'G'
  1438  18F2  3400               	retlw	0
  1439                           
  1440                           	psect	stringtext11
  1441  18F3                     __pstringtext11:	
  1442  18F3                     STR_6:	
  1443  18F3  3441               	retlw	65	;'A'
  1444  18F4  3454               	retlw	84	;'T'
  1445  18F5  3424               	retlw	36	;'$'
  1446  18F6  3450               	retlw	80	;'P'
  1447  18F7  343D               	retlw	61	;'='
  1448  18F8  3431               	retlw	49	;'1'
  1449  18F9  3400               	retlw	0
  1450                           
  1451                           	psect	stringtext12
  1452  18FA                     __pstringtext12:	
  1453  18FA                     STR_1:	
  1454  18FA  3441               	retlw	65	;'A'
  1455  18FB  3454               	retlw	84	;'T'
  1456  18FC  3424               	retlw	36	;'$'
  1457  18FD  3453               	retlw	83	;'S'
  1458  18FE  3446               	retlw	70	;'F'
  1459  18FF  343D               	retlw	61	;'='
  1460  1900  3400               	retlw	0
  1461                           
  1462                           	psect	stringtext13
  1463  1901                     __pstringtext13:	
  1464  1901                     STR_7:	
  1465  1901  3441               	retlw	65	;'A'
  1466  1902  3454               	retlw	84	;'T'
  1467  1903  3449               	retlw	73	;'I'
  1468  1904  3432               	retlw	50	;'2'
  1469  1905  3436               	retlw	54	;'6'
  1470  1906  3400               	retlw	0
  1471                           
  1472                           	psect	stringtext14
  1473  1907                     __pstringtext14:	
  1474  1907                     STR_5:	
  1475  1907  3441               	retlw	65	;'A'
  1476  1908  3454               	retlw	84	;'T'
  1477  1909  3449               	retlw	73	;'I'
  1478  190A  3437               	retlw	55	;'7'
  1479  190B  3400               	retlw	0
  1480                           
  1481                           	psect	stringtext15
  1482  190C                     __pstringtext15:	
  1483  190C                     STR_4:	
  1484  190C  344F               	retlw	79	;'O'
  1485  190D  344B               	retlw	75	;'K'
  1486  190E  3400               	retlw	0
  1487                           
  1488                           	psect	stringtext16
  1489  0000                     __pstringtext16:	
  1490  18FA                     
  1491                           ; #config settings
  1492  0000                     
  1493                           	psect	cinit
  1494  0027                     start_initialization:	
  1495  0027                     __initialization:		;BIGRAM
  1496                           
  1497                           ; Clear objects allocated to BIGRAM
  1498  0027  3008               	movlw	8
  1499  0028  0084               	movwf	4
  1500  0029  3022               	movlw	34
  1501  002A  0085               	movwf	5
  1502  002B  30E8               	movlw	232
  1503  002C  00FE               	movwf	126
  1504  002D  3001               	movlw	1
  1505  002E  00FF               	movwf	127
  1506  002F  3186  26A5  3180   	fcall	clear_ram0
  1507                           
  1508                           ; Clear objects allocated to COMMON
  1509  0032  01FB               	clrf	__pbssCOMMON& (0+127)
  1510                           
  1511                           ; Clear objects allocated to BANK2
  1512  0033  0022               	movlb	2	; select bank2
  1513  0034  01C2               	clrf	__pbssBANK2& (0+127)
  1514  0035  01C3               	clrf	(__pbssBANK2+1)& (0+127)
  1515  0036  01C4               	clrf	(__pbssBANK2+2)& (0+127)
  1516  0037                     end_of_initialization:	
  1517                           ;End of C runtime variable initialization code
  1518                           
  1519  0037                     __end_of__initialization:	
  1520  0037  107E               	bcf	126,0	;clear compiler interrupt flag (level 1)
  1521  0038  0020               	movlb	0
  1522  0039  283A               	ljmp	_main	;jump to C main() function
  1523  003A                     __pmaintext:	
  1524 ;;
  1525 ;;Main: autosize = 0, tempsize = 0, incstack = 0, save=0
  1526 ;;
  1527 ;; *************** function _main *****************
  1528 ;; Defined at:
  1529 ;;		line 142 in file "../Sources/main.c"
  1530 ;; Parameters:    Size  Location     Type
  1531 ;;		None
  1532 ;; Auto vars:     Size  Location     Type
  1533 ;;  tab_temp       50    0[BANK1 ] char [50]
  1534 ;;  Lat             4   24[BANK2 ] unsigned long 
  1535 ;;  Long            4   20[BANK2 ] unsigned long 
  1536 ;;  VBackup         3   31[BANK2 ] float 
  1537 ;;  VSolar          3   28[BANK2 ] float 
  1538 ;;  VBackup_max     3    9[BANK2 ] float 
  1539 ;;  VBackup_min     3    6[BANK2 ] float 
  1540 ;;  Vdd             3    2[BANK2 ] float 
  1541 ;;  cap             3   75[BANK1 ] float 
  1542 ;;  vitesse         3   72[BANK1 ] float 
  1543 ;;  nb_slot_prot    2   78[BANK1 ] unsigned short 
  1544 ;;  cpt_reveil      2   70[BANK1 ] unsigned short 
  1545 ;;  temp_moy        2   68[BANK1 ] short 
  1546 ;;  cpt_reveil_s    2   66[BANK1 ] unsigned short 
  1547 ;;  cpt_timeout     2   62[BANK1 ] unsigned short 
  1548 ;;  temp_short      2   60[BANK1 ] unsigned short 
  1549 ;;  cpt_timeout3    2   58[BANK1 ] unsigned short 
  1550 ;;  cpt_timeout2    2   56[BANK1 ] unsigned short 
  1551 ;;  dopBis          1   15[BANK2 ] unsigned char 
  1552 ;;  state_s         1   14[BANK2 ] unsigned char 
  1553 ;;  index_temp_o    1   13[BANK2 ] unsigned char 
  1554 ;;  day_status      1   12[BANK2 ] unsigned char 
  1555 ;;  actual_temp     1    5[BANK2 ] char 
  1556 ;;  temp_max        1    1[BANK2 ] char 
  1557 ;;  temp_min        1    0[BANK2 ] char 
  1558 ;;  flag_protect    1   65[BANK1 ] unsigned char 
  1559 ;;  count_confir    1   64[BANK1 ] unsigned char 
  1560 ;;  old_state_s     1   55[BANK1 ] unsigned char 
  1561 ;;  temp_uchar      1   54[BANK1 ] unsigned char 
  1562 ;;  temp_char       1   79[BANK0 ] char 
  1563 ;;  compteur_tra    1    0        unsigned char 
  1564 ;; Return value:  Size  Location     Type
  1565 ;;                  1    wreg      void 
  1566 ;; Registers used:
  1567 ;;		wreg, fsr0l, fsr0h, fsr1l, fsr1h, status,2, status,0, pclath, cstack
  1568 ;; Tracked objects:
  1569 ;;		On entry : B1F/0
  1570 ;;		On exit  : 1F/2
  1571 ;;		Unchanged: 0/0
  1572 ;; Data sizes:     COMMON   BANK0   BANK1   BANK2   BANK3   BANK4   BANK5   BANK6   BANK7   BANK8   BANK9  BANK10  BANK1
      +1  BANK12
  1573 ;;      Params:         0       0       0       0       0       0       0       0       0       0       0       0       
      +0       0
  1574 ;;      Locals:         0       3      80      34       0       0       0       0       0       0       0       0       
      +0       0
  1575 ;;      Temps:          0       0       0       0       0       0       0       0       0       0       0       0       
      +0       0
  1576 ;;      Totals:         0       3      80      34       0       0       0       0       0       0       0       0       
      +0       0
  1577 ;;Total ram usage:      117 bytes
  1578 ;; Hardware stack levels required when called:    6
  1579 ;; This function calls:
  1580 ;;		_Delay_100ms
  1581 ;;		_Envoi_message
  1582 ;;		_Envoi_message_Erreur
  1583 ;;		_Envoi_message_service
  1584 ;;		_Measure_Vdd_VSolar_VBackup
  1585 ;;		_Processing_Temperature
  1586 ;;		_Reinit_trame_GPS
  1587 ;;		_UART_Frame_Received
  1588 ;;		_UART_RX_Buffers_Init
  1589 ;;		___awdiv
  1590 ;;		___ftdiv
  1591 ;;		___ftge
  1592 ;;		___fttol
  1593 ;;		___lwdiv
  1594 ;;		___lwmod
  1595 ;;		_chaine_Init
  1596 ;;		_configure_GPS
  1597 ;;		_configure_GPS_VTG
  1598 ;;		_decodage_Lat_Long
  1599 ;;		_decodage_VTG
  1600 ;;		_decode_trame_GPS
  1601 ;;		_init_compteur_trames
  1602 ;; This function is called by:
  1603 ;;		Startup code after reset
  1604 ;; This function uses a non-reentrant model
  1605 ;;
  1606                           
  1607                           
  1608                           ;psect for function _main
  1609  003A                     _main:	
  1610                           
  1611                           ;main.c: 144: float Vdd,VBackup,VSolar;
  1612                           ;main.c: 145: unsigned char day_status;
  1613                           ;main.c: 146: unsigned short cpt_reveil, cpt_reveil_service;
  1614                           ;main.c: 147: unsigned char compteur_trames;
  1615                           ;main.c: 148: unsigned char flag_protect;
  1616                           ;main.c: 149: unsigned short nb_slot_protec;
  1617                           ;main.c: 150: unsigned short cpt_timeout,cpt_timeout2,cpt_timeout3;
  1618                           ;main.c: 151: unsigned char dopBis;
  1619                           ;main.c: 152: unsigned long Lat,Long;
  1620                           ;main.c: 153: float vitesse,cap;
  1621                           ;main.c: 154: unsigned char state_s, old_state_s;
  1622                           ;main.c: 155: unsigned char count_confirmation;
  1623                           
  1624                           ;incstack = 0
  1625                           ; Regs used in _main: [wreg-fsr1h+status,2+status,0+pclath+cstack]
  1626  003A  3003               	movlw	3
  1627  003B  0021               	movlb	1	; select bank1
  1628  003C  0499               	iorwf	25,f	;volatile
  1629  003D  1399               	bcf	25,7	;volatile
  1630  003E  3087               	movlw	-121
  1631  003F  0599               	andwf	25,f	;volatile
  1632  0040                     l154:	
  1633  0040  1C9A               	btfss	26,1	;volatile
  1634  0041  2840               	goto	l154
  1635                           
  1636                           ;main.c: 168: TRISC0 = 1; TRISC1 = 1; LATA2=1;; TRISA2=0; LATC5=1; TRISC5=1; LATC4=1; TR
      +                          ISC4=1; LATA5=0; TRISA5=0; LATC0=0; LATC1=0; LATA4=0; TRISA4 = 1; TRISA1 = 1; LATA0=1; T
      +                          RISA0 = 1; TRISC3 = 1; TRISC2 = 1; ANSELA=0x00; ANSELC=0b00001100;
  1637  0042  140E               	bsf	14,0	;volatile
  1638  0043  148E               	bsf	14,1	;volatile
  1639  0044  0022               	movlb	2	; select bank2
  1640  0045  150C               	bsf	12,2	;volatile
  1641  0046  0021               	movlb	1	; select bank1
  1642  0047  110C               	bcf	12,2	;volatile
  1643  0048  0022               	movlb	2	; select bank2
  1644  0049  168E               	bsf	14,5	;volatile
  1645  004A  0021               	movlb	1	; select bank1
  1646  004B  168E               	bsf	14,5	;volatile
  1647  004C  0022               	movlb	2	; select bank2
  1648  004D  160E               	bsf	14,4	;volatile
  1649  004E  0021               	movlb	1	; select bank1
  1650  004F  160E               	bsf	14,4	;volatile
  1651  0050  0022               	movlb	2	; select bank2
  1652  0051  128C               	bcf	12,5	;volatile
  1653  0052  0021               	movlb	1	; select bank1
  1654  0053  128C               	bcf	12,5	;volatile
  1655  0054  0022               	movlb	2	; select bank2
  1656  0055  100E               	bcf	14,0	;volatile
  1657  0056  108E               	bcf	14,1	;volatile
  1658  0057  120C               	bcf	12,4	;volatile
  1659  0058  0021               	movlb	1	; select bank1
  1660  0059  160C               	bsf	12,4	;volatile
  1661  005A  148C               	bsf	12,1	;volatile
  1662  005B  0022               	movlb	2	; select bank2
  1663  005C  140C               	bsf	12,0	;volatile
  1664  005D  0021               	movlb	1	; select bank1
  1665  005E  140C               	bsf	12,0	;volatile
  1666  005F  158E               	bsf	14,3	;volatile
  1667  0060  150E               	bsf	14,2	;volatile
  1668  0061  0023               	movlb	3	; select bank3
  1669  0062  018C               	clrf	12	;volatile
  1670  0063  300C               	movlw	12
  1671  0064  008E               	movwf	14	;volatile
  1672                           
  1673                           ;main.c: 169: WDTCONbits.WDTPS= 0b01110;;
  1674  0065  0021               	movlb	1	; select bank1
  1675  0066  0817               	movf	23,w	;volatile
  1676  0067  39C1               	andlw	-63
  1677  0068  381C               	iorlw	28
  1678  0069  0097               	movwf	23	;volatile
  1679                           
  1680                           ;main.c: 171: SPBRGH=0x01; SPBRGL=0xA0; BAUDCONbits.BRG16=0b1; TXSTAbits.BRGH=0b1; TXSTA
      +                          bits.SYNC=0b0; RCSTAbits.SPEN=0b1; TXSTAbits.TXEN=0b0; UART_RX_Buffers_Init();
  1681  006A  3001               	movlw	1
  1682  006B  0023               	movlb	3	; select bank3
  1683  006C  009C               	movwf	28	;volatile
  1684  006D  30A0               	movlw	160
  1685  006E  009B               	movwf	27	;volatile
  1686  006F  159F               	bsf	31,3	;volatile
  1687  0070  151E               	bsf	30,2	;volatile
  1688  0071  121E               	bcf	30,4	;volatile
  1689  0072  179D               	bsf	29,7	;volatile
  1690  0073  129E               	bcf	30,5	;volatile
  1691  0074  3194  249F  3180   	fcall	_UART_RX_Buffers_Init
  1692                           
  1693                           ;main.c: 172: chaine_Init();;
  1694  0077  259A  3180         	fcall	_chaine_Init
  1695                           
  1696                           ;main.c: 175: cpt_reveil=0;
  1697  0079  0021               	movlb	1	; select bank1
  1698  007A  01E6               	clrf	main@cpt_reveil^(0+128)
  1699  007B  01E7               	clrf	(main@cpt_reveil+1)^(0+128)
  1700                           
  1701                           ;main.c: 177: compteur_trames=0;
  1702  007C  01E2               	clrf	main@cpt_reveil_service^(0+128)
  1703  007D  01E3               	clrf	(main@cpt_reveil_service+1)^(0+128)
  1704                           
  1705                           ;main.c: 178: nb_slot_protec=0;
  1706  007E  01EE               	clrf	main@nb_slot_protec^(0+128)
  1707  007F  01EF               	clrf	(main@nb_slot_protec+1)^(0+128)
  1708                           
  1709                           ;main.c: 179: day_status=0b1;
  1710  0080  0022               	movlb	2	; select bank2
  1711  0081  01AC               	clrf	main@day_status^(0+256)
  1712  0082  0AAC               	incf	main@day_status^(0+256),f
  1713                           
  1714                           ;main.c: 180: PIE1=0; PIE2=0; (void)RCREG; (void)RCREG; PIE1bits.RCIE=0b1; INTCONbits.PE
      +                          IE=0b1; INTCONbits.GIE=0b1;
  1715  0083  0021               	movlb	1	; select bank1
  1716  0084  0191               	clrf	17	;volatile
  1717  0085  0192               	clrf	18	;volatile
  1718  0086  0023               	movlb	3	; select bank3
  1719  0087  0819               	movf	25,w	;volatile
  1720  0088  0819               	movf	25,w	;volatile
  1721  0089  0021               	movlb	1	; select bank1
  1722  008A  1691               	bsf	17,5	;volatile
  1723  008B  170B               	bsf	11,6	;volatile
  1724  008C  178B               	bsf	11,7	;volatile
  1725                           
  1726                           ;main.c: 181: init_compteur_trames();
  1727  008D  25A8  3180         	fcall	_init_compteur_trames
  1728                           
  1729                           ;main.c: 182: state_s=0x11;
  1730  008F  3011               	movlw	17
  1731  0090  00AE               	movwf	main@state_s^(0+256)
  1732                           
  1733                           ;main.c: 183: count_confirmation=0;
  1734  0091  0021               	movlb	1	; select bank1
  1735  0092  307F               	movlw	127
  1736  0093  01E0               	clrf	main@count_confirmation^(0+128)
  1737                           
  1738                           ;main.c: 184: vitesse=0.0;
  1739  0094  01E8               	clrf	main@vitesse^(0+128)
  1740  0095  01E9               	clrf	(main@vitesse+1)^(0+128)
  1741  0096  01EA               	clrf	(main@vitesse+2)^(0+128)
  1742                           
  1743                           ;main.c: 185: cap=0.0;
  1744  0097  01EB               	clrf	main@cap^(0+128)
  1745  0098  01EC               	clrf	(main@cap+1)^(0+128)
  1746  0099  01ED               	clrf	(main@cap+2)^(0+128)
  1747                           
  1748                           ;main.c: 186: temp_min=127;
  1749  009A  0022               	movlb	2	; select bank2
  1750  009B  00A0               	movwf	main@temp_min^(0+256)
  1751                           
  1752                           ;main.c: 187: temp_max=-127;
  1753  009C  3081               	movlw	129
  1754  009D  00A1               	movwf	main@temp_max^(0+256)
  1755                           
  1756                           ;main.c: 188: VBackup_min=9999;
  1757  009E  303C               	movlw	60
  1758  009F  00A6               	movwf	main@VBackup_min^(0+256)
  1759  00A0  301C               	movlw	28
  1760  00A1  00A7               	movwf	(main@VBackup_min+1)^(0+256)
  1761  00A2  3046               	movlw	70
  1762  00A3  00A8               	movwf	(main@VBackup_min+2)^(0+256)
  1763                           
  1764                           ;main.c: 189: VBackup_max=-9999;
  1765  00A4  303C               	movlw	60
  1766  00A5  00A9               	movwf	main@VBackup_max^(0+256)
  1767  00A6  301C               	movlw	28
  1768  00A7  00AA               	movwf	(main@VBackup_max+1)^(0+256)
  1769  00A8  30C6               	movlw	198
  1770  00A9  00AB               	movwf	(main@VBackup_max+2)^(0+256)
  1771                           
  1772                           ;main.c: 190: flag_protect=0;
  1773  00AA  0021               	movlb	1	; select bank1
  1774  00AB  01E1               	clrf	main@flag_protect^(0+128)
  1775                           
  1776                           ;main.c: 193: for(index_temp_old=0;index_temp_old<(5100/102);index_temp_old++) {
  1777  00AC  0022               	movlb	2	; select bank2
  1778  00AD  01AD               	clrf	main@index_temp_old^(0+256)
  1779  00AE                     l6771:	
  1780  00AE  3032               	movlw	50
  1781  00AF  022D               	subwf	main@index_temp_old^(0+256),w
  1782  00B0  1803               	btfsc	3,0
  1783  00B1  28B9               	goto	l6781
  1784                           
  1785                           ;main.c: 194: tab_temp[index_temp_old] = 0;
  1786  00B2  082D               	movf	main@index_temp_old^(0+256),w
  1787  00B3  3EA0               	addlw	(low (main@tab_temp| 0))& (0+255)
  1788  00B4  0086               	movwf	6
  1789  00B5  0187               	clrf	7
  1790  00B6  0181               	clrf	1
  1791  00B7  0AAD               	incf	main@index_temp_old^(0+256),f
  1792  00B8  28AE               	goto	l6771
  1793  00B9                     l6781:	
  1794                           
  1795                           ;main.c: 195: }
  1796                           ;main.c: 197: index_temp_old = 0;
  1797  00B9  01AD               	clrf	main@index_temp_old^(0+256)
  1798                           
  1799                           ;main.c: 198: temp_moy = 0;
  1800  00BA  0021               	movlb	1	; select bank1
  1801  00BB  3003               	movlw	3
  1802  00BC  01E4               	clrf	main@temp_moy^(0+128)
  1803  00BD  01E5               	clrf	(main@temp_moy+1)^(0+128)
  1804                           
  1805                           ;main.c: 201: OSCCONbits.SCS=3; OSCCONbits.SPLLEN=0; OSCCONbits.IRCF=0x0F; while(OSCSTAT
      +                          bits.HFIOFR==0);
  1806  00BE  0499               	iorwf	25,f	;volatile
  1807  00BF  1399               	bcf	25,7	;volatile
  1808  00C0  3078               	movlw	120
  1809  00C1  0499               	iorwf	25,f	;volatile
  1810  00C2                     l159:	
  1811  00C2  1E1A               	btfss	26,4	;volatile
  1812  00C3  28C2               	goto	l159
  1813  00C4  2C31               	goto	l162
  1814  00C5                     l6797:	
  1815                           
  1816                           ;main.c: 341: Measure_Vdd_VSolar_VBackup(&Vdd,&VSolar,&VBackup,&VBackup_min,&VBackup_max
      +                          );
  1817  00C5  303C               	movlw	(low (main@VSolar| (0+256)))& (0+255)
  1818  00C6  25E3               	fcall	PL26	;call to abstracted procedure
  1819  00C7  3195  2582  3180   	fcall	_Measure_Vdd_VSolar_VBackup
  1820                           
  1821                           ;main.c: 343: if((VBackup < 1150));
  1822  00CA  25F8  3180         	fcall	PL38	;call to abstracted procedure
  1823  00CC  30C0               	movlw	192
  1824  00CD  00F5               	movwf	___ftge@ff2
  1825  00CE  308F               	movlw	143
  1826  00CF  00F6               	movwf	___ftge@ff2+1
  1827  00D0  3044               	movlw	68
  1828  00D1  00F7               	movwf	___ftge@ff2+2
  1829  00D2  24B4  3180         	fcall	___ftge
  1830  00D4  1C03               	btfss	3,0
  1831  00D5  2C31               	goto	l162
  1832                           
  1833                           ;main.c: 344: else {
  1834                           ;main.c: 349: cpt_reveil=0;
  1835  00D6  0021               	movlb	1	; select bank1
  1836  00D7  307A               	movlw	122
  1837  00D8  01E6               	clrf	main@cpt_reveil^(0+128)
  1838  00D9  01E7               	clrf	(main@cpt_reveil+1)^(0+128)
  1839                           
  1840                           ;main.c: 350: cpt_reveil_service=0;
  1841  00DA  01E2               	clrf	main@cpt_reveil_service^(0+128)
  1842  00DB  01E3               	clrf	(main@cpt_reveil_service+1)^(0+128)
  1843                           
  1844                           ;main.c: 352: if (VSolar > 1000 ){
  1845  00DC  25EC  3180         	fcall	PL34	;call to abstracted procedure
  1846  00DE  24B4  3180         	fcall	___ftge
  1847  00E0  1803               	btfsc	3,0
  1848  00E1  28FC               	goto	l6821
  1849                           
  1850                           ;main.c: 353: state_s=0x22;
  1851  00E2  3022               	movlw	34
  1852  00E3  0022               	movlb	2	; select bank2
  1853  00E4  00AE               	movwf	main@state_s^(0+256)
  1854                           
  1855                           ;main.c: 354: LATA2=0;; Delay_100ms(2);;
  1856  00E5  2642  3180         	fcall	PL108	;call to abstracted procedure
  1857  00E7  24E0  3180         	fcall	_Delay_100ms
  1858                           
  1859                           ;main.c: 355: Envoi_message_Erreur(VSolar,VBackup,0b1,6);
  1860  00E9  25D6  3180         	fcall	PL20	;call to abstracted procedure
  1861  00EB  245F  3180         	fcall	___fttol
  1862                           
  1863                           ;main.c: 355: Envoi_message_Erreur(VSolar,VBackup,0b1,6);
  1864  00ED  25C3  3180         	fcall	PL14	;call to abstracted procedure
  1865  00EF  245F  3180         	fcall	___fttol
  1866                           
  1867                           ;main.c: 355: Envoi_message_Erreur(VSolar,VBackup,0b1,6);
  1868  00F1  25AC               	fcall	PL10	;call to abstracted procedure
  1869  00F2  3006               	movlw	6
  1870  00F3                     L9:	
  1871  00F3  01DE               	clrf	Envoi_message_Erreur@day_status
  1872  00F4  0ADE               	incf	Envoi_message_Erreur@day_status,f
  1873  00F5                     L1:	
  1874  00F5  00DF               	movwf	Envoi_message_Erreur@raison
  1875  00F6  3192  2232  3180   	fcall	_Envoi_message_Erreur
  1876  00F9                     l6819:	
  1877                           
  1878                           ;main.c: 356: LATA2=1;;;
  1879  00F9  0022               	movlb	2	; select bank2
  1880  00FA  150C               	bsf	12,2	;volatile
  1881                           
  1882                           ;main.c: 357: }
  1883  00FB  2C31               	goto	l162
  1884  00FC                     l6821:	
  1885                           
  1886                           ;main.c: 358: else {
  1887                           ;main.c: 359: state_s=0x33;
  1888  00FC  3033               	movlw	51
  1889  00FD  0022               	movlb	2	; select bank2
  1890  00FE  00AE               	movwf	main@state_s^(0+256)
  1891                           
  1892                           ;main.c: 360: LATA2=0;; Delay_100ms(2);;
  1893  00FF  2642  3180         	fcall	PL108	;call to abstracted procedure
  1894  0101  24E0  3180         	fcall	_Delay_100ms
  1895                           
  1896                           ;main.c: 361: Envoi_message_Erreur(VSolar,VBackup,0b0,6);
  1897  0103  25D6  3180         	fcall	PL20	;call to abstracted procedure
  1898  0105  245F  3180         	fcall	___fttol
  1899                           
  1900                           ;main.c: 361: Envoi_message_Erreur(VSolar,VBackup,0b0,6);
  1901  0107  25C3  3180         	fcall	PL14	;call to abstracted procedure
  1902  0109  245F  3180         	fcall	___fttol
  1903                           
  1904                           ;main.c: 361: Envoi_message_Erreur(VSolar,VBackup,0b0,6);
  1905  010B  25AC  3180         	fcall	PL10	;call to abstracted procedure
  1906  010D  3006               	movlw	6
  1907  010E  01DE               	clrf	Envoi_message_Erreur@day_status
  1908  010F  28F5               	goto	L1
  1909  0110                     l172:	
  1910                           ;main.c: 366: case 0x22:
  1911                           
  1912  0110  303C               	movlw	(low (main@VSolar| (0+256)))& (0+255)
  1913                           
  1914                           ;main.c: 367: day_status=0b1;
  1915  0111  01AC               	clrf	main@day_status^(0+256)
  1916  0112  0AAC               	incf	main@day_status^(0+256),f
  1917                           
  1918                           ;main.c: 368: Measure_Vdd_VSolar_VBackup(&Vdd,&VSolar,&VBackup,&VBackup_min,&VBackup_max
      +                          );
  1919  0113  25E3               	fcall	PL26	;call to abstracted procedure
  1920  0114  3195  2582  3180   	fcall	_Measure_Vdd_VSolar_VBackup
  1921                           
  1922                           ;main.c: 369: if(VBackup < 900){
  1923  0117  25F8  3180         	fcall	PL38	;call to abstracted procedure
  1924  0119  3061               	movlw	97
  1925  011A  2654  3180         	fcall	PL150	;call to abstracted procedure
  1926  011C  24B4  3180         	fcall	___ftge
  1927  011E  1803               	btfsc	3,0
  1928  011F  2938               	goto	l6859
  1929                           
  1930                           ;main.c: 370: TRISA4 =1;
  1931                           
  1932                           ;main.c: 372: flag_protect=0;
  1933                           
  1934                           ;main.c: 373: LATA2=0;; Delay_100ms(2);;
  1935  0120  2609  3180         	fcall	PL42	;call to abstracted procedure
  1936  0122  24E0  3180         	fcall	_Delay_100ms
  1937                           
  1938                           ;main.c: 374: Envoi_message_Erreur(VSolar,VBackup,day_status,1);
  1939  0124  25D6  3180         	fcall	PL20	;call to abstracted procedure
  1940  0126  245F  3180         	fcall	___fttol
  1941                           
  1942                           ;main.c: 374: Envoi_message_Erreur(VSolar,VBackup,day_status,1);
  1943  0128  25C3  3180         	fcall	PL14	;call to abstracted procedure
  1944  012A  245F  3180         	fcall	___fttol
  1945                           
  1946                           ;main.c: 374: Envoi_message_Erreur(VSolar,VBackup,day_status,1);
  1947  012C  25AC               	fcall	PL10	;call to abstracted procedure
  1948  012D  01DE               	clrf	Envoi_message_Erreur@day_status
  1949  012E  0ADE               	incf	Envoi_message_Erreur@day_status,f
  1950  012F  01DF               	clrf	Envoi_message_Erreur@raison
  1951  0130  0ADF               	incf	Envoi_message_Erreur@raison,f
  1952  0131                     L5:	
  1953  0131  3192  2232  3180   	fcall	_Envoi_message_Erreur
  1954                           
  1955                           ;main.c: 375: LATA2=1;;;
  1956  0134  0022               	movlb	2	; select bank2
  1957  0135  150C               	bsf	12,2	;volatile
  1958                           
  1959                           ;main.c: 376: state_s=0x11;
  1960  0136  3011               	movlw	17
  1961  0137  2C30               	goto	L8
  1962  0138                     l6859:	
  1963                           ;main.c: 377: break;
  1964                           
  1965                           
  1966                           ;main.c: 379: else {
  1967                           ;main.c: 380: if(VBackup > 2600){
  1968  0138  3080               	movlw	128
  1969  0139  00F2               	movwf	___ftge@ff1
  1970  013A  3022               	movlw	34
  1971  013B  00F3               	movwf	___ftge@ff1+1
  1972  013C  3045               	movlw	69
  1973  013D  2600  3180         	fcall	PL40	;call to abstracted procedure
  1974  013F  24B4  3180         	fcall	___ftge
  1975  0141  1803               	btfsc	3,0
  1976  0142  2948               	goto	l6863
  1977                           
  1978                           ;main.c: 381: TRISA4 =0;
  1979  0143  0021               	movlb	1	; select bank1
  1980  0144  120C               	bcf	12,4	;volatile
  1981                           
  1982                           ;main.c: 382: flag_protect=1;
  1983  0145  01E1               	clrf	main@flag_protect^(0+128)
  1984  0146  0AE1               	incf	main@flag_protect^(0+128),f
  1985                           
  1986                           ;main.c: 383: }
  1987  0147  2957               	goto	l6869
  1988  0148                     l6863:	
  1989                           
  1990                           ;main.c: 384: else if(VBackup < 2500) {
  1991  0148  25F8  3180         	fcall	PL38	;call to abstracted procedure
  1992  014A  3040               	movlw	64
  1993  014B  00F5               	movwf	___ftge@ff2
  1994  014C  301C               	movlw	28
  1995  014D  00F6               	movwf	___ftge@ff2+1
  1996  014E  3045               	movlw	69
  1997  014F  00F7               	movwf	___ftge@ff2+2
  1998  0150  24B4  3180         	fcall	___ftge
  1999  0152  1803               	btfsc	3,0
  2000  0153  2957               	goto	l6869
  2001                           
  2002                           ;main.c: 385: TRISA4 =1;
  2003  0154  0021               	movlb	1	; select bank1
  2004  0155  160C               	bsf	12,4	;volatile
  2005                           
  2006                           ;main.c: 386: flag_protect=0;
  2007  0156  01E1               	clrf	main@flag_protect^(0+128)
  2008  0157                     l6869:	
  2009                           
  2010                           ;main.c: 387: }
  2011                           ;main.c: 389: if (VSolar < 1000 ){
  2012  0157  262C  3180         	fcall	PL66	;call to abstracted procedure
  2013  0159  24B4  3180         	fcall	___ftge
  2014  015B  1803               	btfsc	3,0
  2015  015C  2960               	goto	l6875
  2016                           
  2017                           ;main.c: 390: count_confirmation=0;
  2018  015D  0021               	movlb	1	; select bank1
  2019  015E  3044               	movlw	68
  2020  015F  2A20               	goto	L12
  2021  0160                     l6875:	
  2022                           ;main.c: 392: }
  2023                           
  2024                           ;main.c: 391: state_s=0x44;
  2025                           
  2026                           
  2027                           ;main.c: 393: else{
  2028                           ;main.c: 394: if((cpt_reveil / 213) >=1 ){
  2029  0160  30D5               	movlw	213
  2030  0161  00F2               	movwf	___lwdiv@divisor
  2031  0162  01F3               	clrf	___lwdiv@divisor+1
  2032  0163  2659  3180         	fcall	PL156	;call to abstracted procedure
  2033  0165  250A  3180         	fcall	___lwdiv
  2034  0167  0872               	movf	?___lwdiv,w
  2035  0168  0473               	iorwf	?___lwdiv+1,w
  2036  0169  1903               	btfsc	3,2
  2037  016A  2989               	goto	l6899
  2038                           
  2039                           ;main.c: 395: cpt_reveil=0;
  2040                           
  2041                           ;main.c: 396: if (VBackup > 1500){
  2042  016B  2612  3180         	fcall	PL44	;call to abstracted procedure
  2043  016D  2600  3180         	fcall	PL40	;call to abstracted procedure
  2044  016F  24B4  3180         	fcall	___ftge
  2045  0171  1803               	btfsc	3,0
  2046  0172  2979               	goto	l181
  2047                           
  2048                           ;main.c: 397: old_state_s=state_s;
  2049  0173  0022               	movlb	2	; select bank2
  2050  0174  082E               	movf	main@state_s^(0+256),w
  2051  0175  0021               	movlb	1	; select bank1
  2052  0176  00D7               	movwf	main@old_state_s^(0+128)
  2053                           
  2054                           ;main.c: 398: state_s=0x66;
  2055  0177  3066               	movlw	102
  2056  0178  2C2F               	goto	L11
  2057  0179                     l181:	
  2058                           ;main.c: 401: }
  2059                           
  2060                           
  2061                           ;main.c: 402: else{
  2062                           ;main.c: 403: TRISA4 =1;
  2063                           
  2064                           ;main.c: 404: flag_protect=0;
  2065                           
  2066                           ;main.c: 405: LATA2=0;; Delay_100ms(2);;
  2067  0179  2609  3180         	fcall	PL42	;call to abstracted procedure
  2068  017B  24E0  3180         	fcall	_Delay_100ms
  2069                           
  2070                           ;main.c: 406: Envoi_message_Erreur(VSolar,VBackup,day_status,2);
  2071  017D  25D6  3180         	fcall	PL20	;call to abstracted procedure
  2072  017F  245F  3180         	fcall	___fttol
  2073                           
  2074                           ;main.c: 406: Envoi_message_Erreur(VSolar,VBackup,day_status,2);
  2075  0181  25C3  3180         	fcall	PL14	;call to abstracted procedure
  2076  0183  245F  3180         	fcall	___fttol
  2077                           
  2078                           ;main.c: 406: Envoi_message_Erreur(VSolar,VBackup,day_status,2);
  2079  0185  25AC  3180         	fcall	PL10	;call to abstracted procedure
  2080  0187  3002               	movlw	2
  2081  0188  28F3               	goto	L9
  2082  0189                     l6899:	
  2083                           
  2084                           ;main.c: 413: else if(((cpt_reveil % 71) ==0 ) && (VBackup > 2550)){
  2085  0189  3047               	movlw	71
  2086  018A  00F2               	movwf	___lwmod@divisor
  2087  018B  01F3               	clrf	___lwmod@divisor+1
  2088  018C  0021               	movlb	1	; select bank1
  2089  018D  0867               	movf	(main@cpt_reveil+1)^(0+128),w
  2090  018E  00F5               	movwf	___lwmod@dividend+1
  2091  018F  0866               	movf	main@cpt_reveil^(0+128),w
  2092  0190  00F4               	movwf	___lwmod@dividend
  2093  0191  2562  3180         	fcall	___lwmod
  2094  0193  0872               	movf	?___lwmod,w
  2095  0194  0473               	iorwf	?___lwmod+1,w
  2096  0195  1D03               	btfss	3,2
  2097  0196  29A6               	goto	l6905
  2098  0197  3060               	movlw	96
  2099  0198  00F2               	movwf	___ftge@ff1
  2100  0199  301F               	movlw	31
  2101  019A  00F3               	movwf	___ftge@ff1+1
  2102  019B  3045               	movlw	69
  2103  019C  2600  3180         	fcall	PL40	;call to abstracted procedure
  2104  019E  24B4  3180         	fcall	___ftge
  2105  01A0  1803               	btfsc	3,0
  2106  01A1  29A6               	goto	l6905
  2107                           
  2108                           ;main.c: 414: old_state_s=state_s;
  2109  01A2  0022               	movlb	2	; select bank2
  2110  01A3  082E               	movf	main@state_s^(0+256),w
  2111                           
  2112                           ;main.c: 415: state_s=0x66;
  2113  01A4  264E  3180         	fcall	PL146	;call to abstracted procedure
  2114  01A6                     l6905:	
  2115                           ;main.c: 416: }
  2116                           
  2117                           
  2118                           ;main.c: 419: if((cpt_reveil_service % 102)==0){
  2119  01A6  2639  3180         	fcall	PL104	;call to abstracted procedure
  2120  01A8  2562  3180         	fcall	___lwmod
  2121  01AA  0872               	movf	?___lwmod,w
  2122  01AB  0473               	iorwf	?___lwmod+1,w
  2123  01AC  1D03               	btfss	3,2
  2124  01AD  29B2               	goto	l6909
  2125                           
  2126                           ;main.c: 420: Processing_Temperature(&actual_temp,&temp_min,&temp_max,&temp_moy,tab_temp
      +                          ,&index_temp_old);
  2127  01AE  2620               	fcall	PL62	;call to abstracted procedure
  2128  01AF  3190  20FA  3180   	fcall	_Processing_Temperature
  2129  01B2                     l6909:	
  2130                           
  2131                           ;main.c: 421: }
  2132                           ;main.c: 423: if(((cpt_reveil_service /5100)>=1) && (VSolar > VBackup)){
  2133  01B2  30EC               	movlw	236
  2134  01B3  00F2               	movwf	___lwdiv@divisor
  2135  01B4  3013               	movlw	19
  2136  01B5  00F3               	movwf	___lwdiv@divisor+1
  2137  01B6  0021               	movlb	1	; select bank1
  2138  01B7  0863               	movf	(main@cpt_reveil_service+1)^(0+128),w
  2139  01B8  00F5               	movwf	___lwdiv@dividend+1
  2140  01B9  0862               	movf	main@cpt_reveil_service^(0+128),w
  2141  01BA  00F4               	movwf	___lwdiv@dividend
  2142  01BB  250A  3180         	fcall	___lwdiv
  2143  01BD  0872               	movf	?___lwdiv,w
  2144  01BE  0473               	iorwf	?___lwdiv+1,w
  2145  01BF  1903               	btfsc	3,2
  2146  01C0  2C31               	goto	l162
  2147  01C1  25F8  3180         	fcall	PL38	;call to abstracted procedure
  2148  01C3  083C               	movf	main@VSolar^(0+256),w
  2149  01C4  00F5               	movwf	___ftge@ff2
  2150  01C5  083D               	movf	(main@VSolar+1)^(0+256),w
  2151  01C6  00F6               	movwf	___ftge@ff2+1
  2152  01C7  083E               	movf	(main@VSolar+2)^(0+256),w
  2153  01C8  00F7               	movwf	___ftge@ff2+2
  2154  01C9  24B4  3180         	fcall	___ftge
  2155  01CB  1803               	btfsc	3,0
  2156  01CC  2C31               	goto	l162
  2157                           
  2158                           ;main.c: 424: cpt_reveil_service=0;
  2159  01CD  0021               	movlb	1	; select bank1
  2160  01CE  3032               	movlw	50
  2161  01CF  01E2               	clrf	main@cpt_reveil_service^(0+128)
  2162  01D0  01E3               	clrf	(main@cpt_reveil_service+1)^(0+128)
  2163                           
  2164                           ;main.c: 425: temp_char=(signed char)(((signed short)temp_moy+(signed short)(0.5*(5100/1
      +                          02)))/(5100/102));
  2165  01D1  00F2               	movwf	___awdiv@divisor
  2166  01D2  01F3               	clrf	___awdiv@divisor+1
  2167  01D3  0864               	movf	main@temp_moy^(0+128),w
  2168  01D4  3E19               	addlw	25
  2169  01D5  00F4               	movwf	___awdiv@dividend
  2170  01D6  3000               	movlw	0
  2171  01D7  3D65               	addwfc	(main@temp_moy+1)^(0+128),w
  2172  01D8  00F5               	movwf	___awdiv@dividend+1
  2173  01D9  2665  3180         	fcall	___awdiv
  2174  01DB  0872               	movf	?___awdiv,w
  2175  01DC  0020               	movlb	0	; select bank0
  2176  01DD  00EF               	movwf	main@temp_char
  2177                           
  2178                           ;main.c: 426: LATA2=0;; Delay_100ms(2);;
  2179  01DE  261A  3180         	fcall	PL60	;call to abstracted procedure
  2180  01E0  24E0               	fcall	_Delay_100ms
  2181                           
  2182                           ;main.c: 427: Envoi_message_service(&nb_slot_protec,actual_temp,&temp_min,&temp_max,temp
      +                          _char,9,&VBackup_min,&VBackup_max);
  2183  01E1  0022               	movlb	2	; select bank2
  2184  01E2  0825               	movf	main@actual_temp^(0+256),w
  2185  01E3  0020               	movlb	0	; select bank0
  2186  01E4  00DA               	movwf	Envoi_message_service@actual_temp
  2187  01E5  3020               	movlw	(low (main@temp_min| (0+256)))& (0+255)
  2188  01E6  00DB               	movwf	Envoi_message_service@temp_min
  2189  01E7  3021               	movlw	(low (main@temp_max| (0+256)))& (0+255)
  2190  01E8  00DC               	movwf	Envoi_message_service@temp_max
  2191  01E9  086F               	movf	main@temp_char,w
  2192  01EA  00DD               	movwf	Envoi_message_service@temp_moy
  2193  01EB  3009               	movlw	9
  2194  01EC  00DE               	movwf	Envoi_message_service@sw_version
  2195  01ED  3026               	movlw	(low (main@VBackup_min| (0+256)))& (0+255)
  2196  01EE  00DF               	movwf	Envoi_message_service@VBackup_min
  2197  01EF  3029               	movlw	(low (main@VBackup_max| (0+256)))& (0+255)
  2198  01F0  00E0               	movwf	Envoi_message_service@VBackup_max
  2199  01F1  30EE               	movlw	(low (main@nb_slot_protec| 0))& (0+255)
  2200  01F2  3192  2294  3180   	fcall	_Envoi_message_service
  2201  01F5  28F9               	goto	l6819
  2202  01F6                     l6925:	
  2203  01F6  303C               	movlw	(low (main@VSolar| (0+256)))& (0+255)
  2204                           
  2205                           ;main.c: 436: day_status=0b0;
  2206  01F7  01AC               	clrf	main@day_status^(0+256)
  2207                           
  2208                           ;main.c: 437: Measure_Vdd_VSolar_VBackup(&Vdd,&VSolar,&VBackup,&VBackup_min,&VBackup_max
      +                          );
  2209  01F8  25E3               	fcall	PL26	;call to abstracted procedure
  2210  01F9  3195  2582  3180   	fcall	_Measure_Vdd_VSolar_VBackup
  2211                           
  2212                           ;main.c: 438: if((VBackup < 900)){
  2213  01FC  25F8  3180         	fcall	PL38	;call to abstracted procedure
  2214  01FE  3061               	movlw	97
  2215  01FF  2654  3180         	fcall	PL150	;call to abstracted procedure
  2216  0201  24B4  3180         	fcall	___ftge
  2217  0203  1803               	btfsc	3,0
  2218  0204  2A17               	goto	l6951
  2219                           
  2220                           ;main.c: 440: TRISA4 =1;
  2221                           
  2222                           ;main.c: 441: flag_protect=0;
  2223                           
  2224                           ;main.c: 442: LATA2=0;; Delay_100ms(2);;
  2225  0205  2609  3180         	fcall	PL42	;call to abstracted procedure
  2226  0207  24E0  3180         	fcall	_Delay_100ms
  2227                           
  2228                           ;main.c: 443: Envoi_message_Erreur(VSolar,VBackup,day_status,3);
  2229  0209  25D6  3180         	fcall	PL20	;call to abstracted procedure
  2230  020B  245F  3180         	fcall	___fttol
  2231                           
  2232                           ;main.c: 443: Envoi_message_Erreur(VSolar,VBackup,day_status,3);
  2233  020D  25C3  3180         	fcall	PL14	;call to abstracted procedure
  2234  020F  245F  3180         	fcall	___fttol
  2235                           
  2236                           ;main.c: 443: Envoi_message_Erreur(VSolar,VBackup,day_status,3);
  2237  0211  25AC  3180         	fcall	PL10	;call to abstracted procedure
  2238  0213  3003               	movlw	3
  2239  0214  01DE               	clrf	Envoi_message_Erreur@day_status
  2240  0215  00DF               	movwf	Envoi_message_Erreur@raison
  2241  0216  2931               	goto	L5
  2242  0217                     l6951:	
  2243                           
  2244                           ;main.c: 448: else {
  2245                           ;main.c: 449: if (VSolar > 1000 ){
  2246  0217  307A               	movlw	122
  2247  0218  25EC  3180         	fcall	PL34	;call to abstracted procedure
  2248  021A  24B4  3180         	fcall	___ftge
  2249  021C  1803               	btfsc	3,0
  2250  021D  2A22               	goto	l6957
  2251                           
  2252                           ;main.c: 450: count_confirmation=0;
  2253  021E  0021               	movlb	1	; select bank1
  2254  021F  3055               	movlw	85
  2255  0220                     L12:	
  2256  0220  01E0               	clrf	main@count_confirmation^(0+128)
  2257                           
  2258                           ;main.c: 451: state_s=0x55;
  2259  0221  2C2F               	goto	L11
  2260  0222                     l6957:	
  2261                           ;main.c: 452: }
  2262                           
  2263                           
  2264                           ;main.c: 453: else{
  2265                           ;main.c: 454: if((cpt_reveil / 1350) >=1 ){
  2266  0222  3046               	movlw	70
  2267  0223  00F2               	movwf	___lwdiv@divisor
  2268  0224  3005               	movlw	5
  2269  0225  00F3               	movwf	___lwdiv@divisor+1
  2270  0226  2659  3180         	fcall	PL156	;call to abstracted procedure
  2271  0228  250A  3180         	fcall	___lwdiv
  2272  022A  0872               	movf	?___lwdiv,w
  2273  022B  0473               	iorwf	?___lwdiv+1,w
  2274  022C  1903               	btfsc	3,2
  2275  022D  2A50               	goto	l6979
  2276                           
  2277                           ;main.c: 455: cpt_reveil=0;
  2278                           
  2279                           ;main.c: 456: if (VBackup > 1500){
  2280  022E  2612  3180         	fcall	PL44	;call to abstracted procedure
  2281  0230  2600  3180         	fcall	PL40	;call to abstracted procedure
  2282  0232  24B4  3180         	fcall	___ftge
  2283  0234  1803               	btfsc	3,0
  2284  0235  2A3B               	goto	l194
  2285                           
  2286                           ;main.c: 457: old_state_s=state_s;
  2287  0236  0022               	movlb	2	; select bank2
  2288  0237  082E               	movf	main@state_s^(0+256),w
  2289                           
  2290                           ;main.c: 458: state_s=0x66;
  2291  0238  264E  3180         	fcall	PL146	;call to abstracted procedure
  2292                           
  2293                           ;main.c: 459: }
  2294  023A  2A50               	goto	l6979
  2295  023B                     l194:	
  2296                           
  2297                           ;main.c: 460: else{
  2298                           ;main.c: 461: TRISA4 =1;
  2299                           
  2300                           ;main.c: 462: flag_protect=0;
  2301                           
  2302                           ;main.c: 463: LATA2=0;; Delay_100ms(2);;
  2303  023B  2609  3180         	fcall	PL42	;call to abstracted procedure
  2304  023D  24E0  3180         	fcall	_Delay_100ms
  2305                           
  2306                           ;main.c: 464: Envoi_message_Erreur(VSolar,VBackup,day_status,4);
  2307  023F  25D6  3180         	fcall	PL20	;call to abstracted procedure
  2308  0241  245F  3180         	fcall	___fttol
  2309                           
  2310                           ;main.c: 464: Envoi_message_Erreur(VSolar,VBackup,day_status,4);
  2311  0243  25C3  3180         	fcall	PL14	;call to abstracted procedure
  2312  0245  245F  3180         	fcall	___fttol
  2313                           
  2314                           ;main.c: 464: Envoi_message_Erreur(VSolar,VBackup,day_status,4);
  2315  0247  25AC               	fcall	PL10	;call to abstracted procedure
  2316  0248  3004               	movlw	4
  2317  0249  01DE               	clrf	Envoi_message_Erreur@day_status
  2318  024A  00DF               	movwf	Envoi_message_Erreur@raison
  2319  024B  3192  2232  3180   	fcall	_Envoi_message_Erreur
  2320                           
  2321                           ;main.c: 465: LATA2=1;;;
  2322  024E  0022               	movlb	2	; select bank2
  2323  024F  150C               	bsf	12,2	;volatile
  2324  0250                     l6979:	
  2325                           
  2326                           ;main.c: 471: if((cpt_reveil_service % 102)==0){
  2327  0250  2639  3180         	fcall	PL104	;call to abstracted procedure
  2328  0252  2562  3180         	fcall	___lwmod
  2329  0254  0872               	movf	?___lwmod,w
  2330  0255  0473               	iorwf	?___lwmod+1,w
  2331  0256  1D03               	btfss	3,2
  2332  0257  2C31               	goto	l162
  2333                           
  2334                           ;main.c: 472: Processing_Temperature(&actual_temp,&temp_min,&temp_max,&temp_moy,tab_temp
      +                          ,&index_temp_old);
  2335  0258  2620               	fcall	PL62	;call to abstracted procedure
  2336  0259  3190  20FA  3180   	fcall	_Processing_Temperature
  2337  025C  2C31               	goto	l162
  2338  025D                     l6983:	
  2339                           
  2340                           ;main.c: 480: Measure_Vdd_VSolar_VBackup(&Vdd,&VSolar,&VBackup,&VBackup_min,&VBackup_max
      +                          );
  2341  025D  303C               	movlw	(low (main@VSolar| (0+256)))& (0+255)
  2342  025E  25E3               	fcall	PL26	;call to abstracted procedure
  2343  025F  3195  2582  3180   	fcall	_Measure_Vdd_VSolar_VBackup
  2344                           
  2345                           ;main.c: 481: if (VSolar > 1000) {count_confirmation++;}
  2346  0262  307A               	movlw	122
  2347  0263  25EC  3180         	fcall	PL34	;call to abstracted procedure
  2348  0265  24B4  3180         	fcall	___ftge
  2349  0267  1803               	btfsc	3,0
  2350  0268  2A6C               	goto	l6989
  2351  0269  0021               	movlb	1	; select bank1
  2352  026A  0AE0               	incf	main@count_confirmation^(0+128),f
  2353  026B  2A6E               	goto	l6991
  2354  026C                     l6989:	
  2355                           
  2356                           ;main.c: 482: else {
  2357                           ;main.c: 483: state_s= 0x33;
  2358  026C  3033               	movlw	51
  2359  026D  2C2F               	goto	L11
  2360  026E                     l6991:	
  2361                           ;main.c: 484: break;
  2362                           
  2363                           
  2364                           ;main.c: 485: }
  2365                           ;main.c: 486: if (count_confirmation >= 2){
  2366  026E  3002               	movlw	2
  2367  026F  0260               	subwf	main@count_confirmation^(0+128),w
  2368  0270  1C03               	skipc
  2369  0271  2C31               	goto	l162
  2370  0272                     l6993:	
  2371                           
  2372                           ;main.c: 487: state_s= 0x22;
  2373  0272  3022               	movlw	34
  2374  0273  2C2F               	goto	L11
  2375  0274                     l6997:	
  2376                           ;main.c: 488: break;
  2377                           
  2378                           
  2379                           ;main.c: 495: Measure_Vdd_VSolar_VBackup(&Vdd,&VSolar,&VBackup,&VBackup_min,&VBackup_max
      +                          );
  2380  0274  303C               	movlw	(low (main@VSolar| (0+256)))& (0+255)
  2381  0275  25E3               	fcall	PL26	;call to abstracted procedure
  2382  0276  3195  2582  3180   	fcall	_Measure_Vdd_VSolar_VBackup
  2383                           
  2384                           ;main.c: 496: if (VSolar < 1000 )count_confirmation++;
  2385  0279  262C  3180         	fcall	PL66	;call to abstracted procedure
  2386  027B  24B4  3180         	fcall	___ftge
  2387  027D  1803               	btfsc	3,0
  2388  027E  2A72               	goto	l6993
  2389  027F  0021               	movlb	1	; select bank1
  2390  0280  3002               	movlw	2
  2391  0281  0AE0               	incf	main@count_confirmation^(0+128),f
  2392                           
  2393                           ;main.c: 500: }
  2394                           ;main.c: 501: if (count_confirmation >= 2){
  2395  0282  0260               	subwf	main@count_confirmation^(0+128),w
  2396  0283  1C03               	skipc
  2397  0284  2C31               	goto	l162
  2398                           
  2399                           ;main.c: 503: TRISA4 =1;
  2400  0285  160C               	bsf	12,4	;volatile
  2401                           
  2402                           ;main.c: 504: flag_protect=0;
  2403  0286  01E1               	clrf	main@flag_protect^(0+128)
  2404  0287  2A6C               	goto	l6989
  2405  0288                     l7015:	
  2406                           
  2407                           ;main.c: 512: UART_RX_Buffers_Init();
  2408  0288  3194  249F  3180   	fcall	_UART_RX_Buffers_Init
  2409                           
  2410                           ;main.c: 513: TRISA0=0; APFCON0bits.TXCKSEL=1; APFCON0bits.RXDTSEL=1; TXSTAbits.TXEN=0b1
      +                          ; RCSTAbits.CREN=0b1;
  2411  028B  0021               	movlb	1	; select bank1
  2412  028C  100C               	bcf	12,0	;volatile
  2413  028D  0022               	movlb	2	; select bank2
  2414  028E  151D               	bsf	29,2	;volatile
  2415  028F  179D               	bsf	29,7	;volatile
  2416  0290  0023               	movlb	3	; select bank3
  2417  0291  169E               	bsf	30,5	;volatile
  2418  0292  161D               	bsf	29,4	;volatile
  2419                           
  2420                           ;main.c: 514: TRISA4 =1;
  2421  0293  0021               	movlb	1	; select bank1
  2422  0294  160C               	bsf	12,4	;volatile
  2423                           
  2424                           ;main.c: 515: flag_protect=0;
  2425  0295  01E1               	clrf	main@flag_protect^(0+128)
  2426                           
  2427                           ;main.c: 516: TRISC1=0;
  2428  0296  108E               	bcf	14,1	;volatile
  2429                           
  2430                           ;main.c: 517: LATA5=1;
  2431  0297  0022               	movlb	2	; select bank2
  2432  0298  168C               	bsf	12,5	;volatile
  2433                           
  2434                           ;main.c: 518: Reinit_trame_GPS();
  2435  0299  318A  227F  3180   	fcall	_Reinit_trame_GPS
  2436                           
  2437                           ;main.c: 519: configure_GPS();
  2438  029C  3192  2204  3180   	fcall	_configure_GPS
  2439                           
  2440                           ;main.c: 520: cpt_timeout=0;
  2441  029F  0021               	movlb	1	; select bank1
  2442  02A0  01DE               	clrf	main@cpt_timeout^(0+128)
  2443  02A1  01DF               	clrf	(main@cpt_timeout+1)^(0+128)
  2444  02A2                     l7051:	
  2445                           ;main.c: 521: while(cpt_timeout<716){
  2446                           
  2447  02A2  3002               	movlw	2
  2448  02A3  025F               	subwf	(main@cpt_timeout+1)^(0+128),w
  2449  02A4  30CC               	movlw	204
  2450  02A5  1903               	skipnz
  2451  02A6  025E               	subwf	main@cpt_timeout^(0+128),w
  2452  02A7  1803               	btfsc	3,0
  2453  02A8  2ABE               	goto	l7053
  2454                           
  2455                           ;main.c: 523: if (UART_Frame_Received()!=0b0) {
  2456  02A9  252F  3180         	fcall	_UART_Frame_Received
  2457  02AB  3A00               	xorlw	0
  2458  02AC  1903               	skipnz
  2459  02AD  2AB4               	goto	l7047
  2460                           
  2461                           ;main.c: 524: if(decode_trame_GPS()==1) break;
  2462  02AE  3188  205C  3180   	fcall	_decode_trame_GPS
  2463  02B1  3A01               	xorlw	1
  2464  02B2  1903               	btfsc	3,2
  2465  02B3  2ABE               	goto	l7053
  2466  02B4                     l7047:	
  2467                           
  2468                           ;main.c: 525: }
  2469                           ;main.c: 526: Delay_100ms(2);
  2470  02B4  3002               	movlw	2
  2471  02B5  00F2               	movwf	Delay_100ms@duree
  2472  02B6  01F3               	clrf	Delay_100ms@duree+1
  2473  02B7  24E0  3180         	fcall	_Delay_100ms
  2474                           
  2475                           ;main.c: 528: cpt_timeout++;
  2476  02B9  0021               	movlb	1	; select bank1
  2477  02BA  0ADE               	incf	main@cpt_timeout^(0+128),f
  2478  02BB  1903               	skipnz
  2479  02BC  0ADF               	incf	(main@cpt_timeout+1)^(0+128),f
  2480  02BD  2AA2               	goto	l7051
  2481  02BE                     l7053:	
  2482                           
  2483                           ;main.c: 529: }
  2484                           ;main.c: 532: cpt_timeout2=0;
  2485  02BE  0021               	movlb	1	; select bank1
  2486  02BF  01D8               	clrf	main@cpt_timeout2^(0+128)
  2487  02C0  01D9               	clrf	(main@cpt_timeout2+1)^(0+128)
  2488  02C1                     l7063:	
  2489                           ;main.c: 533: while(cpt_timeout2<40){
  2490                           
  2491  02C1  3000               	movlw	0
  2492  02C2  0259               	subwf	(main@cpt_timeout2+1)^(0+128),w
  2493  02C3  3028               	movlw	40
  2494  02C4  1903               	skipnz
  2495  02C5  0258               	subwf	main@cpt_timeout2^(0+128),w
  2496  02C6  1803               	btfsc	3,0
  2497  02C7  2ADA               	goto	l7065
  2498                           
  2499                           ;main.c: 534: if (UART_Frame_Received()!=0b0) decode_trame_GPS();
  2500  02C8  252F  3180         	fcall	_UART_Frame_Received
  2501  02CA  3A00               	xorlw	0
  2502  02CB  1903               	skipnz
  2503  02CC  2AD0               	goto	l7059
  2504  02CD  3188  205C  3180   	fcall	_decode_trame_GPS
  2505  02D0                     l7059:	
  2506                           
  2507                           ;main.c: 535: Delay_100ms(2);
  2508  02D0  3002               	movlw	2
  2509  02D1  00F2               	movwf	Delay_100ms@duree
  2510  02D2  01F3               	clrf	Delay_100ms@duree+1
  2511  02D3  24E0  3180         	fcall	_Delay_100ms
  2512                           
  2513                           ;main.c: 537: cpt_timeout2++;
  2514  02D5  0021               	movlb	1	; select bank1
  2515  02D6  0AD8               	incf	main@cpt_timeout2^(0+128),f
  2516  02D7  1903               	skipnz
  2517  02D8  0AD9               	incf	(main@cpt_timeout2+1)^(0+128),f
  2518  02D9  2AC1               	goto	l7063
  2519  02DA                     l7065:	
  2520                           
  2521                           ;main.c: 538: }
  2522                           ;main.c: 541: configure_GPS_VTG();
  2523  02DA  3191  2180  3180   	fcall	_configure_GPS_VTG
  2524                           
  2525                           ;main.c: 542: cpt_timeout3=0;
  2526  02DD  0021               	movlb	1	; select bank1
  2527  02DE  01DA               	clrf	main@cpt_timeout3^(0+128)
  2528  02DF  01DB               	clrf	(main@cpt_timeout3+1)^(0+128)
  2529  02E0                     l7077:	
  2530                           ;main.c: 543: while(cpt_timeout3<10){
  2531                           
  2532  02E0  3000               	movlw	0
  2533  02E1  025B               	subwf	(main@cpt_timeout3+1)^(0+128),w
  2534  02E2  300A               	movlw	10
  2535  02E3  1903               	skipnz
  2536  02E4  025A               	subwf	main@cpt_timeout3^(0+128),w
  2537  02E5  1803               	btfsc	3,0
  2538  02E6  2AF9               	goto	l221
  2539                           
  2540                           ;main.c: 544: if (UART_Frame_Received()!=0b0) decode_trame_GPS();
  2541  02E7  252F  3180         	fcall	_UART_Frame_Received
  2542  02E9  3A00               	xorlw	0
  2543  02EA  1903               	skipnz
  2544  02EB  2AEF               	goto	l7073
  2545  02EC  3188  205C  3180   	fcall	_decode_trame_GPS
  2546  02EF                     l7073:	
  2547                           
  2548                           ;main.c: 545: Delay_100ms(2);
  2549  02EF  3002               	movlw	2
  2550  02F0  00F2               	movwf	Delay_100ms@duree
  2551  02F1  01F3               	clrf	Delay_100ms@duree+1
  2552  02F2  24E0  3180         	fcall	_Delay_100ms
  2553                           
  2554                           ;main.c: 547: cpt_timeout3++;
  2555  02F4  0021               	movlb	1	; select bank1
  2556  02F5  0ADA               	incf	main@cpt_timeout3^(0+128),f
  2557  02F6  1903               	skipnz
  2558  02F7  0ADB               	incf	(main@cpt_timeout3+1)^(0+128),f
  2559  02F8  2AE0               	goto	l7077
  2560  02F9                     l221:	
  2561                           
  2562                           ;main.c: 548: }
  2563                           ;main.c: 550: TRISC1=1;
  2564  02F9  148E               	bsf	14,1	;volatile
  2565                           
  2566                           ;main.c: 551: TXSTAbits.TXEN=0b0; RCSTAbits.CREN=0b0; TRISA0=1; UART_RX_Buffers_Init();
  2567  02FA  0023               	movlb	3	; select bank3
  2568  02FB  129E               	bcf	30,5	;volatile
  2569  02FC  121D               	bcf	29,4	;volatile
  2570  02FD  0021               	movlb	1	; select bank1
  2571  02FE  140C               	bsf	12,0	;volatile
  2572  02FF  3194  249F  3180   	fcall	_UART_RX_Buffers_Init
  2573                           
  2574                           ;main.c: 554: temp_short=(cpt_timeout+ cpt_timeout2 + cpt_timeout3)/25;
  2575  0302  0021               	movlb	1	; select bank1
  2576  0303  0858               	movf	main@cpt_timeout2^(0+128),w
  2577  0304  075E               	addwf	main@cpt_timeout^(0+128),w
  2578  0305  00F4               	movwf	___lwdiv@dividend
  2579  0306  0859               	movf	(main@cpt_timeout2+1)^(0+128),w
  2580  0307  3D5F               	addwfc	(main@cpt_timeout+1)^(0+128),w
  2581  0308  00F5               	movwf	___lwdiv@dividend+1
  2582  0309  085A               	movf	main@cpt_timeout3^(0+128),w
  2583  030A  07F4               	addwf	___lwdiv@dividend,f
  2584  030B  085B               	movf	(main@cpt_timeout3+1)^(0+128),w
  2585  030C  3DF5               	addwfc	___lwdiv@dividend+1,f
  2586  030D  3019               	movlw	25
  2587  030E  00F2               	movwf	___lwdiv@divisor
  2588  030F  01F3               	clrf	___lwdiv@divisor+1
  2589  0310  250A  3180         	fcall	___lwdiv
  2590  0312  0873               	movf	?___lwdiv+1,w
  2591  0313  0021               	movlb	1	; select bank1
  2592  0314  00DD               	movwf	(main@temp_short+1)^(0+128)
  2593  0315  0872               	movf	?___lwdiv,w
  2594  0316  00DC               	movwf	main@temp_short^(0+128)
  2595                           
  2596                           ;main.c: 555: if (temp_short > 15)temp_short=15;
  2597  0317  3000               	movlw	0
  2598  0318  025D               	subwf	(main@temp_short+1)^(0+128),w
  2599  0319  3010               	movlw	16
  2600  031A  1903               	skipnz
  2601  031B  025C               	subwf	main@temp_short^(0+128),w
  2602  031C  1C03               	skipc
  2603  031D  2B21               	goto	l222
  2604  031E  300F               	movlw	15
  2605  031F  00DC               	movwf	main@temp_short^(0+128)
  2606  0320  01DD               	clrf	(main@temp_short+1)^(0+128)
  2607  0321                     l222:	
  2608                           
  2609                           ;main.c: 557: if(cpt_timeout< 716){
  2610  0321  3002               	movlw	2
  2611  0322  025F               	subwf	(main@cpt_timeout+1)^(0+128),w
  2612  0323  30CC               	movlw	204
  2613  0324  1903               	skipnz
  2614  0325  025E               	subwf	main@cpt_timeout^(0+128),w
  2615  0326  1803               	skipnc
  2616  0327  2C15               	goto	l223
  2617                           
  2618                           ;main.c: 558: decodage_Lat_Long(&Lat,&Long,&dopBis);
  2619  0328  3034               	movlw	(low (main@Long| (0+256)))& (0+255)
  2620  0329  0020               	movlb	0	; select bank0
  2621  032A  00CE               	movwf	decodage_Lat_Long@Long
  2622  032B  302F               	movlw	(low (main@dopBis| (0+256)))& (0+255)
  2623  032C  00CF               	movwf	decodage_Lat_Long@dopBis
  2624  032D  3038               	movlw	(low (main@Lat| (0+256)))& (0+255)
  2625  032E  318C  2469  3180   	fcall	_decodage_Lat_Long
  2626                           
  2627                           ;main.c: 559: decodage_VTG(&cap,&vitesse);
  2628  0331  30E8               	movlw	(low (main@vitesse| 0))& (0+255)
  2629  0332  00CE               	movwf	decodage_VTG@vitesse
  2630  0333  30EB               	movlw	(low (main@cap| 0))& (0+255)
  2631  0334  318A  2256  3180   	fcall	_decodage_VTG
  2632                           
  2633                           ;main.c: 560: cap=cap / 11,25;
  2634  0337  3030               	movlw	48
  2635  0338  01B2               	clrf	___ftdiv@f2
  2636  0339  00B3               	movwf	___ftdiv@f2+1
  2637  033A  3041               	movlw	65
  2638  033B  00B4               	movwf	___ftdiv@f2+2
  2639  033C  0021               	movlb	1	; select bank1
  2640  033D  086B               	movf	main@cap^(0+128),w
  2641  033E  0020               	movlb	0	; select bank0
  2642  033F  00B5               	movwf	___ftdiv@f1
  2643  0340  0021               	movlb	1	; select bank1
  2644  0341  086C               	movf	(main@cap+1)^(0+128),w
  2645  0342  0020               	movlb	0	; select bank0
  2646  0343  00B6               	movwf	___ftdiv@f1+1
  2647  0344  0021               	movlb	1	; select bank1
  2648  0345  086D               	movf	(main@cap+2)^(0+128),w
  2649  0346  0020               	movlb	0	; select bank0
  2650  0347  00B7               	movwf	___ftdiv@f1+2
  2651  0348  3194  243C  3180   	fcall	___ftdiv
  2652  034B  0832               	movf	?___ftdiv,w
  2653  034C  0021               	movlb	1	; select bank1
  2654  034D  00EB               	movwf	main@cap^(0+128)
  2655  034E  0020               	movlb	0	; select bank0
  2656  034F  0833               	movf	?___ftdiv+1,w
  2657  0350  0021               	movlb	1	; select bank1
  2658  0351  00EC               	movwf	(main@cap+1)^(0+128)
  2659  0352  0020               	movlb	0	; select bank0
  2660  0353  0834               	movf	?___ftdiv+2,w
  2661  0354  0021               	movlb	1	; select bank1
  2662  0355  00ED               	movwf	(main@cap+2)^(0+128)
  2663                           
  2664                           ;main.c: 561: vitesse = vitesse / 5.0;
  2665  0356  0020               	movlb	0	; select bank0
  2666  0357  30A0               	movlw	160
  2667  0358  01B2               	clrf	___ftdiv@f2
  2668  0359  00B3               	movwf	___ftdiv@f2+1
  2669  035A  3040               	movlw	64
  2670  035B  00B4               	movwf	___ftdiv@f2+2
  2671  035C  0021               	movlb	1	; select bank1
  2672  035D  0868               	movf	main@vitesse^(0+128),w
  2673  035E  0020               	movlb	0	; select bank0
  2674  035F  00B5               	movwf	___ftdiv@f1
  2675  0360  0021               	movlb	1	; select bank1
  2676  0361  0869               	movf	(main@vitesse+1)^(0+128),w
  2677  0362  0020               	movlb	0	; select bank0
  2678  0363  00B6               	movwf	___ftdiv@f1+1
  2679  0364  0021               	movlb	1	; select bank1
  2680  0365  086A               	movf	(main@vitesse+2)^(0+128),w
  2681  0366  0020               	movlb	0	; select bank0
  2682  0367  00B7               	movwf	___ftdiv@f1+2
  2683  0368  3194  243C  3180   	fcall	___ftdiv
  2684  036B  0832               	movf	?___ftdiv,w
  2685  036C  0021               	movlb	1	; select bank1
  2686  036D  00E8               	movwf	main@vitesse^(0+128)
  2687  036E  0020               	movlb	0	; select bank0
  2688  036F  0833               	movf	?___ftdiv+1,w
  2689  0370  0021               	movlb	1	; select bank1
  2690  0371  00E9               	movwf	(main@vitesse+1)^(0+128)
  2691  0372  0020               	movlb	0	; select bank0
  2692  0373  0834               	movf	?___ftdiv+2,w
  2693  0374  0021               	movlb	1	; select bank1
  2694  0375  00EA               	movwf	(main@vitesse+2)^(0+128)
  2695                           
  2696                           ;main.c: 563: temp_uchar = (Lat >> 24);
  2697  0376  0022               	movlb	2	; select bank2
  2698  0377  083B               	movf	(main@Lat^(0+256)+3),w
  2699  0378  0021               	movlb	1	; select bank1
  2700  0379  00D6               	movwf	main@temp_uchar^(0+128)
  2701                           
  2702                           ;main.c: 564: temp_uchar = temp_uchar & 0b01111111;
  2703  037A  13D6               	bcf	main@temp_uchar^(0+128),7
  2704                           
  2705                           ;main.c: 565: LATA2=0;; Delay_100ms(2);;
  2706  037B  261A  3180         	fcall	PL60	;call to abstracted procedure
  2707  037D  24E0  3180         	fcall	_Delay_100ms
  2708                           
  2709                           ;main.c: 566: if(temp_uchar > 0b01011111) Envoi_message_Erreur(VSolar,VBackup,day_status
      +                          ,7);
  2710  037F  3060               	movlw	96
  2711  0380  0021               	movlb	1	; select bank1
  2712  0381  0256               	subwf	main@temp_uchar^(0+128),w
  2713  0382  1C03               	skipc
  2714  0383  2B94               	goto	l7109
  2715  0384  25D6  3180         	fcall	PL20	;call to abstracted procedure
  2716  0386  245F  3180         	fcall	___fttol
  2717  0388  25C3  3180         	fcall	PL14	;call to abstracted procedure
  2718  038A  245F  3180         	fcall	___fttol
  2719  038C  25AC  3180         	fcall	PL10	;call to abstracted procedure
  2720  038E  0022               	movlb	2	; select bank2
  2721  038F  082C               	movf	main@day_status^(0+256),w
  2722  0390  0020               	movlb	0	; select bank0
  2723  0391  00DE               	movwf	Envoi_message_Erreur@day_status
  2724  0392  3007               	movlw	7
  2725  0393  2C27               	goto	L10
  2726  0394                     l7109:	
  2727                           
  2728                           ;main.c: 567: else Envoi_message(Long,Lat,dopBis,VSolar,VBackup,day_status,temp_short,(u
      +                          nsigned char)vitesse,(unsigned char)cap);
  2729  0394  25D6  3180         	fcall	PL20	;call to abstracted procedure
  2730  0396  245F  3180         	fcall	___fttol
  2731  0398  084E               	movf	?___fttol+1,w
  2732  0399  00EE               	movwf	_main$1277+1
  2733  039A  084D               	movf	?___fttol,w
  2734  039B  00ED               	movwf	_main$1277
  2735                           
  2736                           ;main.c: 567: else Envoi_message(Long,Lat,dopBis,VSolar,VBackup,day_status,temp_short,(u
      +                          nsigned char)vitesse,(unsigned char)cap);
  2737  039C  0022               	movlb	2	; select bank2
  2738  039D  083F               	movf	main@VBackup^(0+256),w
  2739  039E  0020               	movlb	0	; select bank0
  2740  039F  00CD               	movwf	___fttol@f1
  2741  03A0  0022               	movlb	2	; select bank2
  2742  03A1  0840               	movf	(main@VBackup+1)^(0+256),w
  2743  03A2  0020               	movlb	0	; select bank0
  2744  03A3  00CE               	movwf	___fttol@f1+1
  2745  03A4  0022               	movlb	2	; select bank2
  2746  03A5  0841               	movf	(main@VBackup+2)^(0+256),w
  2747  03A6  0020               	movlb	0	; select bank0
  2748  03A7  00CF               	movwf	___fttol@f1+2
  2749  03A8  245F  3180         	fcall	___fttol
  2750  03AA  084E               	movf	?___fttol+1,w
  2751  03AB  0021               	movlb	1	; select bank1
  2752  03AC  00D3               	movwf	(_main$1278+1)^(0+128)
  2753  03AD  0020               	movlb	0	; select bank0
  2754  03AE  084D               	movf	?___fttol,w
  2755  03AF  0021               	movlb	1	; select bank1
  2756  03B0  00D2               	movwf	_main$1278^(0+128)
  2757                           
  2758                           ;main.c: 567: else Envoi_message(Long,Lat,dopBis,VSolar,VBackup,day_status,temp_short,(u
      +                          nsigned char)vitesse,(unsigned char)cap);
  2759  03B1  0868               	movf	main@vitesse^(0+128),w
  2760  03B2  0020               	movlb	0	; select bank0
  2761  03B3  00CD               	movwf	___fttol@f1
  2762  03B4  0021               	movlb	1	; select bank1
  2763  03B5  0869               	movf	(main@vitesse+1)^(0+128),w
  2764  03B6  0020               	movlb	0	; select bank0
  2765  03B7  00CE               	movwf	___fttol@f1+1
  2766  03B8  0021               	movlb	1	; select bank1
  2767  03B9  086A               	movf	(main@vitesse+2)^(0+128),w
  2768  03BA  0020               	movlb	0	; select bank0
  2769  03BB  00CF               	movwf	___fttol@f1+2
  2770  03BC  245F  3180         	fcall	___fttol
  2771  03BE  084D               	movf	?___fttol,w
  2772  03BF  0021               	movlb	1	; select bank1
  2773  03C0  00D4               	movwf	_main$1279^(0+128)
  2774                           
  2775                           ;main.c: 567: else Envoi_message(Long,Lat,dopBis,VSolar,VBackup,day_status,temp_short,(u
      +                          nsigned char)vitesse,(unsigned char)cap);
  2776  03C1  086B               	movf	main@cap^(0+128),w
  2777  03C2  0020               	movlb	0	; select bank0
  2778  03C3  00CD               	movwf	___fttol@f1
  2779  03C4  0021               	movlb	1	; select bank1
  2780  03C5  086C               	movf	(main@cap+1)^(0+128),w
  2781  03C6  0020               	movlb	0	; select bank0
  2782  03C7  00CE               	movwf	___fttol@f1+1
  2783  03C8  0021               	movlb	1	; select bank1
  2784  03C9  086D               	movf	(main@cap+2)^(0+128),w
  2785  03CA  0020               	movlb	0	; select bank0
  2786  03CB  00CF               	movwf	___fttol@f1+2
  2787  03CC  245F  3180         	fcall	___fttol
  2788  03CE  084D               	movf	?___fttol,w
  2789  03CF  0021               	movlb	1	; select bank1
  2790  03D0  00D5               	movwf	_main$1280^(0+128)
  2791                           
  2792                           ;main.c: 567: else Envoi_message(Long,Lat,dopBis,VSolar,VBackup,day_status,temp_short,(u
      +                          nsigned char)vitesse,(unsigned char)cap);
  2793  03D1  0022               	movlb	2	; select bank2
  2794  03D2  0837               	movf	(main@Long+3)^(0+256),w
  2795  03D3  0020               	movlb	0	; select bank0
  2796  03D4  00DD               	movwf	Envoi_message@Longitude+3
  2797  03D5  0022               	movlb	2	; select bank2
  2798  03D6  0836               	movf	(main@Long+2)^(0+256),w
  2799  03D7  0020               	movlb	0	; select bank0
  2800  03D8  00DC               	movwf	Envoi_message@Longitude+2
  2801  03D9  0022               	movlb	2	; select bank2
  2802  03DA  0835               	movf	(main@Long+1)^(0+256),w
  2803  03DB  0020               	movlb	0	; select bank0
  2804  03DC  00DB               	movwf	Envoi_message@Longitude+1
  2805  03DD  0022               	movlb	2	; select bank2
  2806  03DE  0834               	movf	main@Long^(0+256),w
  2807  03DF  0020               	movlb	0	; select bank0
  2808  03E0  00DA               	movwf	Envoi_message@Longitude
  2809  03E1  0022               	movlb	2	; select bank2
  2810  03E2  083B               	movf	(main@Lat+3)^(0+256),w
  2811  03E3  0020               	movlb	0	; select bank0
  2812  03E4  00E1               	movwf	Envoi_message@Latitude+3
  2813  03E5  0022               	movlb	2	; select bank2
  2814  03E6  083A               	movf	(main@Lat+2)^(0+256),w
  2815  03E7  0020               	movlb	0	; select bank0
  2816  03E8  00E0               	movwf	Envoi_message@Latitude+2
  2817  03E9  0022               	movlb	2	; select bank2
  2818  03EA  0839               	movf	(main@Lat+1)^(0+256),w
  2819  03EB  0020               	movlb	0	; select bank0
  2820  03EC  00DF               	movwf	Envoi_message@Latitude+1
  2821  03ED  0022               	movlb	2	; select bank2
  2822  03EE  0838               	movf	main@Lat^(0+256),w
  2823  03EF  0020               	movlb	0	; select bank0
  2824  03F0  00DE               	movwf	Envoi_message@Latitude
  2825  03F1  0022               	movlb	2	; select bank2
  2826  03F2  082F               	movf	main@dopBis^(0+256),w
  2827  03F3  0020               	movlb	0	; select bank0
  2828  03F4  00E2               	movwf	Envoi_message@dop
  2829  03F5  086E               	movf	_main$1277+1,w
  2830  03F6  00E4               	movwf	Envoi_message@Vsolar+1
  2831  03F7  086D               	movf	_main$1277,w
  2832  03F8  00E3               	movwf	Envoi_message@Vsolar
  2833  03F9  0021               	movlb	1	; select bank1
  2834  03FA  0853               	movf	(_main$1278+1)^(0+128),w
  2835  03FB  0020               	movlb	0	; select bank0
  2836  03FC  00E6               	movwf	Envoi_message@Vbackup+1
  2837  03FD  0021               	movlb	1	; select bank1
  2838  03FE  0852               	movf	_main$1278^(0+128),w
  2839  03FF  0020               	movlb	0	; select bank0
  2840  0400  00E5               	movwf	Envoi_message@Vbackup
  2841  0401  0022               	movlb	2	; select bank2
  2842  0402  082C               	movf	main@day_status^(0+256),w
  2843  0403  0020               	movlb	0	; select bank0
  2844  0404  00E7               	movwf	Envoi_message@day_status
  2845  0405  0021               	movlb	1	; select bank1
  2846  0406  085C               	movf	main@temp_short^(0+128),w
  2847  0407  0020               	movlb	0	; select bank0
  2848  0408  00E8               	movwf	Envoi_message@timeout
  2849  0409  0021               	movlb	1	; select bank1
  2850  040A  0854               	movf	_main$1279^(0+128),w
  2851  040B  0020               	movlb	0	; select bank0
  2852  040C  00E9               	movwf	Envoi_message@vitesse
  2853  040D  0021               	movlb	1	; select bank1
  2854  040E  0855               	movf	_main$1280^(0+128),w
  2855  040F  0020               	movlb	0	; select bank0
  2856  0410  00EA               	movwf	Envoi_message@cap
  2857  0411  3193  2359  3180   	fcall	_Envoi_message
  2858                           
  2859                           ;main.c: 569: }
  2860  0414  2C2B               	goto	l7113
  2861  0415                     l223:	
  2862                           
  2863                           ;main.c: 570: else {
  2864                           ;main.c: 571: LATA2=0;; Delay_100ms(2);;
  2865  0415  261A  3180         	fcall	PL60	;call to abstracted procedure
  2866  0417  24E0  3180         	fcall	_Delay_100ms
  2867                           
  2868                           ;main.c: 572: Envoi_message_Erreur(VSolar,VBackup,day_status,5);
  2869  0419  25D6  3180         	fcall	PL20	;call to abstracted procedure
  2870  041B  245F  3180         	fcall	___fttol
  2871                           
  2872                           ;main.c: 572: Envoi_message_Erreur(VSolar,VBackup,day_status,5);
  2873  041D  25C3  3180         	fcall	PL14	;call to abstracted procedure
  2874  041F  245F  3180         	fcall	___fttol
  2875                           
  2876                           ;main.c: 572: Envoi_message_Erreur(VSolar,VBackup,day_status,5);
  2877  0421  25AC               	fcall	PL10	;call to abstracted procedure
  2878  0422  0022               	movlb	2	; select bank2
  2879  0423  082C               	movf	main@day_status^(0+256),w
  2880  0424  0020               	movlb	0	; select bank0
  2881  0425  00DE               	movwf	Envoi_message_Erreur@day_status
  2882  0426  3005               	movlw	5
  2883  0427                     L10:	
  2884  0427  00DF               	movwf	Envoi_message_Erreur@raison
  2885  0428  3192  2232  3180   	fcall	_Envoi_message_Erreur
  2886  042B                     l7113:	
  2887                           
  2888                           ;main.c: 568: LATA2=1;;;
  2889  042B  0022               	movlb	2	; select bank2
  2890  042C  150C               	bsf	12,2	;volatile
  2891                           
  2892                           ;main.c: 574: }
  2893                           ;main.c: 575: state_s=old_state_s;
  2894  042D  0021               	movlb	1	; select bank1
  2895  042E  0857               	movf	main@old_state_s^(0+128),w
  2896  042F                     L11:	
  2897  042F  0022               	movlb	2	; select bank2
  2898  0430                     L8:	
  2899  0430  00AE               	movwf	main@state_s^(0+256)
  2900  0431                     l162:	
  2901                           ;main.c: 333: for (;;) {
  2902                           
  2903                           ;main.c: 576: break;
  2904                           
  2905                           
  2906                           ;main.c: 334: WDTCONbits.SWDTEN = 0b0; WDTCONbits.SWDTEN = 0b1; asm("SLEEP"); asm("nop")
      +                          ; WDTCONbits.SWDTEN = 0b0;
  2907  0431  0021               	movlb	1	; select bank1
  2908  0432  1017               	bcf	23,0	;volatile
  2909  0433  1417               	bsf	23,0	;volatile
  2910  0434  0063               	sleep	;# 
  2911  0435  0000               	nop	;# 
  2912  0436  0021               	movlb	1	; select bank1
  2913  0437  1017               	bcf	23,0	;volatile
  2914                           
  2915                           ;main.c: 335: cpt_reveil++;
  2916  0438  0AE6               	incf	main@cpt_reveil^(0+128),f
  2917  0439  1903               	skipnz
  2918  043A  0AE7               	incf	(main@cpt_reveil+1)^(0+128),f
  2919                           
  2920                           ;main.c: 336: cpt_reveil_service++;
  2921  043B  0AE2               	incf	main@cpt_reveil_service^(0+128),f
  2922  043C  1903               	skipnz
  2923  043D  0AE3               	incf	(main@cpt_reveil_service+1)^(0+128),f
  2924                           
  2925                           ;main.c: 337: if(flag_protect==1) {if(nb_slot_protec<65535) nb_slot_protec++;}
  2926  043E  0B61               	decfsz	main@flag_protect^(0+128),w
  2927  043F  2C48               	goto	l7125
  2928  0440  0F6E               	incfsz	main@nb_slot_protec^(0+128),w
  2929  0441  2C45               	goto	l6795
  2930  0442  0A6F               	incf	(main@nb_slot_protec+1)^(0+128),w
  2931  0443  1903               	btfsc	3,2
  2932  0444  2C48               	goto	l7125
  2933  0445                     l6795:	
  2934  0445  0AEE               	incf	main@nb_slot_protec^(0+128),f
  2935  0446  1903               	skipnz
  2936  0447  0AEF               	incf	(main@nb_slot_protec+1)^(0+128),f
  2937  0448                     l7125:	
  2938  0448  0022               	movlb	2	; select bank2
  2939  0449  082E               	movf	main@state_s^(0+256),w
  2940                           
  2941                           ; Switch size 1, requested type "space"
  2942                           ; Number of cases is 6, Range of values is 17 to 102
  2943                           ; switch strategies available:
  2944                           ; Name         Instructions Cycles
  2945                           ; simple_byte           19    10 (average)
  2946                           ; direct_byte          181     9 (fixed)
  2947                           ; jumptable            263     9 (fixed)
  2948                           ;	Chosen strategy is simple_byte
  2949  044A  3A11               	xorlw	17	; case 17
  2950  044B  1903               	skipnz
  2951  044C  28C5               	goto	l6797
  2952  044D  3A33               	xorlw	51	; case 34
  2953  044E  1903               	skipnz
  2954  044F  2910               	goto	l172
  2955  0450  3A11               	xorlw	17	; case 51
  2956  0451  1903               	skipnz
  2957  0452  29F6               	goto	l6925
  2958  0453  3A77               	xorlw	119	; case 68
  2959  0454  1903               	skipnz
  2960  0455  2A74               	goto	l6997
  2961  0456  3A11               	xorlw	17	; case 85
  2962  0457  1903               	skipnz
  2963  0458  2A5D               	goto	l6983
  2964  0459  3A33               	xorlw	51	; case 102
  2965  045A  1903               	skipnz
  2966  045B  2A88               	goto	l7015
  2967  045C  2C31               	goto	l162
  2968  045D  3180  2825         	ljmp	start
  2969  045F                     __end_of_main:	
  2970  045F                     __ptext42:	
  2971 ;; *************** function ___fttol *****************
  2972 ;; Defined at:
  2973 ;;		line 44 in file "C:\Program Files (x86)\Microchip\xc8\v1.44\sources\common\fttol.c"
  2974 ;; Parameters:    Size  Location     Type
  2975 ;;  f1              3   45[BANK0 ] float 
  2976 ;; Auto vars:     Size  Location     Type
  2977 ;;  lval            4   53[BANK0 ] unsigned long 
  2978 ;;  exp1            1   57[BANK0 ] unsigned char 
  2979 ;;  sign1           1   52[BANK0 ] unsigned char 
  2980 ;; Return value:  Size  Location     Type
  2981 ;;                  4   45[BANK0 ] long 
  2982 ;; Registers used:
  2983 ;;		wreg, status,2, status,0
  2984 ;; Tracked objects:
  2985 ;;		On entry : 1F/0
  2986 ;;		On exit  : 1F/0
  2987 ;;		Unchanged: 0/0
  2988 ;; Data sizes:     COMMON   BANK0   BANK1   BANK2   BANK3   BANK4   BANK5   BANK6   BANK7   BANK8   BANK9  BANK10  BANK1
      +1  BANK12
  2989 ;;      Params:         0       4       0       0       0       0       0       0       0       0       0       0       
      +0       0
  2990 ;;      Locals:         0       6       0       0       0       0       0       0       0       0       0       0       
      +0       0
  2991 ;;      Temps:          0       3       0       0       0       0       0       0       0       0       0       0       
      +0       0
  2992 ;;      Totals:         0      13       0       0       0       0       0       0       0       0       0       0       
      +0       0
  2993 ;;Total ram usage:       13 bytes
  2994 ;; Hardware stack levels used:    1
  2995 ;; Hardware stack levels required when called:    1
  2996 ;; This function calls:
  2997 ;;		Nothing
  2998 ;; This function is called by:
  2999 ;;		_main
  3000 ;;		_Envoi_message
  3001 ;;		_Envoi_message_Erreur
  3002 ;;		_Envoi_message_service
  3003 ;; This function uses a non-reentrant model
  3004 ;;
  3005                           
  3006                           
  3007                           ;psect for function ___fttol
  3008  045F                     ___fttol:	
  3009                           
  3010                           ;incstack = 0
  3011                           ; Regs used in ___fttol: [wreg+status,2+status,0]
  3012  045F  2647  3180         	fcall	PL130	;call to abstracted procedure
  3013  0461  1003               	clrc
  3014  0462  0D52               	rlf	??___fttol+1,w
  3015  0463  0D53               	rlf	??___fttol+2,w
  3016  0464  00D9               	movwf	___fttol@exp1
  3017  0465  0859               	movf	___fttol@exp1,w
  3018  0466  1D03               	btfss	3,2
  3019  0467  2C6D               	goto	l6013
  3020  0468                     l6011:	
  3021  0468  01CD               	clrf	?___fttol
  3022  0469  01CE               	clrf	?___fttol+1
  3023  046A  01CF               	clrf	?___fttol+2
  3024  046B  01D0               	clrf	?___fttol+3
  3025  046C  0008               	return
  3026  046D                     l6013:	
  3027  046D  2647  3180         	fcall	PL130	;call to abstracted procedure
  3028  046F  3017               	movlw	23
  3029  0470                     u6525:	
  3030  0470  36D3               	lsrf	??___fttol+2,f
  3031  0471  0CD2               	rrf	??___fttol+1,f
  3032  0472  0CD1               	rrf	??___fttol,f
  3033  0473  0B89               	decfsz	9,f
  3034  0474  2C70               	goto	u6525
  3035  0475  0851               	movf	??___fttol,w
  3036  0476  00D4               	movwf	___fttol@sign1
  3037  0477  17CE               	bsf	___fttol@f1+1,7
  3038  0478  01CF               	clrf	___fttol@f1+2
  3039  0479  084D               	movf	___fttol@f1,w
  3040  047A  00D5               	movwf	___fttol@lval
  3041  047B  084E               	movf	___fttol@f1+1,w
  3042  047C  00D6               	movwf	___fttol@lval+1
  3043  047D  084F               	movf	___fttol@f1+2,w
  3044  047E  00D7               	movwf	___fttol@lval+2
  3045  047F  308E               	movlw	142
  3046  0480  01D8               	clrf	___fttol@lval+3
  3047  0481  02D9               	subwf	___fttol@exp1,f
  3048  0482  1FD9               	btfss	___fttol@exp1,7
  3049  0483  2C90               	goto	l6033
  3050  0484  0859               	movf	___fttol@exp1,w
  3051  0485  3A80               	xorlw	128
  3052  0486  3E8F               	addlw	143
  3053  0487  1C03               	btfss	3,0
  3054  0488  2C68               	goto	l6011
  3055  0489                     l6029:	
  3056  0489  36D8               	lsrf	___fttol@lval+3,f
  3057  048A  0CD7               	rrf	___fttol@lval+2,f
  3058  048B  0CD6               	rrf	___fttol@lval+1,f
  3059  048C  0CD5               	rrf	___fttol@lval,f
  3060  048D  0FD9               	incfsz	___fttol@exp1,f
  3061  048E  2C89               	goto	l6029
  3062  048F  2C9D               	goto	l6041
  3063  0490                     l6033:	
  3064  0490  3018               	movlw	24
  3065  0491  0259               	subwf	___fttol@exp1,w
  3066  0492  1803               	btfsc	3,0
  3067  0493  2C68               	goto	l6011
  3068  0494                     l6039:	
  3069  0494  0859               	movf	___fttol@exp1,w
  3070  0495  1903               	btfsc	3,2
  3071  0496  2C9D               	goto	l6041
  3072  0497  35D5               	lslf	___fttol@lval,f
  3073  0498  0DD6               	rlf	___fttol@lval+1,f
  3074  0499  0DD7               	rlf	___fttol@lval+2,f
  3075  049A  0DD8               	rlf	___fttol@lval+3,f
  3076  049B  03D9               	decf	___fttol@exp1,f
  3077  049C  2C94               	goto	l6039
  3078  049D                     l6041:	
  3079  049D  0854               	movf	___fttol@sign1,w
  3080  049E  1903               	btfsc	3,2
  3081  049F  2CAB               	goto	l6045
  3082  04A0  09D5               	comf	___fttol@lval,f
  3083  04A1  09D6               	comf	___fttol@lval+1,f
  3084  04A2  09D7               	comf	___fttol@lval+2,f
  3085  04A3  09D8               	comf	___fttol@lval+3,f
  3086  04A4  0AD5               	incf	___fttol@lval,f
  3087  04A5  1903               	skipnz
  3088  04A6  0AD6               	incf	___fttol@lval+1,f
  3089  04A7  1903               	skipnz
  3090  04A8  0AD7               	incf	___fttol@lval+2,f
  3091  04A9  1903               	skipnz
  3092  04AA  0AD8               	incf	___fttol@lval+3,f
  3093  04AB                     l6045:	
  3094  04AB  0858               	movf	___fttol@lval+3,w
  3095  04AC  00D0               	movwf	?___fttol+3
  3096  04AD  0857               	movf	___fttol@lval+2,w
  3097  04AE  00CF               	movwf	?___fttol+2
  3098  04AF  0856               	movf	___fttol@lval+1,w
  3099  04B0  00CE               	movwf	?___fttol+1
  3100  04B1  0855               	movf	___fttol@lval,w
  3101  04B2  00CD               	movwf	?___fttol
  3102  04B3  0008               	return
  3103  04B4                     __end_of___fttol:	
  3104  04B4                     __ptext32:	
  3105 ;; *************** function ___ftge *****************
  3106 ;; Defined at:
  3107 ;;		line 4 in file "C:\Program Files (x86)\Microchip\xc8\v1.44\sources\common\ftge.c"
  3108 ;; Parameters:    Size  Location     Type
  3109 ;;  ff1             3    2[COMMON] float 
  3110 ;;  ff2             3    5[COMMON] float 
  3111 ;; Auto vars:     Size  Location     Type
  3112 ;;		None
  3113 ;; Return value:  Size  Location     Type
  3114 ;;		None               void
  3115 ;; Registers used:
  3116 ;;		wreg, status,2, status,0
  3117 ;; Tracked objects:
  3118 ;;		On entry : 1D/2
  3119 ;;		On exit  : 1D/0
  3120 ;;		Unchanged: 1D/0
  3121 ;; Data sizes:     COMMON   BANK0   BANK1   BANK2   BANK3   BANK4   BANK5   BANK6   BANK7   BANK8   BANK9  BANK10  BANK1
      +1  BANK12
  3122 ;;      Params:         6       0       0       0       0       0       0       0       0       0       0       0       
      +0       0
  3123 ;;      Locals:         0       0       0       0       0       0       0       0       0       0       0       0       
      +0       0
  3124 ;;      Temps:          0       0       0       0       0       0       0       0       0       0       0       0       
      +0       0
  3125 ;;      Totals:         6       0       0       0       0       0       0       0       0       0       0       0       
      +0       0
  3126 ;;Total ram usage:        6 bytes
  3127 ;; Hardware stack levels used:    1
  3128 ;; Hardware stack levels required when called:    1
  3129 ;; This function calls:
  3130 ;;		Nothing
  3131 ;; This function is called by:
  3132 ;;		_Measure_Vdd_VSolar_VBackup
  3133 ;;		_main
  3134 ;;		_decodage_Lat_Long
  3135 ;;		_strtod
  3136 ;; This function uses a non-reentrant model
  3137 ;;
  3138                           
  3139                           
  3140                           ;psect for function ___ftge
  3141  04B4                     ___ftge:	
  3142                           
  3143                           ;incstack = 0
  3144                           ; Regs used in ___ftge: [wreg+status,2+status,0]
  3145  04B4  1FF4               	btfss	___ftge@ff1+2,7
  3146  04B5  2CC3               	goto	l5319
  3147  04B6  0872               	movf	___ftge@ff1,w
  3148  04B7  3C00               	sublw	0
  3149  04B8  00F2               	movwf	___ftge@ff1
  3150  04B9  0873               	movf	___ftge@ff1+1,w
  3151  04BA  1C03               	skipc
  3152  04BB  0F73               	incfsz	___ftge@ff1+1,w
  3153  04BC  3C00               	sublw	0
  3154  04BD  00F3               	movwf	___ftge@ff1+1
  3155  04BE  0874               	movf	___ftge@ff1+2,w
  3156  04BF  1C03               	skipc
  3157  04C0  0F74               	incfsz	___ftge@ff1+2,w
  3158  04C1  3C80               	sublw	128
  3159  04C2  00F4               	movwf	___ftge@ff1+2
  3160  04C3                     l5319:	
  3161  04C3  1FF7               	btfss	___ftge@ff2+2,7
  3162  04C4  2CD2               	goto	l5323
  3163  04C5  0875               	movf	___ftge@ff2,w
  3164  04C6  3C00               	sublw	0
  3165  04C7  00F5               	movwf	___ftge@ff2
  3166  04C8  0876               	movf	___ftge@ff2+1,w
  3167  04C9  1C03               	skipc
  3168  04CA  0F76               	incfsz	___ftge@ff2+1,w
  3169  04CB  3C00               	sublw	0
  3170  04CC  00F6               	movwf	___ftge@ff2+1
  3171  04CD  0877               	movf	___ftge@ff2+2,w
  3172  04CE  1C03               	skipc
  3173  04CF  0F77               	incfsz	___ftge@ff2+2,w
  3174  04D0  3C80               	sublw	128
  3175  04D1  00F7               	movwf	___ftge@ff2+2
  3176  04D2                     l5323:	
  3177  04D2  3080               	movlw	128
  3178  04D3  06F4               	xorwf	___ftge@ff1+2,f
  3179  04D4  06F7               	xorwf	___ftge@ff2+2,f
  3180  04D5  0877               	movf	___ftge@ff2+2,w
  3181  04D6  0274               	subwf	___ftge@ff1+2,w
  3182  04D7  1D03               	skipz
  3183  04D8  0008               	return
  3184  04D9  0876               	movf	___ftge@ff2+1,w
  3185  04DA  0273               	subwf	___ftge@ff1+1,w
  3186  04DB  1D03               	skipz
  3187  04DC  0008               	return
  3188  04DD  0875               	movf	___ftge@ff2,w
  3189  04DE  0272               	subwf	___ftge@ff1,w
  3190  04DF  0008               	return
  3191  04E0                     __end_of___ftge:	
  3192  04E0                     __ptext48:	
  3193 ;; *************** function _Delay_100ms *****************
  3194 ;; Defined at:
  3195 ;;		line 5 in file "../Sources/globals.c"
  3196 ;; Parameters:    Size  Location     Type
  3197 ;;  duree           2    2[COMMON] unsigned short 
  3198 ;; Auto vars:     Size  Location     Type
  3199 ;;  i               2    5[COMMON] unsigned short 
  3200 ;; Return value:  Size  Location     Type
  3201 ;;                  1    wreg      void 
  3202 ;; Registers used:
  3203 ;;		wreg, status,2, status,0
  3204 ;; Tracked objects:
  3205 ;;		On entry : 0/2
  3206 ;;		On exit  : 0/0
  3207 ;;		Unchanged: 0/0
  3208 ;; Data sizes:     COMMON   BANK0   BANK1   BANK2   BANK3   BANK4   BANK5   BANK6   BANK7   BANK8   BANK9  BANK10  BANK1
      +1  BANK12
  3209 ;;      Params:         2       0       0       0       0       0       0       0       0       0       0       0       
      +0       0
  3210 ;;      Locals:         2       0       0       0       0       0       0       0       0       0       0       0       
      +0       0
  3211 ;;      Temps:          1       0       0       0       0       0       0       0       0       0       0       0       
      +0       0
  3212 ;;      Totals:         5       0       0       0       0       0       0       0       0       0       0       0       
      +0       0
  3213 ;;Total ram usage:        5 bytes
  3214 ;; Hardware stack levels used:    1
  3215 ;; Hardware stack levels required when called:    1
  3216 ;; This function calls:
  3217 ;;		Nothing
  3218 ;; This function is called by:
  3219 ;;		_main
  3220 ;;		_Envoi_message
  3221 ;;		_Envoi_message_Erreur
  3222 ;;		_Envoi_message_service
  3223 ;;		_Recuperer_Temp
  3224 ;;		_configure_GPS
  3225 ;;		_configure_GPS_VTG
  3226 ;; This function uses a non-reentrant model
  3227 ;;
  3228                           
  3229                           
  3230                           ;psect for function _Delay_100ms
  3231  04E0                     _Delay_100ms:	
  3232                           
  3233                           ;globals.c: 6: unsigned short i;
  3234                           ;globals.c: 7: for(i=0;i<duree;i++) {
  3235                           
  3236                           ;incstack = 0
  3237                           ; Regs used in _Delay_100ms: [wreg+status,2+status,0]
  3238  04E0  01F5               	clrf	Delay_100ms@i
  3239  04E1  01F6               	clrf	Delay_100ms@i+1
  3240  04E2                     l5441:	
  3241  04E2  0873               	movf	Delay_100ms@duree+1,w
  3242  04E3  0276               	subwf	Delay_100ms@i+1,w
  3243  04E4  1D03               	skipz
  3244  04E5  2CE8               	goto	u5505
  3245  04E6  0872               	movf	Delay_100ms@duree,w
  3246  04E7  0275               	subwf	Delay_100ms@i,w
  3247  04E8                     u5505:	
  3248  04E8  1803               	btfsc	3,0
  3249  04E9  0008               	return
  3250                           
  3251                           ;globals.c: 8: _delay((unsigned long)((25)*(16000000/4000.0)));
  3252  04EA  3082               	movlw	130
  3253  04EB  00F4               	movwf	??_Delay_100ms
  3254  04EC  30DE               	movlw	222
  3255  04ED                     u7607:	
  3256  04ED  0B89               	decfsz	9,f
  3257  04EE  2CED               	goto	u7607
  3258  04EF  0BF4               	decfsz	??_Delay_100ms,f
  3259  04F0  2CED               	goto	u7607
  3260                           
  3261                           ;globals.c: 9: _delay((unsigned long)((25)*(16000000/4000.0)));
  3262  04F1  3082               	movlw	130
  3263  04F2  00F4               	movwf	??_Delay_100ms
  3264  04F3  30DE               	movlw	222
  3265  04F4                     u7617:	
  3266  04F4  0B89               	decfsz	9,f
  3267  04F5  2CF4               	goto	u7617
  3268  04F6  0BF4               	decfsz	??_Delay_100ms,f
  3269  04F7  2CF4               	goto	u7617
  3270                           
  3271                           ;globals.c: 10: _delay((unsigned long)((25)*(16000000/4000.0)));
  3272  04F8  3082               	movlw	130
  3273  04F9  00F4               	movwf	??_Delay_100ms
  3274  04FA  30DE               	movlw	222
  3275  04FB                     u7627:	
  3276  04FB  0B89               	decfsz	9,f
  3277  04FC  2CFB               	goto	u7627
  3278  04FD  0BF4               	decfsz	??_Delay_100ms,f
  3279  04FE  2CFB               	goto	u7627
  3280                           
  3281                           ;globals.c: 11: _delay((unsigned long)((25)*(16000000/4000.0)));
  3282  04FF  3082               	movlw	130
  3283  0500  00F4               	movwf	??_Delay_100ms
  3284  0501  30DE               	movlw	222
  3285  0502                     u7637:	
  3286  0502  0B89               	decfsz	9,f
  3287  0503  2D02               	goto	u7637
  3288  0504  0BF4               	decfsz	??_Delay_100ms,f
  3289  0505  2D02               	goto	u7637
  3290  0506  0AF5               	incf	Delay_100ms@i,f
  3291  0507  1903               	skipnz
  3292  0508  0AF6               	incf	Delay_100ms@i+1,f
  3293  0509  2CE2               	goto	l5441
  3294  050A                     __end_of_Delay_100ms:	
  3295  050A                     __ptext35:	
  3296 ;; *************** function ___lwdiv *****************
  3297 ;; Defined at:
  3298 ;;		line 6 in file "C:\Program Files (x86)\Microchip\xc8\v1.44\sources\common\lwdiv.c"
  3299 ;; Parameters:    Size  Location     Type
  3300 ;;  divisor         2    2[COMMON] unsigned int 
  3301 ;;  dividend        2    4[COMMON] unsigned int 
  3302 ;; Auto vars:     Size  Location     Type
  3303 ;;  quotient        2    7[COMMON] unsigned int 
  3304 ;;  counter         1    6[COMMON] unsigned char 
  3305 ;; Return value:  Size  Location     Type
  3306 ;;                  2    2[COMMON] unsigned int 
  3307 ;; Registers used:
  3308 ;;		wreg, status,2, status,0
  3309 ;; Tracked objects:
  3310 ;;		On entry : 1E/1
  3311 ;;		On exit  : 1E/0
  3312 ;;		Unchanged: 1E/0
  3313 ;; Data sizes:     COMMON   BANK0   BANK1   BANK2   BANK3   BANK4   BANK5   BANK6   BANK7   BANK8   BANK9  BANK10  BANK1
      +1  BANK12
  3314 ;;      Params:         4       0       0       0       0       0       0       0       0       0       0       0       
      +0       0
  3315 ;;      Locals:         3       0       0       0       0       0       0       0       0       0       0       0       
      +0       0
  3316 ;;      Temps:          0       0       0       0       0       0       0       0       0       0       0       0       
      +0       0
  3317 ;;      Totals:         7       0       0       0       0       0       0       0       0       0       0       0       
      +0       0
  3318 ;;Total ram usage:        7 bytes
  3319 ;; Hardware stack levels used:    1
  3320 ;; Hardware stack levels required when called:    1
  3321 ;; This function calls:
  3322 ;;		Nothing
  3323 ;; This function is called by:
  3324 ;;		_main
  3325 ;;		_Envoi_message_service
  3326 ;; This function uses a non-reentrant model
  3327 ;;
  3328                           
  3329                           
  3330                           ;psect for function ___lwdiv
  3331  050A                     ___lwdiv:	
  3332                           
  3333                           ;incstack = 0
  3334                           ; Regs used in ___lwdiv: [wreg+status,2+status,0]
  3335  050A  01F7               	clrf	___lwdiv@quotient
  3336  050B  01F8               	clrf	___lwdiv@quotient+1
  3337  050C  0872               	movf	___lwdiv@divisor,w
  3338  050D  0473               	iorwf	___lwdiv@divisor+1,w
  3339  050E  1903               	btfsc	3,2
  3340  050F  2D2A               	goto	l6071
  3341  0510  01F6               	clrf	___lwdiv@counter
  3342  0511                     L26:	
  3343  0511  0AF6               	incf	___lwdiv@counter,f
  3344  0512  1BF3               	btfsc	___lwdiv@divisor+1,7
  3345  0513  2D17               	goto	l6059
  3346  0514  35F2               	lslf	___lwdiv@divisor,f
  3347  0515  0DF3               	rlf	___lwdiv@divisor+1,f
  3348  0516  2D11               	goto	L26
  3349  0517                     l6059:	
  3350  0517  35F7               	lslf	___lwdiv@quotient,f
  3351  0518  0DF8               	rlf	___lwdiv@quotient+1,f
  3352  0519  0873               	movf	___lwdiv@divisor+1,w
  3353  051A  0275               	subwf	___lwdiv@dividend+1,w
  3354  051B  1D03               	skipz
  3355  051C  2D1F               	goto	u6615
  3356  051D  0872               	movf	___lwdiv@divisor,w
  3357  051E  0274               	subwf	___lwdiv@dividend,w
  3358  051F                     u6615:	
  3359  051F  1C03               	skipc
  3360  0520  2D26               	goto	l6067
  3361  0521  0872               	movf	___lwdiv@divisor,w
  3362  0522  02F4               	subwf	___lwdiv@dividend,f
  3363  0523  0873               	movf	___lwdiv@divisor+1,w
  3364  0524  3BF5               	subwfb	___lwdiv@dividend+1,f
  3365  0525  1477               	bsf	___lwdiv@quotient,0
  3366  0526                     l6067:	
  3367  0526  36F3               	lsrf	___lwdiv@divisor+1,f
  3368  0527  0CF2               	rrf	___lwdiv@divisor,f
  3369  0528  0BF6               	decfsz	___lwdiv@counter,f
  3370  0529  2D17               	goto	l6059
  3371  052A                     l6071:	
  3372  052A  0878               	movf	___lwdiv@quotient+1,w
  3373  052B  00F3               	movwf	?___lwdiv+1
  3374  052C  0877               	movf	___lwdiv@quotient,w
  3375  052D  00F2               	movwf	?___lwdiv
  3376  052E  0008               	return
  3377  052F                     __end_of___lwdiv:	
  3378  052F                     __ptext28:	
  3379 ;; *************** function _UART_Frame_Received *****************
  3380 ;; Defined at:
  3381 ;;		line 59 in file "../Sources/serial.c"
  3382 ;; Parameters:    Size  Location     Type
  3383 ;;		None
  3384 ;; Auto vars:     Size  Location     Type
  3385 ;;  rd_ptr_temp     1   10[COMMON] unsigned char 
  3386 ;;  flag            1    9[COMMON] unsigned char 
  3387 ;;  temp            1    8[COMMON] unsigned char 
  3388 ;;  c               1    7[COMMON] unsigned char 
  3389 ;; Return value:  Size  Location     Type
  3390 ;;                  1    wreg      unsigned char 
  3391 ;; Registers used:
  3392 ;;		wreg, fsr1l, fsr1h, status,2, status,0, pclath, cstack
  3393 ;; Tracked objects:
  3394 ;;		On entry : 0/1
  3395 ;;		On exit  : 0/0
  3396 ;;		Unchanged: 0/0
  3397 ;; Data sizes:     COMMON   BANK0   BANK1   BANK2   BANK3   BANK4   BANK5   BANK6   BANK7   BANK8   BANK9  BANK10  BANK1
      +1  BANK12
  3398 ;;      Params:         0       0       0       0       0       0       0       0       0       0       0       0       
      +0       0
  3399 ;;      Locals:         4       0       0       0       0       0       0       0       0       0       0       0       
      +0       0
  3400 ;;      Temps:          2       0       0       0       0       0       0       0       0       0       0       0       
      +0       0
  3401 ;;      Totals:         6       0       0       0       0       0       0       0       0       0       0       0       
      +0       0
  3402 ;;Total ram usage:        6 bytes
  3403 ;; Hardware stack levels used:    1
  3404 ;; Hardware stack levels required when called:    2
  3405 ;; This function calls:
  3406 ;;		_UART_Get_Next_Char
  3407 ;; This function is called by:
  3408 ;;		_main
  3409 ;;		_Recuperer_Temp
  3410 ;; This function uses a non-reentrant model
  3411 ;;
  3412                           
  3413                           
  3414                           ;psect for function _UART_Frame_Received
  3415  052F                     _UART_Frame_Received:	
  3416                           
  3417                           ;serial.c: 61: unsigned char flag;
  3418                           ;serial.c: 62: unsigned char rd_ptr_temp;
  3419                           ;serial.c: 63: unsigned char c;
  3420                           ;serial.c: 64: char temp;
  3421                           ;serial.c: 65: rd_ptr_temp=UART_RX_RD_ptr;
  3422                           
  3423                           ;incstack = 0
  3424                           ; Regs used in _UART_Frame_Received: [wreg+fsr1l+fsr1h+status,2+status,0+pclath+cstack]
  3425  052F  0022               	movlb	2	; select bank2
  3426  0530  0844               	movf	_UART_RX_RD_ptr^(0+256),w
  3427  0531  00FA               	movwf	UART_Frame_Received@rd_ptr_temp
  3428                           
  3429                           ;serial.c: 66: flag=0b0;
  3430  0532  01F9               	clrf	UART_Frame_Received@flag
  3431                           
  3432                           ;serial.c: 67: c=1;
  3433  0533  01F7               	clrf	UART_Frame_Received@c
  3434  0534  0AF7               	incf	UART_Frame_Received@c,f
  3435                           
  3436                           ;serial.c: 69: while(rd_ptr_temp != UART_RX_WR_ptr)
  3437  0535  2D3C               	goto	l5483
  3438  0536                     l5477:	
  3439                           ;serial.c: 74: break;
  3440                           
  3441  0536  3064               	movlw	100
  3442                           
  3443                           ;serial.c: 75: }
  3444                           ;serial.c: 76: c++;
  3445  0537  0AF7               	incf	UART_Frame_Received@c,f
  3446                           
  3447                           ;serial.c: 77: rd_ptr_temp++;
  3448  0538  0AFA               	incf	UART_Frame_Received@rd_ptr_temp,f
  3449                           
  3450                           ;serial.c: 78: if (rd_ptr_temp == 100)
  3451  0539  067A               	xorwf	UART_Frame_Received@rd_ptr_temp,w
  3452  053A  1903               	btfsc	3,2
  3453                           
  3454                           ;serial.c: 79: {
  3455                           ;serial.c: 80: rd_ptr_temp = 0;
  3456  053B  01FA               	clrf	UART_Frame_Received@rd_ptr_temp
  3457  053C                     l5483:	
  3458  053C  087A               	movf	UART_Frame_Received@rd_ptr_temp,w
  3459  053D  067B               	xorwf	_UART_RX_WR_ptr,w	;volatile
  3460  053E  1903               	btfsc	3,2
  3461  053F  2D49               	goto	l5485
  3462                           
  3463                           ;serial.c: 70: {
  3464                           ;serial.c: 71: if (UART_buffer_RX[rd_ptr_temp]=='\n')
  3465  0540  087A               	movf	UART_Frame_Received@rd_ptr_temp,w
  3466  0541  265F  3180         	fcall	PL158	;call to abstracted procedure
  3467  0543  300A               	movlw	10
  3468  0544  0601               	xorwf	1,w
  3469  0545  1D03               	btfss	3,2
  3470  0546  2D36               	goto	l5477
  3471                           
  3472                           ;serial.c: 72: {
  3473                           ;serial.c: 73: flag=0b1;
  3474  0547  01F9               	clrf	UART_Frame_Received@flag
  3475  0548  0AF9               	incf	UART_Frame_Received@flag,f
  3476  0549                     l5485:	
  3477                           
  3478                           ;serial.c: 81: }
  3479                           ;serial.c: 82: }
  3480                           ;serial.c: 83: c=0;
  3481  0549  01F7               	clrf	UART_Frame_Received@c
  3482                           
  3483                           ;serial.c: 84: if(flag==0b1){
  3484  054A  0B79               	decfsz	UART_Frame_Received@flag,w
  3485  054B  2D60               	goto	l5497
  3486  054C                     l5489:	
  3487                           
  3488                           ;serial.c: 86: temp=UART_Get_Next_Char();
  3489  054C  2582  3180         	fcall	_UART_Get_Next_Char
  3490  054E  00F8               	movwf	UART_Frame_Received@temp
  3491                           
  3492                           ;serial.c: 87: chaine[c++]=temp;
  3493  054F  0877               	movf	UART_Frame_Received@c,w
  3494  0550  3EC8               	addlw	200
  3495  0551  00F5               	movwf	??_UART_Frame_Received
  3496  0552  3022               	movlw	34
  3497  0553  01F6               	clrf	??_UART_Frame_Received+1
  3498  0554  3DF6               	addwfc	??_UART_Frame_Received+1,f
  3499  0555  0875               	movf	??_UART_Frame_Received,w
  3500  0556  0086               	movwf	6
  3501  0557  0876               	movf	??_UART_Frame_Received+1,w
  3502  0558  0087               	movwf	7
  3503  0559  0878               	movf	UART_Frame_Received@temp,w
  3504  055A  0081               	movwf	1
  3505  055B  300A               	movlw	10
  3506  055C  0AF7               	incf	UART_Frame_Received@c,f
  3507                           
  3508                           ;serial.c: 88: }
  3509                           ;serial.c: 89: while (temp!= '\n');
  3510  055D  0678               	xorwf	UART_Frame_Received@temp,w
  3511  055E  1D03               	btfss	3,2
  3512  055F  2D4C               	goto	l5489
  3513  0560                     l5497:	
  3514                           
  3515                           ;serial.c: 91: }
  3516                           ;serial.c: 92: return flag;
  3517  0560  0879               	movf	UART_Frame_Received@flag,w
  3518  0561  0008               	return
  3519  0562                     __end_of_UART_Frame_Received:	
  3520  0562                     __ptext21:	
  3521 ;; *************** function ___lwmod *****************
  3522 ;; Defined at:
  3523 ;;		line 6 in file "C:\Program Files (x86)\Microchip\xc8\v1.44\sources\common\lwmod.c"
  3524 ;; Parameters:    Size  Location     Type
  3525 ;;  divisor         2    2[COMMON] unsigned int 
  3526 ;;  dividend        2    4[COMMON] unsigned int 
  3527 ;; Auto vars:     Size  Location     Type
  3528 ;;  counter         1    6[COMMON] unsigned char 
  3529 ;; Return value:  Size  Location     Type
  3530 ;;                  2    2[COMMON] unsigned int 
  3531 ;; Registers used:
  3532 ;;		wreg, status,2, status,0
  3533 ;; Tracked objects:
  3534 ;;		On entry : 1F/1
  3535 ;;		On exit  : 1F/1
  3536 ;;		Unchanged: 1F/0
  3537 ;; Data sizes:     COMMON   BANK0   BANK1   BANK2   BANK3   BANK4   BANK5   BANK6   BANK7   BANK8   BANK9  BANK10  BANK1
      +1  BANK12
  3538 ;;      Params:         4       0       0       0       0       0       0       0       0       0       0       0       
      +0       0
  3539 ;;      Locals:         1       0       0       0       0       0       0       0       0       0       0       0       
      +0       0
  3540 ;;      Temps:          0       0       0       0       0       0       0       0       0       0       0       0       
      +0       0
  3541 ;;      Totals:         5       0       0       0       0       0       0       0       0       0       0       0       
      +0       0
  3542 ;;Total ram usage:        5 bytes
  3543 ;; Hardware stack levels used:    1
  3544 ;; Hardware stack levels required when called:    1
  3545 ;; This function calls:
  3546 ;;		Nothing
  3547 ;; This function is called by:
  3548 ;;		_main
  3549 ;; This function uses a non-reentrant model
  3550 ;;
  3551                           
  3552                           
  3553                           ;psect for function ___lwmod
  3554  0562                     ___lwmod:	
  3555                           
  3556                           ;incstack = 0
  3557                           ; Regs used in ___lwmod: [wreg+status,2+status,0]
  3558  0562  0872               	movf	___lwmod@divisor,w
  3559  0563  0473               	iorwf	___lwmod@divisor+1,w
  3560  0564  1903               	btfsc	3,2
  3561  0565  2D7D               	goto	l6695
  3562  0566  01F6               	clrf	___lwmod@counter
  3563  0567                     L18:	
  3564  0567  0AF6               	incf	___lwmod@counter,f
  3565  0568  1BF3               	btfsc	___lwmod@divisor+1,7
  3566  0569  2D6D               	goto	l6687
  3567  056A  35F2               	lslf	___lwmod@divisor,f
  3568  056B  0DF3               	rlf	___lwmod@divisor+1,f
  3569  056C  2D67               	goto	L18
  3570  056D                     l6687:	
  3571  056D  0873               	movf	___lwmod@divisor+1,w
  3572  056E  0275               	subwf	___lwmod@dividend+1,w
  3573  056F  1D03               	skipz
  3574  0570  2D73               	goto	u7185
  3575  0571  0872               	movf	___lwmod@divisor,w
  3576  0572  0274               	subwf	___lwmod@dividend,w
  3577  0573                     u7185:	
  3578  0573  1C03               	skipc
  3579  0574  2D79               	goto	l6691
  3580  0575  0872               	movf	___lwmod@divisor,w
  3581  0576  02F4               	subwf	___lwmod@dividend,f
  3582  0577  0873               	movf	___lwmod@divisor+1,w
  3583  0578  3BF5               	subwfb	___lwmod@dividend+1,f
  3584  0579                     l6691:	
  3585  0579  36F3               	lsrf	___lwmod@divisor+1,f
  3586  057A  0CF2               	rrf	___lwmod@divisor,f
  3587  057B  0BF6               	decfsz	___lwmod@counter,f
  3588  057C  2D6D               	goto	l6687
  3589  057D                     l6695:	
  3590  057D  0875               	movf	___lwmod@dividend+1,w
  3591  057E  00F3               	movwf	?___lwmod+1
  3592  057F  0874               	movf	___lwmod@dividend,w
  3593  0580  00F2               	movwf	?___lwmod
  3594  0581  0008               	return
  3595  0582                     __end_of___lwmod:	
  3596  0582                     __ptext29:	
  3597 ;; *************** function _UART_Get_Next_Char *****************
  3598 ;; Defined at:
  3599 ;;		line 49 in file "../Sources/serial.c"
  3600 ;; Parameters:    Size  Location     Type
  3601 ;;		None
  3602 ;; Auto vars:     Size  Location     Type
  3603 ;;  temp            1    4[COMMON] unsigned char 
  3604 ;; Return value:  Size  Location     Type
  3605 ;;                  1    wreg      unsigned char 
  3606 ;; Registers used:
  3607 ;;		wreg, fsr1l, fsr1h, status,2, status,0
  3608 ;; Tracked objects:
  3609 ;;		On entry : 0/2
  3610 ;;		On exit  : 1F/2
  3611 ;;		Unchanged: 0/0
  3612 ;; Data sizes:     COMMON   BANK0   BANK1   BANK2   BANK3   BANK4   BANK5   BANK6   BANK7   BANK8   BANK9  BANK10  BANK1
      +1  BANK12
  3613 ;;      Params:         0       0       0       0       0       0       0       0       0       0       0       0       
      +0       0
  3614 ;;      Locals:         1       0       0       0       0       0       0       0       0       0       0       0       
      +0       0
  3615 ;;      Temps:          2       0       0       0       0       0       0       0       0       0       0       0       
      +0       0
  3616 ;;      Totals:         3       0       0       0       0       0       0       0       0       0       0       0       
      +0       0
  3617 ;;Total ram usage:        3 bytes
  3618 ;; Hardware stack levels used:    1
  3619 ;; Hardware stack levels required when called:    1
  3620 ;; This function calls:
  3621 ;;		Nothing
  3622 ;; This function is called by:
  3623 ;;		_UART_Frame_Received
  3624 ;; This function uses a non-reentrant model
  3625 ;;
  3626                           
  3627                           
  3628                           ;psect for function _UART_Get_Next_Char
  3629  0582                     _UART_Get_Next_Char:	
  3630                           
  3631                           ;serial.c: 50: char temp;
  3632                           ;serial.c: 51: temp=UART_buffer_RX[UART_RX_RD_ptr];
  3633                           
  3634                           ;incstack = 0
  3635                           ; Regs used in _UART_Get_Next_Char: [wreg+fsr1l+fsr1h+status,2+status,0]
  3636  0582  0022               	movlb	2	; select bank2
  3637  0583  0844               	movf	_UART_RX_RD_ptr^(0+256),w
  3638  0584  265F               	fcall	PL158	;call to abstracted procedure
  3639  0585  0801               	movf	1,w
  3640  0586  00F4               	movwf	UART_Get_Next_Char@temp
  3641                           
  3642                           ;serial.c: 52: UART_buffer_RX[UART_RX_RD_ptr]='0';
  3643  0587  0844               	movf	_UART_RX_RD_ptr^(0+256),w
  3644  0588  3E2C               	addlw	44
  3645  0589  00F2               	movwf	??_UART_Get_Next_Char
  3646  058A  3023               	movlw	35
  3647  058B  01F3               	clrf	??_UART_Get_Next_Char+1
  3648  058C  3DF3               	addwfc	??_UART_Get_Next_Char+1,f
  3649  058D  0872               	movf	??_UART_Get_Next_Char,w
  3650  058E  0086               	movwf	6
  3651  058F  0873               	movf	??_UART_Get_Next_Char+1,w
  3652  0590  0087               	movwf	7
  3653  0591  3030               	movlw	48
  3654  0592  0081               	movwf	1
  3655  0593  3064               	movlw	100
  3656                           
  3657                           ;serial.c: 53: UART_RX_RD_ptr++;
  3658  0594  0AC4               	incf	_UART_RX_RD_ptr^(0+256),f
  3659                           
  3660                           ;serial.c: 54: if (UART_RX_RD_ptr == 100)
  3661  0595  0644               	xorwf	_UART_RX_RD_ptr^(0+256),w
  3662  0596  1903               	btfsc	3,2
  3663                           
  3664                           ;serial.c: 55: UART_RX_RD_ptr = 0;
  3665  0597  01C4               	clrf	_UART_RX_RD_ptr^(0+256)
  3666                           
  3667                           ;serial.c: 56: return temp;
  3668  0598  0874               	movf	UART_Get_Next_Char@temp,w
  3669  0599  0008               	return
  3670  059A                     __end_of_UART_Get_Next_Char:	
  3671  059A                     __ptext27:	
  3672 ;; *************** function _chaine_Init *****************
  3673 ;; Defined at:
  3674 ;;		line 15 in file "../Sources/serial.c"
  3675 ;; Parameters:    Size  Location     Type
  3676 ;;		None
  3677 ;; Auto vars:     Size  Location     Type
  3678 ;;  i               1    2[COMMON] unsigned char 
  3679 ;; Return value:  Size  Location     Type
  3680 ;;                  1    wreg      void 
  3681 ;; Registers used:
  3682 ;;		wreg, fsr1l, fsr1h, status,2, status,0
  3683 ;; Tracked objects:
  3684 ;;		On entry : 0/3
  3685 ;;		On exit  : 0/0
  3686 ;;		Unchanged: 0/0
  3687 ;; Data sizes:     COMMON   BANK0   BANK1   BANK2   BANK3   BANK4   BANK5   BANK6   BANK7   BANK8   BANK9  BANK10  BANK1
      +1  BANK12
  3688 ;;      Params:         0       0       0       0       0       0       0       0       0       0       0       0       
      +0       0
  3689 ;;      Locals:         1       0       0       0       0       0       0       0       0       0       0       0       
      +0       0
  3690 ;;      Temps:          0       0       0       0       0       0       0       0       0       0       0       0       
      +0       0
  3691 ;;      Totals:         1       0       0       0       0       0       0       0       0       0       0       0       
      +0       0
  3692 ;;Total ram usage:        1 bytes
  3693 ;; Hardware stack levels used:    1
  3694 ;; Hardware stack levels required when called:    1
  3695 ;; This function calls:
  3696 ;;		Nothing
  3697 ;; This function is called by:
  3698 ;;		_main
  3699 ;;		_Recuperer_Temp
  3700 ;;		_Reinit_trame_GPS
  3701 ;;		_decode_trame_GPS
  3702 ;; This function uses a non-reentrant model
  3703 ;;
  3704                           
  3705                           
  3706                           ;psect for function _chaine_Init
  3707  059A                     _chaine_Init:	
  3708  059A                     l5455:	
  3709                           ;incstack = 0
  3710                           ; Regs used in _chaine_Init: [wreg+fsr1l+fsr1h+status,2+status,0]
  3711                           
  3712                           
  3713                           ;serial.c: 16: unsigned char i;
  3714                           ;serial.c: 17: for(i=0;i<100;i++)chaine[i]='\0';
  3715  059A  01F2               	clrf	chaine_Init@i
  3716  059B                     l5461:	
  3717  059B  0872               	movf	chaine_Init@i,w
  3718  059C  3EC8               	addlw	200
  3719  059D  0086               	movwf	6
  3720  059E  3022               	movlw	34
  3721  059F  0187               	clrf	7
  3722  05A0  3D87               	addwfc	7,f
  3723  05A1  3064               	movlw	100
  3724  05A2  0181               	clrf	1
  3725  05A3  0AF2               	incf	chaine_Init@i,f
  3726  05A4  0272               	subwf	chaine_Init@i,w
  3727  05A5  1803               	btfsc	3,0
  3728  05A6  0008               	return
  3729  05A7  2D9B               	goto	l5461
  3730  05A8                     __end_of_chaine_Init:	
  3731  05A8                     __ptext1:	
  3732 ;; *************** function _init_compteur_trames *****************
  3733 ;; Defined at:
  3734 ;;		line 12 in file "../Sources/modem.c"
  3735 ;; Parameters:    Size  Location     Type
  3736 ;;		None
  3737 ;; Auto vars:     Size  Location     Type
  3738 ;;		None
  3739 ;; Return value:  Size  Location     Type
  3740 ;;                  1    wreg      void 
  3741 ;; Registers used:
  3742 ;;		status,2
  3743 ;; Tracked objects:
  3744 ;;		On entry : 1F/1
  3745 ;;		On exit  : 1F/2
  3746 ;;		Unchanged: 0/0
  3747 ;; Data sizes:     COMMON   BANK0   BANK1   BANK2   BANK3   BANK4   BANK5   BANK6   BANK7   BANK8   BANK9  BANK10  BANK1
      +1  BANK12
  3748 ;;      Params:         0       0       0       0       0       0       0       0       0       0       0       0       
      +0       0
  3749 ;;      Locals:         0       0       0       0       0       0       0       0       0       0       0       0       
      +0       0
  3750 ;;      Temps:          0       0       0       0       0       0       0       0       0       0       0       0       
      +0       0
  3751 ;;      Totals:         0       0       0       0       0       0       0       0       0       0       0       0       
      +0       0
  3752 ;;Total ram usage:        0 bytes
  3753 ;; Hardware stack levels used:    1
  3754 ;; Hardware stack levels required when called:    1
  3755 ;; This function calls:
  3756 ;;		Nothing
  3757 ;; This function is called by:
  3758 ;;		_main
  3759 ;; This function uses a non-reentrant model
  3760 ;;
  3761                           
  3762                           
  3763                           ;psect for function _init_compteur_trames
  3764  05A8                     _init_compteur_trames:	
  3765                           
  3766                           ;modem.c: 13: compteur_trames=0;
  3767                           
  3768                           ;incstack = 0
  3769                           ; Regs used in _init_compteur_trames: [status,2]
  3770  05A8  0022               	movlb	2	; select bank2
  3771  05A9  01C3               	clrf	_compteur_trames^(0+256)
  3772                           
  3773                           ;modem.c: 14: nb_ko_modem=0;
  3774  05AA  01C2               	clrf	_nb_ko_modem^(0+256)
  3775  05AB  0008               	return
  3776  05AC                     __end_of_init_compteur_trames:	
  3777  05AC                     PL10:	
  3778  05AC  084E               	movf	?___fttol+1,w
  3779  05AD  0022               	movlb	2	; select bank2
  3780  05AE  00B3               	movwf	(_main$1276+1)^(0+256)
  3781  05AF  0020               	movlb	0	; select bank0
  3782  05B0  084D               	movf	?___fttol,w
  3783  05B1  0022               	movlb	2	; select bank2
  3784  05B2  00B2               	movwf	_main$1276^(0+256)
  3785  05B3  0831               	movf	(_main$1275+1)^(0+256),w
  3786  05B4  0020               	movlb	0	; select bank0
  3787  05B5  00DB               	movwf	Envoi_message_Erreur@Vsolar+1
  3788  05B6  0022               	movlb	2	; select bank2
  3789  05B7  0830               	movf	_main$1275^(0+256),w
  3790  05B8  0020               	movlb	0	; select bank0
  3791  05B9  00DA               	movwf	Envoi_message_Erreur@Vsolar
  3792  05BA  0022               	movlb	2	; select bank2
  3793  05BB  0833               	movf	(_main$1276+1)^(0+256),w
  3794  05BC  0020               	movlb	0	; select bank0
  3795  05BD  00DD               	movwf	Envoi_message_Erreur@Vbackup+1
  3796  05BE  0022               	movlb	2	; select bank2
  3797  05BF  0832               	movf	_main$1276^(0+256),w
  3798  05C0  0020               	movlb	0	; select bank0
  3799  05C1  00DC               	movwf	Envoi_message_Erreur@Vbackup
  3800  05C2  0008               	return
  3801  05C3                     __end_ofPL10:	
  3802  05C3                     PL14:	
  3803  05C3  084E               	movf	?___fttol+1,w
  3804  05C4  0022               	movlb	2	; select bank2
  3805  05C5  00B1               	movwf	(_main$1275+1)^(0+256)
  3806  05C6  0020               	movlb	0	; select bank0
  3807  05C7  084D               	movf	?___fttol,w
  3808  05C8  0022               	movlb	2	; select bank2
  3809  05C9  00B0               	movwf	_main$1275^(0+256)
  3810  05CA  083F               	movf	main@VBackup^(0+256),w
  3811  05CB  0020               	movlb	0	; select bank0
  3812  05CC  00CD               	movwf	___fttol@f1
  3813  05CD  0022               	movlb	2	; select bank2
  3814  05CE  0840               	movf	(main@VBackup+1)^(0+256),w
  3815  05CF  0020               	movlb	0	; select bank0
  3816  05D0  00CE               	movwf	___fttol@f1+1
  3817  05D1  0022               	movlb	2	; select bank2
  3818  05D2  0841               	movf	(main@VBackup+2)^(0+256),w
  3819  05D3  0020               	movlb	0	; select bank0
  3820  05D4  00CF               	movwf	___fttol@f1+2
  3821  05D5  0008               	return
  3822  05D6                     __end_ofPL14:	
  3823  05D6                     PL20:	
  3824  05D6  0022               	movlb	2	; select bank2
  3825  05D7  083C               	movf	main@VSolar^(0+256),w
  3826  05D8  0020               	movlb	0	; select bank0
  3827  05D9  00CD               	movwf	___fttol@f1
  3828  05DA  0022               	movlb	2	; select bank2
  3829  05DB  083D               	movf	(main@VSolar+1)^(0+256),w
  3830  05DC  0020               	movlb	0	; select bank0
  3831  05DD  00CE               	movwf	___fttol@f1+1
  3832  05DE  0022               	movlb	2	; select bank2
  3833  05DF  083E               	movf	(main@VSolar+2)^(0+256),w
  3834  05E0  0020               	movlb	0	; select bank0
  3835  05E1  00CF               	movwf	___fttol@f1+2
  3836  05E2  0008               	return
  3837  05E3                     __end_ofPL20:	
  3838  05E3                     PL26:	
  3839  05E3  0020               	movlb	0	; select bank0
  3840  05E4  00C1               	movwf	Measure_Vdd_VSolar_VBackup@VSolar
  3841  05E5  303F               	movlw	(low (main@VBackup| (0+256)))& (0+255)
  3842  05E6  00C2               	movwf	Measure_Vdd_VSolar_VBackup@VBackup
  3843  05E7  3026               	movlw	(low (main@VBackup_min| (0+256)))& (0+255)
  3844  05E8  00C3               	movwf	Measure_Vdd_VSolar_VBackup@VBackup_min
  3845  05E9  3029               	movlw	(low (main@VBackup_max| (0+256)))& (0+255)
  3846  05EA  00C4               	movwf	Measure_Vdd_VSolar_VBackup@VBackup_max
  3847  05EB  3422               	retlw	(low (main@Vdd| (0+256)))& (0+255)
  3848  05EC                     __end_ofPL26:	
  3849  05EC                     PL34:	
  3850  05EC  01F2               	clrf	___ftge@ff1
  3851  05ED  00F3               	movwf	___ftge@ff1+1
  3852  05EE  3044               	movlw	68
  3853  05EF  00F4               	movwf	___ftge@ff1+2
  3854  05F0  0022               	movlb	2	; select bank2
  3855  05F1  083C               	movf	main@VSolar^(0+256),w
  3856  05F2  00F5               	movwf	___ftge@ff2
  3857  05F3  083D               	movf	(main@VSolar+1)^(0+256),w
  3858  05F4  00F6               	movwf	___ftge@ff2+1
  3859  05F5  083E               	movf	(main@VSolar+2)^(0+256),w
  3860  05F6  00F7               	movwf	___ftge@ff2+2
  3861  05F7  0008               	return
  3862  05F8                     __end_ofPL34:	
  3863  05F8                     PL38:	
  3864  05F8  0022               	movlb	2	; select bank2
  3865  05F9  083F               	movf	main@VBackup^(0+256),w
  3866  05FA  00F2               	movwf	___ftge@ff1
  3867  05FB  0840               	movf	(main@VBackup+1)^(0+256),w
  3868  05FC  00F3               	movwf	___ftge@ff1+1
  3869  05FD  0841               	movf	(main@VBackup+2)^(0+256),w
  3870  05FE  00F4               	movwf	___ftge@ff1+2
  3871  05FF  0008               	return
  3872  0600                     __end_ofPL38:	
  3873  0600                     PL40:	
  3874  0600  00F4               	movwf	___ftge@ff1+2
  3875  0601  0022               	movlb	2	; select bank2
  3876  0602  083F               	movf	main@VBackup^(0+256),w
  3877  0603  00F5               	movwf	___ftge@ff2
  3878  0604  0840               	movf	(main@VBackup+1)^(0+256),w
  3879  0605  00F6               	movwf	___ftge@ff2+1
  3880  0606  0841               	movf	(main@VBackup+2)^(0+256),w
  3881  0607  00F7               	movwf	___ftge@ff2+2
  3882  0608  0008               	return
  3883  0609                     __end_ofPL40:	
  3884  0609                     PL42:	
  3885  0609  0021               	movlb	1	; select bank1
  3886  060A  160C               	bsf	12,4	;volatile
  3887  060B  01E1               	clrf	main@flag_protect^(0+128)
  3888  060C  0022               	movlb	2	; select bank2
  3889  060D  110C               	bcf	12,2	;volatile
  3890  060E  3002               	movlw	2
  3891  060F  00F2               	movwf	Delay_100ms@duree
  3892  0610  01F3               	clrf	Delay_100ms@duree+1
  3893  0611  0008               	return
  3894  0612                     __end_ofPL42:	
  3895  0612                     PL44:	
  3896  0612  0021               	movlb	1	; select bank1
  3897  0613  3080               	movlw	128
  3898  0614  01E6               	clrf	main@cpt_reveil^(0+128)
  3899  0615  01E7               	clrf	(main@cpt_reveil+1)^(0+128)
  3900  0616  00F2               	movwf	___ftge@ff1
  3901  0617  30BB               	movlw	187
  3902  0618  00F3               	movwf	___ftge@ff1+1
  3903  0619  3444               	retlw	68
  3904  061A                     __end_ofPL44:	
  3905  061A                     PL60:	
  3906  061A  0022               	movlb	2	; select bank2
  3907  061B  110C               	bcf	12,2	;volatile
  3908  061C  3002               	movlw	2
  3909  061D  00F2               	movwf	Delay_100ms@duree
  3910  061E  01F3               	clrf	Delay_100ms@duree+1
  3911  061F  0008               	return
  3912  0620                     __end_ofPL60:	
  3913  0620                     PL62:	
  3914  0620  3020               	movlw	(low (main@temp_min| (0+256)))& (0+255)
  3915  0621  0020               	movlb	0	; select bank0
  3916  0622  00A2               	movwf	Processing_Temperature@temp_min
  3917  0623  3021               	movlw	(low (main@temp_max| (0+256)))& (0+255)
  3918  0624  00A3               	movwf	Processing_Temperature@temp_max
  3919  0625  30E4               	movlw	(low (main@temp_moy| 0))& (0+255)
  3920  0626  00A4               	movwf	Processing_Temperature@temp_moy
  3921  0627  30A0               	movlw	(low (main@tab_temp| 0))& (0+255)
  3922  0628  00A5               	movwf	Processing_Temperature@tab_temp
  3923  0629  302D               	movlw	(low (main@index_temp_old| (0+256)))& (0+255)
  3924  062A  00A6               	movwf	Processing_Temperature@index_temp_old
  3925  062B  3425               	retlw	(low (main@actual_temp| (0+256)))& (0+255)
  3926  062C                     __end_ofPL62:	
  3927  062C                     PL66:	
  3928  062C  0022               	movlb	2	; select bank2
  3929  062D  083C               	movf	main@VSolar^(0+256),w
  3930  062E  00F2               	movwf	___ftge@ff1
  3931  062F  083D               	movf	(main@VSolar+1)^(0+256),w
  3932  0630  00F3               	movwf	___ftge@ff1+1
  3933  0631  083E               	movf	(main@VSolar+2)^(0+256),w
  3934  0632  00F4               	movwf	___ftge@ff1+2
  3935  0633  307A               	movlw	122
  3936  0634  01F5               	clrf	___ftge@ff2
  3937  0635  00F6               	movwf	___ftge@ff2+1
  3938  0636  3044               	movlw	68
  3939  0637  00F7               	movwf	___ftge@ff2+2
  3940  0638  0008               	return
  3941  0639                     __end_ofPL66:	
  3942  0639                     PL104:	
  3943  0639  3066               	movlw	102
  3944  063A  00F2               	movwf	___lwmod@divisor
  3945  063B  01F3               	clrf	___lwmod@divisor+1
  3946  063C  0021               	movlb	1	; select bank1
  3947  063D  0863               	movf	(main@cpt_reveil_service+1)^(0+128),w
  3948  063E  00F5               	movwf	___lwmod@dividend+1
  3949  063F  0862               	movf	main@cpt_reveil_service^(0+128),w
  3950  0640  00F4               	movwf	___lwmod@dividend
  3951  0641  0008               	return
  3952  0642                     __end_ofPL104:	
  3953  0642                     PL108:	
  3954  0642  110C               	bcf	12,2	;volatile
  3955  0643  3002               	movlw	2
  3956  0644  00F2               	movwf	Delay_100ms@duree
  3957  0645  01F3               	clrf	Delay_100ms@duree+1
  3958  0646  0008               	return
  3959  0647                     __end_ofPL108:	
  3960  0647                     PL130:	
  3961  0647  084D               	movf	___fttol@f1,w
  3962  0648  00D1               	movwf	??___fttol
  3963  0649  084E               	movf	___fttol@f1+1,w
  3964  064A  00D2               	movwf	??___fttol+1
  3965  064B  084F               	movf	___fttol@f1+2,w
  3966  064C  00D3               	movwf	??___fttol+2
  3967  064D  0008               	return
  3968  064E                     __end_ofPL130:	
  3969  064E                     PL146:	
  3970  064E  0021               	movlb	1	; select bank1
  3971  064F  00D7               	movwf	main@old_state_s^(0+128)
  3972  0650  3066               	movlw	102
  3973  0651  0022               	movlb	2	; select bank2
  3974  0652  00AE               	movwf	main@state_s^(0+256)
  3975  0653  0008               	return
  3976  0654                     __end_ofPL146:	
  3977  0654                     PL150:	
  3978  0654  01F5               	clrf	___ftge@ff2
  3979  0655  00F6               	movwf	___ftge@ff2+1
  3980  0656  3044               	movlw	68
  3981  0657  00F7               	movwf	___ftge@ff2+2
  3982  0658  0008               	return
  3983  0659                     __end_ofPL150:	
  3984  0659                     PL156:	
  3985  0659  0021               	movlb	1	; select bank1
  3986  065A  0867               	movf	(main@cpt_reveil+1)^(0+128),w
  3987  065B  00F5               	movwf	___lwdiv@dividend+1
  3988  065C  0866               	movf	main@cpt_reveil^(0+128),w
  3989  065D  00F4               	movwf	___lwdiv@dividend
  3990  065E  0008               	return
  3991  065F                     __end_ofPL156:	
  3992  065F                     PL158:	
  3993  065F  3E2C               	addlw	44
  3994  0660  0086               	movwf	6
  3995  0661  3023               	movlw	35
  3996  0662  0187               	clrf	7
  3997  0663  3D87               	addwfc	7,f
  3998  0664  0008               	return
  3999  0665                     __end_ofPL158:	
  4000  0665                     __ptext22:	
  4001 ;; *************** function ___awdiv *****************
  4002 ;; Defined at:
  4003 ;;		line 6 in file "C:\Program Files (x86)\Microchip\xc8\v1.44\sources\common\awdiv.c"
  4004 ;; Parameters:    Size  Location     Type
  4005 ;;  divisor         2    2[COMMON] int 
  4006 ;;  dividend        2    4[COMMON] int 
  4007 ;; Auto vars:     Size  Location     Type
  4008 ;;  quotient        2    8[COMMON] int 
  4009 ;;  sign            1    7[COMMON] unsigned char 
  4010 ;;  counter         1    6[COMMON] unsigned char 
  4011 ;; Return value:  Size  Location     Type
  4012 ;;                  2    2[COMMON] int 
  4013 ;; Registers used:
  4014 ;;		wreg, status,2, status,0
  4015 ;; Tracked objects:
  4016 ;;		On entry : 1F/1
  4017 ;;		On exit  : 1F/1
  4018 ;;		Unchanged: 1F/0
  4019 ;; Data sizes:     COMMON   BANK0   BANK1   BANK2   BANK3   BANK4   BANK5   BANK6   BANK7   BANK8   BANK9  BANK10  BANK1
      +1  BANK12
  4020 ;;      Params:         4       0       0       0       0       0       0       0       0       0       0       0       
      +0       0
  4021 ;;      Locals:         4       0       0       0       0       0       0       0       0       0       0       0       
      +0       0
  4022 ;;      Temps:          0       0       0       0       0       0       0       0       0       0       0       0       
      +0       0
  4023 ;;      Totals:         8       0       0       0       0       0       0       0       0       0       0       0       
      +0       0
  4024 ;;Total ram usage:        8 bytes
  4025 ;; Hardware stack levels used:    1
  4026 ;; Hardware stack levels required when called:    1
  4027 ;; This function calls:
  4028 ;;		Nothing
  4029 ;; This function is called by:
  4030 ;;		_main
  4031 ;; This function uses a non-reentrant model
  4032 ;;
  4033                           
  4034                           
  4035                           ;psect for function ___awdiv
  4036  0665                     ___awdiv:	
  4037                           
  4038                           ;incstack = 0
  4039                           ; Regs used in ___awdiv: [wreg+status,2+status,0]
  4040  0665  01F7               	clrf	___awdiv@sign
  4041  0666  1FF3               	btfss	___awdiv@divisor+1,7
  4042  0667  2E6F               	goto	l6643
  4043  0668  09F2               	comf	___awdiv@divisor,f
  4044  0669  09F3               	comf	___awdiv@divisor+1,f
  4045  066A  0AF2               	incf	___awdiv@divisor,f
  4046  066B  1903               	skipnz
  4047  066C  0AF3               	incf	___awdiv@divisor+1,f
  4048  066D  01F7               	clrf	___awdiv@sign
  4049  066E  0AF7               	incf	___awdiv@sign,f
  4050  066F                     l6643:	
  4051  066F  1FF5               	btfss	___awdiv@dividend+1,7
  4052  0670  2E78               	goto	l6649
  4053  0671  09F4               	comf	___awdiv@dividend,f
  4054  0672  09F5               	comf	___awdiv@dividend+1,f
  4055  0673  0AF4               	incf	___awdiv@dividend,f
  4056  0674  1903               	skipnz
  4057  0675  0AF5               	incf	___awdiv@dividend+1,f
  4058  0676  3001               	movlw	1
  4059  0677  06F7               	xorwf	___awdiv@sign,f
  4060  0678                     l6649:	
  4061  0678  01F8               	clrf	___awdiv@quotient
  4062  0679  01F9               	clrf	___awdiv@quotient+1
  4063  067A  0872               	movf	___awdiv@divisor,w
  4064  067B  0473               	iorwf	___awdiv@divisor+1,w
  4065  067C  1903               	btfsc	3,2
  4066  067D  2E98               	goto	l6671
  4067  067E  01F6               	clrf	___awdiv@counter
  4068  067F                     L19:	
  4069  067F  0AF6               	incf	___awdiv@counter,f
  4070  0680  1BF3               	btfsc	___awdiv@divisor+1,7
  4071  0681  2E85               	goto	l6659
  4072  0682  35F2               	lslf	___awdiv@divisor,f
  4073  0683  0DF3               	rlf	___awdiv@divisor+1,f
  4074  0684  2E7F               	goto	L19
  4075  0685                     l6659:	
  4076  0685  35F8               	lslf	___awdiv@quotient,f
  4077  0686  0DF9               	rlf	___awdiv@quotient+1,f
  4078  0687  0873               	movf	___awdiv@divisor+1,w
  4079  0688  0275               	subwf	___awdiv@dividend+1,w
  4080  0689  1D03               	skipz
  4081  068A  2E8D               	goto	u7135
  4082  068B  0872               	movf	___awdiv@divisor,w
  4083  068C  0274               	subwf	___awdiv@dividend,w
  4084  068D                     u7135:	
  4085  068D  1C03               	skipc
  4086  068E  2E94               	goto	l6667
  4087  068F  0872               	movf	___awdiv@divisor,w
  4088  0690  02F4               	subwf	___awdiv@dividend,f
  4089  0691  0873               	movf	___awdiv@divisor+1,w
  4090  0692  3BF5               	subwfb	___awdiv@dividend+1,f
  4091  0693  1478               	bsf	___awdiv@quotient,0
  4092  0694                     l6667:	
  4093  0694  36F3               	lsrf	___awdiv@divisor+1,f
  4094  0695  0CF2               	rrf	___awdiv@divisor,f
  4095  0696  0BF6               	decfsz	___awdiv@counter,f
  4096  0697  2E85               	goto	l6659
  4097  0698                     l6671:	
  4098  0698  0877               	movf	___awdiv@sign,w
  4099  0699  1903               	btfsc	3,2
  4100  069A  2EA0               	goto	l6675
  4101  069B  09F8               	comf	___awdiv@quotient,f
  4102  069C  09F9               	comf	___awdiv@quotient+1,f
  4103  069D  0AF8               	incf	___awdiv@quotient,f
  4104  069E  1903               	skipnz
  4105  069F  0AF9               	incf	___awdiv@quotient+1,f
  4106  06A0                     l6675:	
  4107  06A0  0879               	movf	___awdiv@quotient+1,w
  4108  06A1  00F3               	movwf	?___awdiv+1
  4109  06A2  0878               	movf	___awdiv@quotient,w
  4110  06A3  00F2               	movwf	?___awdiv
  4111  06A4  0008               	return
  4112  06A5                     __end_of___awdiv:	
  4113                           
  4114                           	psect	bssCOMMON
  4115  007B                     __pbssCOMMON:	
  4116  007B                     _UART_RX_WR_ptr:	
  4117  007B                     	ds	1
  4118                           
  4119                           	psect	bssBANK2
  4120  0142                     __pbssBANK2:	
  4121  0142                     _nb_ko_modem:	
  4122  0142                     	ds	1
  4123  0143                     _compteur_trames:	
  4124  0143                     	ds	1
  4125  0144                     _UART_RX_RD_ptr:	
  4126  0144                     	ds	1
  4127                           
  4128                           	psect	clrtext
  4129  06A5                     clear_ram0:	
  4130                           ;	Called with FSR0 containing the base address, and
  4131                           ;	btemp/btemp+1 has the size to clear
  4132                           
  4133  06A5  0064               	clrwdt	;clear the watchdog before getting into this loop
  4134  06A6                     clrloop0:	
  4135  06A6  3001               	movlw	1
  4136  06A7  0180               	clrf	0	;clear RAM location pointed to by FSR
  4137  06A8  3101               	addfsr 0,1
  4138  06A9  02FE               	subwf	126,f
  4139  06AA  3000               	movlw	0
  4140  06AB  3BFF               	subwfb	127,f
  4141  06AC  087F               	movf	127,w
  4142  06AD  047E               	iorwf	126,w
  4143  06AE  1903               	btfsc	3,2
  4144  06AF  3400               	retlw	0	;all done for this memory range, return
  4145  06B0  2EA6               	goto	clrloop0	;have we reached the end yet?
  4146                           
  4147                           	psect	cstackBANK2
  4148  0120                     __pcstackBANK2:	
  4149  0120                     main@temp_min:	
  4150                           
  4151                           ; 1 bytes @ 0x0
  4152  0120                     	ds	1
  4153  0121                     main@temp_max:	
  4154                           
  4155                           ; 1 bytes @ 0x1
  4156  0121                     	ds	1
  4157  0122                     main@Vdd:	
  4158                           
  4159                           ; 3 bytes @ 0x2
  4160  0122                     	ds	3
  4161  0125                     main@actual_temp:	
  4162                           
  4163                           ; 1 bytes @ 0x5
  4164  0125                     	ds	1
  4165  0126                     main@VBackup_min:	
  4166                           
  4167                           ; 3 bytes @ 0x6
  4168  0126                     	ds	3
  4169  0129                     main@VBackup_max:	
  4170                           
  4171                           ; 3 bytes @ 0x9
  4172  0129                     	ds	3
  4173  012C                     main@day_status:	
  4174                           
  4175                           ; 1 bytes @ 0xC
  4176  012C                     	ds	1
  4177  012D                     main@index_temp_old:	
  4178                           
  4179                           ; 1 bytes @ 0xD
  4180  012D                     	ds	1
  4181  012E                     main@state_s:	
  4182                           
  4183                           ; 1 bytes @ 0xE
  4184  012E                     	ds	1
  4185  012F                     main@dopBis:	
  4186                           
  4187                           ; 1 bytes @ 0xF
  4188  012F                     	ds	1
  4189  0130                     _main$1275:	
  4190                           
  4191                           ; 2 bytes @ 0x10
  4192  0130                     	ds	2
  4193  0132                     _main$1276:	
  4194                           
  4195                           ; 2 bytes @ 0x12
  4196  0132                     	ds	2
  4197  0134                     main@Long:	
  4198                           
  4199                           ; 4 bytes @ 0x14
  4200  0134                     	ds	4
  4201  0138                     main@Lat:	
  4202                           
  4203                           ; 4 bytes @ 0x18
  4204  0138                     	ds	4
  4205  013C                     main@VSolar:	
  4206                           
  4207                           ; 3 bytes @ 0x1C
  4208  013C                     	ds	3
  4209  013F                     main@VBackup:	
  4210                           
  4211                           ; 3 bytes @ 0x1F
  4212  013F                     	ds	3
  4213                           
  4214                           	psect	cstackBANK1
  4215  00A0                     __pcstackBANK1:	
  4216  00A0                     main@tab_temp:	
  4217                           
  4218                           ; 50 bytes @ 0x0
  4219  00A0                     	ds	50
  4220  00D2                     _main$1278:	
  4221                           
  4222                           ; 2 bytes @ 0x32
  4223  00D2                     	ds	2
  4224  00D4                     _main$1279:	
  4225                           
  4226                           ; 1 bytes @ 0x34
  4227  00D4                     	ds	1
  4228  00D5                     _main$1280:	
  4229                           
  4230                           ; 1 bytes @ 0x35
  4231  00D5                     	ds	1
  4232  00D6                     main@temp_uchar:	
  4233                           
  4234                           ; 1 bytes @ 0x36
  4235  00D6                     	ds	1
  4236  00D7                     main@old_state_s:	
  4237                           
  4238                           ; 1 bytes @ 0x37
  4239  00D7                     	ds	1
  4240  00D8                     main@cpt_timeout2:	
  4241                           
  4242                           ; 2 bytes @ 0x38
  4243  00D8                     	ds	2
  4244  00DA                     main@cpt_timeout3:	
  4245                           
  4246                           ; 2 bytes @ 0x3A
  4247  00DA                     	ds	2
  4248  00DC                     main@temp_short:	
  4249                           
  4250                           ; 2 bytes @ 0x3C
  4251  00DC                     	ds	2
  4252  00DE                     main@cpt_timeout:	
  4253                           
  4254                           ; 2 bytes @ 0x3E
  4255  00DE                     	ds	2
  4256  00E0                     main@count_confirmation:	
  4257                           
  4258                           ; 1 bytes @ 0x40
  4259  00E0                     	ds	1
  4260  00E1                     main@flag_protect:	
  4261                           
  4262                           ; 1 bytes @ 0x41
  4263  00E1                     	ds	1
  4264  00E2                     main@cpt_reveil_service:	
  4265                           
  4266                           ; 2 bytes @ 0x42
  4267  00E2                     	ds	2
  4268  00E4                     main@temp_moy:	
  4269                           
  4270                           ; 2 bytes @ 0x44
  4271  00E4                     	ds	2
  4272  00E6                     main@cpt_reveil:	
  4273                           
  4274                           ; 2 bytes @ 0x46
  4275  00E6                     	ds	2
  4276  00E8                     main@vitesse:	
  4277                           
  4278                           ; 3 bytes @ 0x48
  4279  00E8                     	ds	3
  4280  00EB                     main@cap:	
  4281                           
  4282                           ; 3 bytes @ 0x4B
  4283  00EB                     	ds	3
  4284  00EE                     main@nb_slot_protec:	
  4285                           
  4286                           ; 2 bytes @ 0x4E
  4287  00EE                     	ds	2
  4288                           
  4289                           	psect	cstackCOMMON
  4290  0070                     __pcstackCOMMON:	
  4291  0070                     ?_isspace:	
  4292  0070                     ?_isdigit:	
  4293                           ; 1 bit 
  4294                           
  4295  0070                     ?_isupper:	
  4296                           ; 1 bit 
  4297                           
  4298  0070                     ?_isxdigit:	
  4299                           ; 1 bit 
  4300                           
  4301  0070                     ?_Recuperer_Temp:	
  4302                           ; 1 bit 
  4303                           
  4304  0070                     ?_UART_RX_Buffers_Init:	
  4305                           ; 1 bytes @ 0x0
  4306                           
  4307  0070                     ?_chaine_Init:	
  4308                           ; 1 bytes @ 0x0
  4309                           
  4310  0070                     ?_init_compteur_trames:	
  4311                           ; 1 bytes @ 0x0
  4312                           
  4313  0070                     ?_Reinit_trame_GPS:	
  4314                           ; 1 bytes @ 0x0
  4315                           
  4316  0070                     ?_configure_GPS:	
  4317                           ; 1 bytes @ 0x0
  4318                           
  4319  0070                     ?_UART_Frame_Received:	
  4320                           ; 1 bytes @ 0x0
  4321                           
  4322  0070                     ?_decode_trame_GPS:	
  4323                           ; 1 bytes @ 0x0
  4324                           
  4325  0070                     ?_configure_GPS_VTG:	
  4326                           ; 1 bytes @ 0x0
  4327                           
  4328  0070                     ?_tolower:	
  4329                           ; 1 bytes @ 0x0
  4330                           
  4331  0070                     ?_isr:	
  4332                           ; 1 bytes @ 0x0
  4333                           
  4334  0070                     ??_isr:	
  4335                           ; 1 bytes @ 0x0
  4336                           
  4337  0070                     ?_main:	
  4338                           ; 1 bytes @ 0x0
  4339                           
  4340  0070                     ?_UART_Transmit_one_char:	
  4341                           ; 1 bytes @ 0x0
  4342                           
  4343  0070                     ?_UART_Get_Next_Char:	
  4344                           ; 1 bytes @ 0x0
  4345                           
  4346  0070                     ?_hex_to_ascii:	
  4347                           ; 1 bytes @ 0x0
  4348                           
  4349                           
  4350                           ; 1 bytes @ 0x0
  4351  0070                     	ds	2
  4352  0072                     ?___ftge:	
  4353  0072                     ??_UART_RX_Buffers_Init:	
  4354                           ; 1 bit 
  4355                           
  4356  0072                     ??_chaine_Init:	
  4357                           ; 1 bytes @ 0x2
  4358                           
  4359  0072                     ??_init_compteur_trames:	
  4360                           ; 1 bytes @ 0x2
  4361                           
  4362  0072                     ??_isspace:	
  4363                           ; 1 bytes @ 0x2
  4364                           
  4365  0072                     ??_isdigit:	
  4366                           ; 1 bytes @ 0x2
  4367                           
  4368  0072                     ??_isupper:	
  4369                           ; 1 bytes @ 0x2
  4370                           
  4371  0072                     ??_tolower:	
  4372                           ; 1 bytes @ 0x2
  4373                           
  4374  0072                     ?_Delay_100ms:	
  4375                           ; 1 bytes @ 0x2
  4376                           
  4377  0072                     ??_UART_Transmit_one_char:	
  4378                           ; 1 bytes @ 0x2
  4379                           
  4380  0072                     ?_UART_Transmit_string:	
  4381                           ; 1 bytes @ 0x2
  4382                           
  4383  0072                     ??_UART_Get_Next_Char:	
  4384                           ; 1 bytes @ 0x2
  4385                           
  4386  0072                     ?___bmul:	
  4387                           ; 1 bytes @ 0x2
  4388                           
  4389  0072                     ?_ADC_Read:	
  4390                           ; 1 bytes @ 0x2
  4391                           
  4392  0072                     ?_strncmp:	
  4393                           ; 2 bytes @ 0x2
  4394                           
  4395  0072                     ?___wmul:	
  4396                           ; 2 bytes @ 0x2
  4397                           
  4398  0072                     ?___awdiv:	
  4399                           ; 2 bytes @ 0x2
  4400                           
  4401  0072                     ?___lwdiv:	
  4402                           ; 2 bytes @ 0x2
  4403                           
  4404  0072                     ?___lwmod:	
  4405                           ; 2 bytes @ 0x2
  4406                           
  4407  0072                     ?___ftpack:	
  4408                           ; 2 bytes @ 0x2
  4409                           
  4410  0072                     ?___ftneg:	
  4411                           ; 3 bytes @ 0x2
  4412                           
  4413  0072                     ?___lmul:	
  4414                           ; 3 bytes @ 0x2
  4415                           
  4416  0072                     chaine_Init@i:	
  4417                           ; 4 bytes @ 0x2
  4418                           
  4419  0072                     UART_Transmit_one_char@tx:	
  4420                           ; 1 bytes @ 0x2
  4421                           
  4422  0072                     ___bmul@multiplicand:	
  4423                           ; 1 bytes @ 0x2
  4424                           
  4425  0072                     _isdigit$1002:	
  4426                           ; 1 bytes @ 0x2
  4427                           
  4428  0072                     _isspace$1005:	
  4429                           ; 1 bytes @ 0x2
  4430                           
  4431  0072                     _isupper$1084:	
  4432                           ; 1 bytes @ 0x2
  4433                           
  4434  0072                     tolower@c:	
  4435                           ; 1 bytes @ 0x2
  4436                           
  4437  0072                     Delay_100ms@duree:	
  4438                           ; 1 bytes @ 0x2
  4439                           
  4440  0072                     UART_Transmit_string@tx:	
  4441                           ; 2 bytes @ 0x2
  4442                           
  4443  0072                     ___wmul@multiplier:	
  4444                           ; 2 bytes @ 0x2
  4445                           
  4446  0072                     ___awdiv@divisor:	
  4447                           ; 2 bytes @ 0x2
  4448                           
  4449  0072                     ___lwdiv@divisor:	
  4450                           ; 2 bytes @ 0x2
  4451                           
  4452  0072                     ___lwmod@divisor:	
  4453                           ; 2 bytes @ 0x2
  4454                           
  4455  0072                     strncmp@s1:	
  4456                           ; 2 bytes @ 0x2
  4457                           
  4458  0072                     ___ftpack@arg:	
  4459                           ; 2 bytes @ 0x2
  4460                           
  4461  0072                     ___ftge@ff1:	
  4462                           ; 3 bytes @ 0x2
  4463                           
  4464  0072                     ___ftneg@f1:	
  4465                           ; 3 bytes @ 0x2
  4466                           
  4467  0072                     ___lmul@multiplier:	
  4468                           ; 3 bytes @ 0x2
  4469                           
  4470                           
  4471                           ; 4 bytes @ 0x2
  4472  0072                     	ds	1
  4473  0073                     ??___bmul:	
  4474  0073                     ___bmul@product:	
  4475                           ; 1 bytes @ 0x3
  4476                           
  4477  0073                     isdigit@c:	
  4478                           ; 1 bytes @ 0x3
  4479                           
  4480  0073                     isspace@c:	
  4481                           ; 1 bytes @ 0x3
  4482                           
  4483  0073                     isupper@c:	
  4484                           ; 1 bytes @ 0x3
  4485                           
  4486                           
  4487                           ; 1 bytes @ 0x3
  4488  0073                     	ds	1
  4489  0074                     ??_ADC_Read:	
  4490  0074                     ??_isxdigit:	
  4491                           ; 1 bytes @ 0x4
  4492                           
  4493  0074                     ??_Delay_100ms:	
  4494                           ; 1 bytes @ 0x4
  4495                           
  4496  0074                     ??_UART_Transmit_string:	
  4497                           ; 1 bytes @ 0x4
  4498                           
  4499  0074                     UART_RX_Buffers_Init@i:	
  4500                           ; 1 bytes @ 0x4
  4501                           
  4502  0074                     UART_Get_Next_Char@temp:	
  4503                           ; 1 bytes @ 0x4
  4504                           
  4505  0074                     ___bmul@multiplier:	
  4506                           ; 1 bytes @ 0x4
  4507                           
  4508  0074                     _isxdigit$1088:	
  4509                           ; 1 bytes @ 0x4
  4510                           
  4511  0074                     ___wmul@multiplicand:	
  4512                           ; 1 bytes @ 0x4
  4513                           
  4514  0074                     ___awdiv@dividend:	
  4515                           ; 2 bytes @ 0x4
  4516                           
  4517  0074                     ___lwdiv@dividend:	
  4518                           ; 2 bytes @ 0x4
  4519                           
  4520  0074                     ___lwmod@dividend:	
  4521                           ; 2 bytes @ 0x4
  4522                           
  4523  0074                     strncmp@s2:	
  4524                           ; 2 bytes @ 0x4
  4525                           
  4526                           
  4527                           ; 2 bytes @ 0x4
  4528  0074                     	ds	1
  4529  0075                     ??_UART_Frame_Received:	
  4530  0075                     ??_hex_to_ascii:	
  4531                           ; 1 bytes @ 0x5
  4532                           
  4533  0075                     ??___ftneg:	
  4534                           ; 1 bytes @ 0x5
  4535                           
  4536  0075                     hex_to_ascii@hex:	
  4537                           ; 1 bytes @ 0x5
  4538                           
  4539  0075                     ___ftpack@exp:	
  4540                           ; 1 bytes @ 0x5
  4541                           
  4542  0075                     isxdigit@c:	
  4543                           ; 1 bytes @ 0x5
  4544                           
  4545  0075                     Delay_100ms@i:	
  4546                           ; 1 bytes @ 0x5
  4547                           
  4548  0075                     ___ftge@ff2:	
  4549                           ; 2 bytes @ 0x5
  4550                           
  4551                           
  4552                           ; 3 bytes @ 0x5
  4553  0075                     	ds	1
  4554  0076                     ??___wmul:	
  4555  0076                     ??___awdiv:	
  4556                           ; 1 bytes @ 0x6
  4557                           
  4558  0076                     ??___lwdiv:	
  4559                           ; 1 bytes @ 0x6
  4560                           
  4561  0076                     ??___lwmod:	
  4562                           ; 1 bytes @ 0x6
  4563                           
  4564  0076                     ?_xtoi:	
  4565                           ; 1 bytes @ 0x6
  4566                           
  4567  0076                     ADC_Read@channel:	
  4568                           ; 2 bytes @ 0x6
  4569                           
  4570  0076                     hex_to_ascii@b:	
  4571                           ; 1 bytes @ 0x6
  4572                           
  4573  0076                     ___awdiv@counter:	
  4574                           ; 1 bytes @ 0x6
  4575                           
  4576  0076                     ___ftpack@sign:	
  4577                           ; 1 bytes @ 0x6
  4578                           
  4579  0076                     ___lwdiv@counter:	
  4580                           ; 1 bytes @ 0x6
  4581                           
  4582  0076                     ___lwmod@counter:	
  4583                           ; 1 bytes @ 0x6
  4584                           
  4585  0076                     ___wmul@product:	
  4586                           ; 1 bytes @ 0x6
  4587                           
  4588  0076                     strncmp@len:	
  4589                           ; 2 bytes @ 0x6
  4590                           
  4591  0076                     ___lmul@multiplicand:	
  4592                           ; 2 bytes @ 0x6
  4593                           
  4594                           
  4595                           ; 4 bytes @ 0x6
  4596  0076                     	ds	1
  4597  0077                     ??___ftpack:	
  4598  0077                     UART_Transmit_string@a:	
  4599                           ; 1 bytes @ 0x7
  4600                           
  4601  0077                     UART_Frame_Received@c:	
  4602                           ; 1 bytes @ 0x7
  4603                           
  4604  0077                     hex_to_ascii@a:	
  4605                           ; 1 bytes @ 0x7
  4606                           
  4607  0077                     ___awdiv@sign:	
  4608                           ; 1 bytes @ 0x7
  4609                           
  4610  0077                     ADC_Read@i:	
  4611                           ; 1 bytes @ 0x7
  4612                           
  4613  0077                     ___lwdiv@quotient:	
  4614                           ; 2 bytes @ 0x7
  4615                           
  4616                           
  4617                           ; 2 bytes @ 0x7
  4618  0077                     	ds	1
  4619  0078                     ??_configure_GPS:	
  4620  0078                     ??_configure_GPS_VTG:	
  4621                           ; 1 bytes @ 0x8
  4622                           
  4623  0078                     ??_strncmp:	
  4624                           ; 1 bytes @ 0x8
  4625                           
  4626  0078                     ??_xtoi:	
  4627                           ; 1 bytes @ 0x8
  4628                           
  4629  0078                     ??___ftge:	
  4630                           ; 1 bytes @ 0x8
  4631                           
  4632  0078                     ?_atoi:	
  4633                           ; 1 bytes @ 0x8
  4634                           
  4635  0078                     UART_Frame_Received@temp:	
  4636                           ; 2 bytes @ 0x8
  4637                           
  4638  0078                     Reinit_trame_GPS@i:	
  4639                           ; 1 bytes @ 0x8
  4640                           
  4641  0078                     atoi@s:	
  4642                           ; 1 bytes @ 0x8
  4643                           
  4644  0078                     ___awdiv@quotient:	
  4645                           ; 2 bytes @ 0x8
  4646                           
  4647                           
  4648                           ; 2 bytes @ 0x8
  4649  0078                     	ds	1
  4650  0079                     UART_Frame_Received@flag:	
  4651  0079                     Reinit_trame_GPS@j:	
  4652                           ; 1 bytes @ 0x9
  4653                           
  4654  0079                     ADC_Read@adc_value:	
  4655                           ; 1 bytes @ 0x9
  4656                           
  4657                           
  4658                           ; 2 bytes @ 0x9
  4659  0079                     	ds	1
  4660  007A                     ??_Envoi_message_Erreur:	
  4661  007A                     ??_decodage_VTG:	
  4662                           ; 1 bytes @ 0xA
  4663                           
  4664  007A                     ??_Envoi_message:	
  4665                           ; 1 bytes @ 0xA
  4666                           
  4667  007A                     ??_atof:	
  4668                           ; 1 bytes @ 0xA
  4669                           
  4670  007A                     ??___lmul:	
  4671                           ; 1 bytes @ 0xA
  4672                           
  4673  007A                     ??___altoft:	
  4674                           ; 1 bytes @ 0xA
  4675                           
  4676  007A                     ??_strtod:	
  4677                           ; 1 bytes @ 0xA
  4678                           
  4679  007A                     ??___lwtoft:	
  4680                           ; 1 bytes @ 0xA
  4681                           
  4682  007A                     UART_Frame_Received@rd_ptr_temp:	
  4683                           ; 1 bytes @ 0xA
  4684                           
  4685  007A                     Envoi_message_Erreur@i:	
  4686                           ; 1 bytes @ 0xA
  4687                           
  4688  007A                     decodage_VTG@cap:	
  4689                           ; 1 bytes @ 0xA
  4690                           
  4691                           
  4692                           ; 1 bytes @ 0xA
  4693  007A                     	ds	1
  4694  007B                     ??_Recuperer_Temp:	
  4695  007B                     ??_main:	
  4696                           ; 1 bytes @ 0xB
  4697                           
  4698                           
  4699                           	psect	cstackBANK0
  4700  0020                     __pcstackBANK0:	
  4701                           ; 1 bytes @ 0xB
  4702                           
  4703  0020                     ??_Reinit_trame_GPS:	
  4704  0020                     ??_atoi:	
  4705                           ; 1 bytes @ 0x0
  4706                           
  4707  0020                     ?___altoft:	
  4708                           ; 1 bytes @ 0x0
  4709                           
  4710  0020                     ?___lwtoft:	
  4711                           ; 3 bytes @ 0x0
  4712                           
  4713  0020                     Recuperer_Temp@temp:	
  4714                           ; 3 bytes @ 0x0
  4715                           
  4716  0020                     xtoi@sign:	
  4717                           ; 1 bytes @ 0x0
  4718                           
  4719  0020                     ___lwtoft@c:	
  4720                           ; 1 bytes @ 0x0
  4721                           
  4722  0020                     ___lmul@product:	
  4723                           ; 2 bytes @ 0x0
  4724                           
  4725  0020                     ___altoft@c:	
  4726                           ; 4 bytes @ 0x0
  4727                           
  4728                           
  4729                           ; 4 bytes @ 0x0
  4730  0020                     	ds	1
  4731  0021                     Recuperer_Temp@cpt_timeout:	
  4732  0021                     xtoi@val:	
  4733                           ; 1 bytes @ 0x1
  4734                           
  4735                           
  4736                           ; 2 bytes @ 0x1
  4737  0021                     	ds	1
  4738  0022                     ?_Processing_Temperature:	
  4739  0022                     Processing_Temperature@temp_min:	
  4740                           ; 1 bytes @ 0x2
  4741                           
  4742                           
  4743                           ; 1 bytes @ 0x2
  4744  0022                     	ds	1
  4745  0023                     ?___ftmul:	
  4746  0023                     Processing_Temperature@temp_max:	
  4747                           ; 3 bytes @ 0x3
  4748                           
  4749  0023                     xtoi@s:	
  4750                           ; 1 bytes @ 0x3
  4751                           
  4752  0023                     ___ftmul@f1:	
  4753                           ; 1 bytes @ 0x3
  4754                           
  4755                           
  4756                           ; 3 bytes @ 0x3
  4757  0023                     	ds	1
  4758  0024                     Processing_Temperature@temp_moy:	
  4759  0024                     ___altoft@exp:	
  4760                           ; 1 bytes @ 0x4
  4761                           
  4762  0024                     atoi@sign:	
  4763                           ; 1 bytes @ 0x4
  4764                           
  4765  0024                     xtoi@c:	
  4766                           ; 1 bytes @ 0x4
  4767                           
  4768                           
  4769                           ; 1 bytes @ 0x4
  4770  0024                     	ds	1
  4771  0025                     ?_verifierCRC:	
  4772  0025                     Processing_Temperature@tab_temp:	
  4773                           ; 1 bytes @ 0x5
  4774                           
  4775  0025                     ___altoft@sign:	
  4776                           ; 1 bytes @ 0x5
  4777                           
  4778  0025                     verifierCRC@trameGPS:	
  4779                           ; 1 bytes @ 0x5
  4780                           
  4781  0025                     atoi@a:	
  4782                           ; 2 bytes @ 0x5
  4783                           
  4784                           
  4785                           ; 2 bytes @ 0x5
  4786  0025                     	ds	1
  4787  0026                     Processing_Temperature@index_temp_old:	
  4788  0026                     ___ftmul@f2:	
  4789                           ; 1 bytes @ 0x6
  4790                           
  4791                           
  4792                           ; 3 bytes @ 0x6
  4793  0026                     	ds	1
  4794  0027                     ??_verifierCRC:	
  4795  0027                     ??_Processing_Temperature:	
  4796                           ; 1 bytes @ 0x7
  4797                           
  4798                           
  4799                           ; 1 bytes @ 0x7
  4800  0027                     	ds	2
  4801  0029                     ??___ftmul:	
  4802  0029                     verifierCRC@crc:	
  4803                           ; 1 bytes @ 0x9
  4804                           
  4805                           
  4806                           ; 3 bytes @ 0x9
  4807  0029                     	ds	3
  4808  002C                     verifierCRC@result:	
  4809  002C                     ___ftmul@exp:	
  4810                           ; 1 bytes @ 0xC
  4811                           
  4812                           
  4813                           ; 1 bytes @ 0xC
  4814  002C                     	ds	1
  4815  002D                     Processing_Temperature@temp:	
  4816  002D                     verifierCRC@i:	
  4817                           ; 1 bytes @ 0xD
  4818                           
  4819  002D                     ___ftmul@f3_as_product:	
  4820                           ; 1 bytes @ 0xD
  4821                           
  4822                           
  4823                           ; 3 bytes @ 0xD
  4824  002D                     	ds	1
  4825  002E                     ??_decode_trame_GPS:	
  4826  002E                     Processing_Temperature@actual_temp:	
  4827                           ; 1 bytes @ 0xE
  4828                           
  4829                           
  4830                           ; 1 bytes @ 0xE
  4831  002E                     	ds	2
  4832  0030                     ___ftmul@cntr:	
  4833                           
  4834                           ; 1 bytes @ 0x10
  4835  0030                     	ds	1
  4836  0031                     ___ftmul@sign:	
  4837                           
  4838                           ; 1 bytes @ 0x11
  4839  0031                     	ds	1
  4840  0032                     ?___ftdiv:	
  4841  0032                     ___ftdiv@f2:	
  4842                           ; 3 bytes @ 0x12
  4843                           
  4844                           
  4845                           ; 3 bytes @ 0x12
  4846  0032                     	ds	3
  4847  0035                     ___ftdiv@f1:	
  4848                           
  4849                           ; 3 bytes @ 0x15
  4850  0035                     	ds	3
  4851  0038                     ??___ftdiv:	
  4852  0038                     decode_trame_GPS@flagGPS:	
  4853                           ; 1 bytes @ 0x18
  4854                           
  4855                           
  4856                           ; 1 bytes @ 0x18
  4857  0038                     	ds	1
  4858  0039                     decode_trame_GPS@i:	
  4859                           
  4860                           ; 1 bytes @ 0x19
  4861  0039                     	ds	1
  4862  003A                     decode_trame_GPS@j:	
  4863                           
  4864                           ; 1 bytes @ 0x1A
  4865  003A                     	ds	1
  4866  003B                     decode_trame_GPS@k:	
  4867  003B                     ___ftdiv@cntr:	
  4868                           ; 1 bytes @ 0x1B
  4869                           
  4870                           
  4871                           ; 1 bytes @ 0x1B
  4872  003B                     	ds	1
  4873  003C                     decode_trame_GPS@caract:	
  4874  003C                     ___ftdiv@f3:	
  4875                           ; 1 bytes @ 0x1C
  4876                           
  4877                           
  4878                           ; 3 bytes @ 0x1C
  4879  003C                     	ds	3
  4880  003F                     ___ftdiv@exp:	
  4881                           
  4882                           ; 1 bytes @ 0x1F
  4883  003F                     	ds	1
  4884  0040                     ___ftdiv@sign:	
  4885                           
  4886                           ; 1 bytes @ 0x20
  4887  0040                     	ds	1
  4888  0041                     ?_Measure_Vdd_VSolar_VBackup:	
  4889  0041                     ?_strtod:	
  4890                           ; 1 bytes @ 0x21
  4891                           
  4892  0041                     ?___ftadd:	
  4893                           ; 3 bytes @ 0x21
  4894                           
  4895  0041                     Measure_Vdd_VSolar_VBackup@VSolar:	
  4896                           ; 3 bytes @ 0x21
  4897                           
  4898  0041                     strtod@s:	
  4899                           ; 1 bytes @ 0x21
  4900                           
  4901  0041                     ___ftadd@f1:	
  4902                           ; 2 bytes @ 0x21
  4903                           
  4904                           
  4905                           ; 3 bytes @ 0x21
  4906  0041                     	ds	1
  4907  0042                     Measure_Vdd_VSolar_VBackup@VBackup:	
  4908                           
  4909                           ; 1 bytes @ 0x22
  4910  0042                     	ds	1
  4911  0043                     Measure_Vdd_VSolar_VBackup@VBackup_min:	
  4912  0043                     strtod@res:	
  4913                           ; 1 bytes @ 0x23
  4914                           
  4915                           
  4916                           ; 1 bytes @ 0x23
  4917  0043                     	ds	1
  4918  0044                     Measure_Vdd_VSolar_VBackup@VBackup_max:	
  4919  0044                     strtod@eexp:	
  4920                           ; 1 bytes @ 0x24
  4921                           
  4922  0044                     ___ftadd@f2:	
  4923                           ; 1 bytes @ 0x24
  4924                           
  4925                           
  4926                           ; 3 bytes @ 0x24
  4927  0044                     	ds	1
  4928  0045                     ??_Measure_Vdd_VSolar_VBackup:	
  4929  0045                     strtod@flags:	
  4930                           ; 1 bytes @ 0x25
  4931                           
  4932                           
  4933                           ; 1 bytes @ 0x25
  4934  0045                     	ds	1
  4935  0046                     strtod@expon:	
  4936                           
  4937                           ; 1 bytes @ 0x26
  4938  0046                     	ds	1
  4939  0047                     ??___ftadd:	
  4940  0047                     strtod@_u:	
  4941                           ; 1 bytes @ 0x27
  4942                           
  4943                           
  4944                           ; 4 bytes @ 0x27
  4945  0047                     	ds	1
  4946  0048                     Measure_Vdd_VSolar_VBackup@ADC_data1:	
  4947                           
  4948                           ; 2 bytes @ 0x28
  4949  0048                     	ds	2
  4950  004A                     ___ftadd@sign:	
  4951  004A                     Measure_Vdd_VSolar_VBackup@ADC_data2:	
  4952                           ; 1 bytes @ 0x2A
  4953                           
  4954                           
  4955                           ; 2 bytes @ 0x2A
  4956  004A                     	ds	1
  4957  004B                     ?_atof:	
  4958  004B                     ___ftadd@exp2:	
  4959                           ; 3 bytes @ 0x2B
  4960                           
  4961  004B                     atof@s:	
  4962                           ; 1 bytes @ 0x2B
  4963                           
  4964                           
  4965                           ; 2 bytes @ 0x2B
  4966  004B                     	ds	1
  4967  004C                     ___ftadd@exp1:	
  4968  004C                     Measure_Vdd_VSolar_VBackup@ADC_data:	
  4969                           ; 1 bytes @ 0x2C
  4970                           
  4971                           
  4972                           ; 2 bytes @ 0x2C
  4973  004C                     	ds	1
  4974  004D                     ?___fttol:	
  4975  004D                     ___fttol@f1:	
  4976                           ; 4 bytes @ 0x2D
  4977                           
  4978                           
  4979                           ; 3 bytes @ 0x2D
  4980  004D                     	ds	1
  4981  004E                     ?_decodage_Lat_Long:	
  4982  004E                     ?_decodage_VTG:	
  4983                           ; 1 bytes @ 0x2E
  4984                           
  4985  004E                     Measure_Vdd_VSolar_VBackup@Vdd:	
  4986                           ; 1 bytes @ 0x2E
  4987                           
  4988  004E                     decodage_VTG@vitesse:	
  4989                           ; 1 bytes @ 0x2E
  4990                           
  4991  004E                     decodage_Lat_Long@Long:	
  4992                           ; 1 bytes @ 0x2E
  4993                           
  4994                           
  4995                           ; 1 bytes @ 0x2E
  4996  004E                     	ds	1
  4997  004F                     decodage_Lat_Long@dopBis:	
  4998                           
  4999                           ; 1 bytes @ 0x2F
  5000  004F                     	ds	1
  5001  0050                     ??_decodage_Lat_Long:	
  5002                           
  5003                           ; 1 bytes @ 0x30
  5004  0050                     	ds	1
  5005  0051                     ??___fttol:	
  5006                           
  5007                           ; 1 bytes @ 0x31
  5008  0051                     	ds	3
  5009  0054                     ___fttol@sign1:	
  5010  0054                     decodage_Lat_Long@dop_f:	
  5011                           ; 1 bytes @ 0x34
  5012                           
  5013                           
  5014                           ; 3 bytes @ 0x34
  5015  0054                     	ds	1
  5016  0055                     ___fttol@lval:	
  5017                           
  5018                           ; 4 bytes @ 0x35
  5019  0055                     	ds	2
  5020  0057                     decodage_Lat_Long@Lat:	
  5021                           
  5022                           ; 1 bytes @ 0x37
  5023  0057                     	ds	1
  5024  0058                     decodage_Lat_Long@Long_temp:	
  5025                           
  5026                           ; 4 bytes @ 0x38
  5027  0058                     	ds	1
  5028  0059                     ___fttol@exp1:	
  5029                           
  5030                           ; 1 bytes @ 0x39
  5031  0059                     	ds	1
  5032  005A                     ?_Envoi_message_Erreur:	
  5033  005A                     ?_Envoi_message_service:	
  5034                           ; 1 bytes @ 0x3A
  5035                           
  5036  005A                     ?_Envoi_message:	
  5037                           ; 1 bytes @ 0x3A
  5038                           
  5039  005A                     Envoi_message_service@actual_temp:	
  5040                           ; 1 bytes @ 0x3A
  5041                           
  5042  005A                     Envoi_message_Erreur@Vsolar:	
  5043                           ; 1 bytes @ 0x3A
  5044                           
  5045  005A                     Envoi_message@Longitude:	
  5046                           ; 2 bytes @ 0x3A
  5047                           
  5048                           
  5049                           ; 4 bytes @ 0x3A
  5050  005A                     	ds	1
  5051  005B                     Envoi_message_service@temp_min:	
  5052                           
  5053                           ; 1 bytes @ 0x3B
  5054  005B                     	ds	1
  5055  005C                     Envoi_message_service@temp_max:	
  5056  005C                     decodage_Lat_Long@Char_temp:	
  5057                           ; 1 bytes @ 0x3C
  5058                           
  5059  005C                     Envoi_message_Erreur@Vbackup:	
  5060                           ; 1 bytes @ 0x3C
  5061                           
  5062                           
  5063                           ; 2 bytes @ 0x3C
  5064  005C                     	ds	1
  5065  005D                     Envoi_message_service@temp_moy:	
  5066                           
  5067                           ; 1 bytes @ 0x3D
  5068  005D                     	ds	1
  5069  005E                     Envoi_message_Erreur@day_status:	
  5070  005E                     Envoi_message_service@sw_version:	
  5071                           ; 1 bytes @ 0x3E
  5072                           
  5073  005E                     Envoi_message@Latitude:	
  5074                           ; 1 bytes @ 0x3E
  5075                           
  5076                           
  5077                           ; 4 bytes @ 0x3E
  5078  005E                     	ds	1
  5079  005F                     Envoi_message_Erreur@raison:	
  5080  005F                     Envoi_message_service@VBackup_min:	
  5081                           ; 1 bytes @ 0x3F
  5082                           
  5083                           
  5084                           ; 1 bytes @ 0x3F
  5085  005F                     	ds	1
  5086  0060                     Envoi_message_service@VBackup_max:	
  5087                           
  5088                           ; 1 bytes @ 0x40
  5089  0060                     	ds	1
  5090  0061                     ??_Envoi_message_service:	
  5091                           
  5092                           ; 1 bytes @ 0x41
  5093  0061                     	ds	1
  5094  0062                     Envoi_message@dop:	
  5095                           
  5096                           ; 1 bytes @ 0x42
  5097  0062                     	ds	1
  5098  0063                     Envoi_message_service@i2:	
  5099  0063                     Envoi_message@Vsolar:	
  5100                           ; 1 bytes @ 0x43
  5101                           
  5102                           
  5103                           ; 2 bytes @ 0x43
  5104  0063                     	ds	1
  5105  0064                     Envoi_message_service@nb_slot_protec:	
  5106                           
  5107                           ; 1 bytes @ 0x44
  5108  0064                     	ds	1
  5109  0065                     Envoi_message_service@i:	
  5110  0065                     Envoi_message@Vbackup:	
  5111                           ; 1 bytes @ 0x45
  5112                           
  5113                           
  5114                           ; 2 bytes @ 0x45
  5115  0065                     	ds	2
  5116  0067                     Envoi_message@day_status:	
  5117                           
  5118                           ; 1 bytes @ 0x47
  5119  0067                     	ds	1
  5120  0068                     Envoi_message@timeout:	
  5121                           
  5122                           ; 1 bytes @ 0x48
  5123  0068                     	ds	1
  5124  0069                     Envoi_message@vitesse:	
  5125                           
  5126                           ; 1 bytes @ 0x49
  5127  0069                     	ds	1
  5128  006A                     Envoi_message@cap:	
  5129                           
  5130                           ; 1 bytes @ 0x4A
  5131  006A                     	ds	1
  5132  006B                     Envoi_message@i2:	
  5133                           
  5134                           ; 1 bytes @ 0x4B
  5135  006B                     	ds	1
  5136  006C                     Envoi_message@i:	
  5137                           
  5138                           ; 1 bytes @ 0x4C
  5139  006C                     	ds	1
  5140  006D                     _main$1277:	
  5141                           
  5142                           ; 2 bytes @ 0x4D
  5143  006D                     	ds	2
  5144  006F                     main@temp_char:	
  5145                           
  5146                           ; 1 bytes @ 0x4F
  5147  006F                     	ds	1
  5148                           
  5149                           	psect	text2
  5150  085C                     __ptext2:	
  5151 ;; *************** function _decode_trame_GPS *****************
  5152 ;; Defined at:
  5153 ;;		line 66 in file "../Sources/gps.c"
  5154 ;; Parameters:    Size  Location     Type
  5155 ;;		None
  5156 ;; Auto vars:     Size  Location     Type
  5157 ;;  caract          1   28[BANK0 ] unsigned char 
  5158 ;;  k               1   27[BANK0 ] unsigned char 
  5159 ;;  j               1   26[BANK0 ] unsigned char 
  5160 ;;  i               1   25[BANK0 ] unsigned char 
  5161 ;;  flagGPS         1   24[BANK0 ] unsigned char 
  5162 ;; Return value:  Size  Location     Type
  5163 ;;                  1    wreg      unsigned char 
  5164 ;; Registers used:
  5165 ;;		wreg, fsr0l, fsr0h, fsr1l, fsr1h, status,2, status,0, pclath, cstack
  5166 ;; Tracked objects:
  5167 ;;		On entry : 0/1
  5168 ;;		On exit  : 1F/0
  5169 ;;		Unchanged: 0/0
  5170 ;; Data sizes:     COMMON   BANK0   BANK1   BANK2   BANK3   BANK4   BANK5   BANK6   BANK7   BANK8   BANK9  BANK10  BANK1
      +1  BANK12
  5171 ;;      Params:         0       0       0       0       0       0       0       0       0       0       0       0       
      +0       0
  5172 ;;      Locals:         0       5       0       0       0       0       0       0       0       0       0       0       
      +0       0
  5173 ;;      Temps:          0      10       0       0       0       0       0       0       0       0       0       0       
      +0       0
  5174 ;;      Totals:         0      15       0       0       0       0       0       0       0       0       0       0       
      +0       0
  5175 ;;Total ram usage:       15 bytes
  5176 ;; Hardware stack levels used:    1
  5177 ;; Hardware stack levels required when called:    5
  5178 ;; This function calls:
  5179 ;;		___wmul
  5180 ;;		_chaine_Init
  5181 ;;		_strncmp
  5182 ;;		_verifierCRC
  5183 ;; This function is called by:
  5184 ;;		_main
  5185 ;; This function uses a non-reentrant model
  5186 ;;
  5187                           
  5188                           
  5189                           ;psect for function _decode_trame_GPS
  5190  085C                     _decode_trame_GPS:	
  5191                           
  5192                           ;gps.c: 70: unsigned char i, j, k;
  5193                           ;gps.c: 71: if(strncmp(chaine, "$GPGGA", 6) == 0){
  5194                           
  5195                           ;incstack = 0
  5196                           ; Regs used in _decode_trame_GPS: [wreg-fsr1h+status,2+status,0+pclath+cstack]
  5197  085C  30C8               	movlw	200
  5198  085D  00F2               	movwf	strncmp@s1
  5199  085E  3022               	movlw	34
  5200  085F  00F3               	movwf	strncmp@s1+1
  5201  0860  30E5               	movlw	low (STR_9| (0+32768))
  5202  0861  00F4               	movwf	strncmp@s2
  5203  0862  3098               	movlw	high (STR_9| (0+32768))
  5204  0863  224C  3188         	fcall	PL180	;call to abstracted procedure
  5205  0865  20E9  3188         	fcall	_strncmp
  5206  0867  0872               	movf	?_strncmp,w
  5207  0868  0473               	iorwf	?_strncmp+1,w
  5208                           
  5209                           ;gps.c: 72: if(verifierCRC(chaine)) {
  5210  0869  30C8               	movlw	200
  5211  086A  1D03               	btfss	3,2
  5212  086B  28AD               	goto	L13
  5213  086C  2251  3188         	fcall	PL186	;call to abstracted procedure
  5214  086E  2113  3188         	fcall	_verifierCRC
  5215  0870  3A00               	xorlw	0
  5216  0871  1903               	skipnz
  5217  0872  28E4               	goto	l6381
  5218                           
  5219                           ;gps.c: 74: for(i = 0, j = 0, k = 0; caract != '\n'; i++)
  5220  0873  01B9               	clrf	decode_trame_GPS@i
  5221  0874  01BA               	clrf	decode_trame_GPS@j
  5222  0875  01BB               	clrf	decode_trame_GPS@k
  5223  0876                     l6327:	
  5224                           
  5225                           ;gps.c: 75: {
  5226                           ;gps.c: 76: caract = chaine[i];
  5227                           
  5228                           ;gps.c: 77: if(caract == ',')
  5229  0876  221B  3188         	fcall	PL92	;call to abstracted procedure
  5230  0878  1D03               	btfss	3,2
  5231  0879  2886               	goto	l6337
  5232                           
  5233                           ;gps.c: 78: {
  5234                           ;gps.c: 79: champsTrameGPSGGA[j][k] = '\0';
  5235  087A  2225  3188         	fcall	PL94	;call to abstracted procedure
  5236  087C  268E  3188         	fcall	___wmul
  5237  087E  220E  3188         	fcall	PL64	;call to abstracted procedure
  5238  0880  0086               	movwf	6
  5239  0881  082F               	movf	??_decode_trame_GPS+1,w
  5240  0882  3D33               	addwfc	??_decode_trame_GPS+5,w
  5241                           
  5242                           ;gps.c: 80: j++;
  5243                           
  5244                           ;gps.c: 81: k = 0;
  5245  0883  2242  3188         	fcall	PL170	;call to abstracted procedure
  5246                           
  5247                           ;gps.c: 82: }
  5248  0885  2895               	goto	l6341
  5249  0886                     l6337:	
  5250                           
  5251                           ;gps.c: 83: else
  5252                           ;gps.c: 84: {
  5253                           ;gps.c: 85: champsTrameGPSGGA[j][k] = caract;
  5254  0886  2225  3188         	fcall	PL94	;call to abstracted procedure
  5255  0888  268E  3188         	fcall	___wmul
  5256  088A  220E  3188         	fcall	PL64	;call to abstracted procedure
  5257  088C  00B4               	movwf	??_decode_trame_GPS+6
  5258  088D  082F               	movf	??_decode_trame_GPS+1,w
  5259  088E  3D33               	addwfc	??_decode_trame_GPS+5,w
  5260  088F  00B5               	movwf	??_decode_trame_GPS+7
  5261  0890  0834               	movf	??_decode_trame_GPS+6,w
  5262  0891  0086               	movwf	6
  5263  0892  0835               	movf	??_decode_trame_GPS+7,w
  5264                           
  5265                           ;gps.c: 86: k++;
  5266  0893  2247  3188         	fcall	PL174	;call to abstracted procedure
  5267  0895                     l6341:	
  5268  0895  300A               	movlw	10
  5269  0896  0AB9               	incf	decode_trame_GPS@i,f
  5270  0897  063C               	xorwf	decode_trame_GPS@caract,w
  5271  0898  1D03               	btfss	3,2
  5272  0899  2876               	goto	l6327
  5273                           
  5274                           ;gps.c: 87: }
  5275                           ;gps.c: 88: }
  5276                           ;gps.c: 89: if(champsTrameGPSGGA[6][0] == '1' || champsTrameGPSGGA[6][0] == '2') {
  5277  089A  3050               	movlw	80
  5278  089B  0086               	movwf	6
  5279  089C  3022               	movlw	34
  5280  089D  0087               	movwf	7
  5281  089E  3031               	movlw	49
  5282  089F  0601               	xorwf	1,w
  5283  08A0  1903               	btfsc	3,2
  5284  08A1  28A8               	goto	l496
  5285  08A2  3050               	movlw	80
  5286  08A3  0086               	movwf	6
  5287  08A4  3032               	movlw	50
  5288  08A5  0601               	xorwf	1,w
  5289  08A6  1D03               	btfss	3,2
  5290  08A7  28AB               	goto	l6349
  5291  08A8                     l496:	
  5292                           
  5293                           ;gps.c: 90: flagGPS = 1;
  5294  08A8  01B8               	clrf	decode_trame_GPS@flagGPS
  5295  08A9  0AB8               	incf	decode_trame_GPS@flagGPS,f
  5296                           
  5297                           ;gps.c: 92: }
  5298  08AA  28E4               	goto	l6381
  5299  08AB                     l6349:	
  5300                           
  5301                           ;gps.c: 93: else flagGPS = 0;
  5302  08AB  01B8               	clrf	decode_trame_GPS@flagGPS
  5303  08AC  28E4               	goto	l6381
  5304  08AD                     L13:	
  5305                           ;gps.c: 96: else if(strncmp(chaine, "$GPVTG", 6) == 0){
  5306                           
  5307  08AD  00F2               	movwf	strncmp@s1
  5308  08AE  3022               	movlw	34
  5309  08AF  00F3               	movwf	strncmp@s1+1
  5310  08B0  30EC               	movlw	low (STR_10| (0+32768))
  5311  08B1  00F4               	movwf	strncmp@s2
  5312  08B2  3098               	movlw	high (STR_10| (0+32768))
  5313  08B3  224C  3188         	fcall	PL180	;call to abstracted procedure
  5314  08B5  20E9  3188         	fcall	_strncmp
  5315  08B7  0872               	movf	?_strncmp,w
  5316  08B8  0473               	iorwf	?_strncmp+1,w
  5317  08B9  1D03               	btfss	3,2
  5318  08BA  28E4               	goto	l6381
  5319                           
  5320                           ;gps.c: 97: if(verifierCRC(chaine)) {
  5321  08BB  30C8               	movlw	200
  5322  08BC  2251  3188         	fcall	PL186	;call to abstracted procedure
  5323  08BE  2113  3188         	fcall	_verifierCRC
  5324  08C0  3A00               	xorlw	0
  5325  08C1  1903               	skipnz
  5326  08C2  28E4               	goto	l6381
  5327                           
  5328                           ;gps.c: 99: for(i = 0, j = 0, k = 0; caract != '\n'; i++)
  5329  08C3  01B9               	clrf	decode_trame_GPS@i
  5330  08C4  01BA               	clrf	decode_trame_GPS@j
  5331  08C5  01BB               	clrf	decode_trame_GPS@k
  5332  08C6                     l6361:	
  5333                           
  5334                           ;gps.c: 100: {
  5335                           ;gps.c: 101: caract = chaine[i];
  5336                           
  5337                           ;gps.c: 102: if(caract == ',')
  5338  08C6  221B  3188         	fcall	PL92	;call to abstracted procedure
  5339  08C8  1D03               	btfss	3,2
  5340  08C9  28D2               	goto	l6371
  5341                           
  5342                           ;gps.c: 103: {
  5343                           ;gps.c: 104: champsTrameGPSVTG[j][k] = '\0';
  5344  08CA  21F5  3188         	fcall	PL28	;call to abstracted procedure
  5345  08CC  0086               	movwf	6
  5346  08CD  082F               	movf	??_decode_trame_GPS+1,w
  5347  08CE  3D35               	addwfc	??_decode_trame_GPS+7,w
  5348                           
  5349                           ;gps.c: 105: j++;
  5350                           
  5351                           ;gps.c: 106: k = 0;
  5352  08CF  2242  3188         	fcall	PL170	;call to abstracted procedure
  5353                           
  5354                           ;gps.c: 107: }
  5355  08D1  28DD               	goto	l6375
  5356  08D2                     l6371:	
  5357                           
  5358                           ;gps.c: 108: else
  5359                           ;gps.c: 109: {
  5360                           ;gps.c: 110: champsTrameGPSVTG[j][k] = caract;
  5361  08D2  21F5  3188         	fcall	PL28	;call to abstracted procedure
  5362  08D4  00B6               	movwf	??_decode_trame_GPS+8
  5363  08D5  082F               	movf	??_decode_trame_GPS+1,w
  5364  08D6  3D35               	addwfc	??_decode_trame_GPS+7,w
  5365  08D7  00B7               	movwf	??_decode_trame_GPS+9
  5366  08D8  0836               	movf	??_decode_trame_GPS+8,w
  5367  08D9  0086               	movwf	6
  5368  08DA  0837               	movf	??_decode_trame_GPS+9,w
  5369                           
  5370                           ;gps.c: 111: k++;
  5371  08DB  2247  3188         	fcall	PL174	;call to abstracted procedure
  5372  08DD                     l6375:	
  5373  08DD  300A               	movlw	10
  5374  08DE  0AB9               	incf	decode_trame_GPS@i,f
  5375  08DF  063C               	xorwf	decode_trame_GPS@caract,w
  5376  08E0  1D03               	btfss	3,2
  5377  08E1  28C6               	goto	l6361
  5378                           
  5379                           ;gps.c: 112: }
  5380                           ;gps.c: 113: }
  5381                           ;gps.c: 114: flagGPS = 2;
  5382  08E2  3002               	movlw	2
  5383  08E3  00B8               	movwf	decode_trame_GPS@flagGPS
  5384  08E4                     l6381:	
  5385                           
  5386                           ;gps.c: 115: }
  5387                           ;gps.c: 116: }
  5388                           ;gps.c: 117: chaine_Init();
  5389  08E4  3185  259A         	fcall	_chaine_Init
  5390                           
  5391                           ;gps.c: 119: return flagGPS;
  5392  08E6  0020               	movlb	0	; select bank0
  5393  08E7  0838               	movf	decode_trame_GPS@flagGPS,w
  5394  08E8  0008               	return
  5395  08E9                     __end_of_decode_trame_GPS:	
  5396  08E9                     __ptext8:	
  5397 ;; *************** function _strncmp *****************
  5398 ;; Defined at:
  5399 ;;		line 4 in file "C:\Program Files (x86)\Microchip\xc8\v1.44\sources\common\strncmp.c"
  5400 ;; Parameters:    Size  Location     Type
  5401 ;;  s1              2    2[COMMON] PTR const unsigned char 
  5402 ;;		 -> chaine(100), 
  5403 ;;  s2              2    4[COMMON] PTR const unsigned char 
  5404 ;;		 -> STR_10(7), STR_9(7), STR_4(3), 
  5405 ;;  len             2    6[COMMON] unsigned int 
  5406 ;; Auto vars:     Size  Location     Type
  5407 ;;		None
  5408 ;; Return value:  Size  Location     Type
  5409 ;;                  2    2[COMMON] int 
  5410 ;; Registers used:
  5411 ;;		wreg, fsr0l, fsr0h, fsr1l, fsr1h, status,2, status,0, pclath
  5412 ;; Tracked objects:
  5413 ;;		On entry : 0/1
  5414 ;;		On exit  : 0/0
  5415 ;;		Unchanged: 0/0
  5416 ;; Data sizes:     COMMON   BANK0   BANK1   BANK2   BANK3   BANK4   BANK5   BANK6   BANK7   BANK8   BANK9  BANK10  BANK1
      +1  BANK12
  5417 ;;      Params:         6       0       0       0       0       0       0       0       0       0       0       0       
      +0       0
  5418 ;;      Locals:         0       0       0       0       0       0       0       0       0       0       0       0       
      +0       0
  5419 ;;      Temps:          1       0       0       0       0       0       0       0       0       0       0       0       
      +0       0
  5420 ;;      Totals:         7       0       0       0       0       0       0       0       0       0       0       0       
      +0       0
  5421 ;;Total ram usage:        7 bytes
  5422 ;; Hardware stack levels used:    1
  5423 ;; Hardware stack levels required when called:    1
  5424 ;; This function calls:
  5425 ;;		Nothing
  5426 ;; This function is called by:
  5427 ;;		_decode_trame_GPS
  5428 ;; This function uses a non-reentrant model
  5429 ;;
  5430                           
  5431                           
  5432                           ;psect for function _strncmp
  5433  08E9                     _strncmp:	
  5434  08E9                     l5845:	
  5435                           ;incstack = 0
  5436                           ; Regs used in _strncmp: [wreg-fsr1h+status,2+status,0+pclath]
  5437                           
  5438  08E9  3001               	movlw	1
  5439  08EA  02F6               	subwf	strncmp@len,f
  5440  08EB  3000               	movlw	0
  5441  08EC  3BF7               	subwfb	strncmp@len+1,f
  5442  08ED  0F76               	incfsz	strncmp@len,w
  5443  08EE  28F2               	goto	l5835
  5444  08EF  0A77               	incf	strncmp@len+1,w
  5445  08F0  1903               	btfsc	3,2
  5446  08F1  2910               	goto	l5847
  5447  08F2                     l5835:	
  5448  08F2  223C  3188         	fcall	PL164	;call to abstracted procedure
  5449  08F4  1903               	btfsc	3,2
  5450  08F5  28FE               	goto	l5839
  5451  08F6  2236  3188         	fcall	PL154	;call to abstracted procedure
  5452  08F8  00F8               	movwf	??_strncmp
  5453  08F9  223C  3188         	fcall	PL164	;call to abstracted procedure
  5454  08FB  0678               	xorwf	??_strncmp,w
  5455  08FC  1903               	skipnz
  5456  08FD  2909               	goto	l5843
  5457  08FE                     l5839:	
  5458  08FE  0872               	movf	strncmp@s1,w
  5459  08FF  0086               	movwf	6
  5460  0900  0873               	movf	strncmp@s1+1,w
  5461  0901  0087               	movwf	7
  5462  0902  2236               	fcall	PL154	;call to abstracted procedure
  5463  0903  0201               	subwf	1,w
  5464  0904  00F2               	movwf	?_strncmp
  5465  0905  01F3               	clrf	?_strncmp+1
  5466  0906  1C03               	skipc
  5467  0907  03F3               	decf	?_strncmp+1,f
  5468  0908  0008               	return
  5469  0909                     l5843:	
  5470  0909  0AF2               	incf	strncmp@s1,f
  5471  090A  1903               	skipnz
  5472  090B  0AF3               	incf	strncmp@s1+1,f
  5473  090C  0AF4               	incf	strncmp@s2,f
  5474  090D  1903               	skipnz
  5475  090E  0AF5               	incf	strncmp@s2+1,f
  5476  090F  28E9               	goto	l5845
  5477  0910                     l5847:	
  5478  0910  01F2               	clrf	?_strncmp
  5479  0911  01F3               	clrf	?_strncmp+1
  5480  0912  0008               	return
  5481  0913                     __end_of_strncmp:	
  5482  0913                     __ptext3:	
  5483 ;; *************** function _verifierCRC *****************
  5484 ;; Defined at:
  5485 ;;		line 122 in file "../Sources/gps.c"
  5486 ;; Parameters:    Size  Location     Type
  5487 ;;  trameGPS        2    5[BANK0 ] PTR unsigned char 
  5488 ;;		 -> chaine(100), 
  5489 ;; Auto vars:     Size  Location     Type
  5490 ;;  crc             3    9[BANK0 ] unsigned char [3]
  5491 ;;  i               1   13[BANK0 ] unsigned char 
  5492 ;;  result          1   12[BANK0 ] unsigned char 
  5493 ;; Return value:  Size  Location     Type
  5494 ;;                  1    wreg      unsigned char 
  5495 ;; Registers used:
  5496 ;;		wreg, fsr1l, fsr1h, status,2, status,0, pclath, cstack
  5497 ;; Tracked objects:
  5498 ;;		On entry : 1F/0
  5499 ;;		On exit  : 1F/0
  5500 ;;		Unchanged: 0/0
  5501 ;; Data sizes:     COMMON   BANK0   BANK1   BANK2   BANK3   BANK4   BANK5   BANK6   BANK7   BANK8   BANK9  BANK10  BANK1
      +1  BANK12
  5502 ;;      Params:         0       2       0       0       0       0       0       0       0       0       0       0       
      +0       0
  5503 ;;      Locals:         0       5       0       0       0       0       0       0       0       0       0       0       
      +0       0
  5504 ;;      Temps:          0       2       0       0       0       0       0       0       0       0       0       0       
      +0       0
  5505 ;;      Totals:         0       9       0       0       0       0       0       0       0       0       0       0       
      +0       0
  5506 ;;Total ram usage:        9 bytes
  5507 ;; Hardware stack levels used:    1
  5508 ;; Hardware stack levels required when called:    4
  5509 ;; This function calls:
  5510 ;;		_xtoi
  5511 ;; This function is called by:
  5512 ;;		_decode_trame_GPS
  5513 ;; This function uses a non-reentrant model
  5514 ;;
  5515                           
  5516                           
  5517                           ;psect for function _verifierCRC
  5518  0913                     _verifierCRC:	
  5519                           
  5520                           ;gps.c: 124: if(trameGPS[0] == '$' && trameGPS[1] != '\0')
  5521                           
  5522                           ;incstack = 0
  5523                           ; Regs used in _verifierCRC: [wreg+fsr1l+fsr1h+status,2+status,0+pclath+cstack]
  5524  0913  0825               	movf	verifierCRC@trameGPS,w
  5525  0914  0086               	movwf	6
  5526  0915  0826               	movf	verifierCRC@trameGPS+1,w
  5527  0916  0087               	movwf	7
  5528  0917  3024               	movlw	36
  5529  0918  0601               	xorwf	1,w
  5530  0919  1D03               	btfss	3,2
  5531  091A  3400               	retlw	0
  5532  091B  222F  3188         	fcall	PL132	;call to abstracted procedure
  5533  091D  1903               	btfsc	3,2
  5534  091E  3400               	retlw	0
  5535                           
  5536                           ;gps.c: 125: {
  5537                           ;gps.c: 126: unsigned char i;
  5538                           ;gps.c: 127: unsigned char result;
  5539                           ;gps.c: 129: for(i = 2, result = trameGPS[1]; trameGPS[i] != '*' && trameGPS[i] != '\0';
      +                           i++) result ^= trameGPS[i];
  5540  091F  3002               	movlw	2
  5541  0920  00AD               	movwf	verifierCRC@i
  5542  0921  222F  3188         	fcall	PL132	;call to abstracted procedure
  5543  0923  00AC               	movwf	verifierCRC@result
  5544  0924  292F               	goto	l5863
  5545  0925                     l5865:	
  5546  0925  21EC  3188         	fcall	PL22	;call to abstracted procedure
  5547  0927  0801               	movf	1,w
  5548  0928  1903               	btfsc	3,2
  5549  0929  2935               	goto	l5867
  5550  092A  21EC  3188         	fcall	PL22	;call to abstracted procedure
  5551  092C  0801               	movf	1,w
  5552  092D  06AC               	xorwf	verifierCRC@result,f
  5553  092E  0AAD               	incf	verifierCRC@i,f
  5554  092F                     l5863:	
  5555  092F  21EC  3188         	fcall	PL22	;call to abstracted procedure
  5556  0931  302A               	movlw	42
  5557  0932  0601               	xorwf	1,w
  5558  0933  1D03               	btfss	3,2
  5559  0934  2925               	goto	l5865
  5560  0935                     l5867:	
  5561                           
  5562                           ;gps.c: 130: unsigned char crc[3];
  5563                           ;gps.c: 131: i++;
  5564  0935  0AAD               	incf	verifierCRC@i,f
  5565                           
  5566                           ;gps.c: 132: if(trameGPS[i] != '\r' && trameGPS[i] != '\0') crc[0] = trameGPS[i];
  5567  0936  21EC  3188         	fcall	PL22	;call to abstracted procedure
  5568  0938  300D               	movlw	13
  5569  0939  0601               	xorwf	1,w
  5570  093A  1903               	btfsc	3,2
  5571  093B  2945               	goto	l5875
  5572  093C  21EC  3188         	fcall	PL22	;call to abstracted procedure
  5573  093E  0801               	movf	1,w
  5574  093F  1903               	btfsc	3,2
  5575  0940  2945               	goto	l5875
  5576  0941  21EC  3188         	fcall	PL22	;call to abstracted procedure
  5577  0943  0801               	movf	1,w
  5578  0944  00A9               	movwf	verifierCRC@crc
  5579  0945                     l5875:	
  5580                           
  5581                           ;gps.c: 133: i++;
  5582  0945  0AAD               	incf	verifierCRC@i,f
  5583                           
  5584                           ;gps.c: 134: if(trameGPS[i] != '\r' && trameGPS[i] != '\0')crc[1] = trameGPS[i];
  5585  0946  21EC  3188         	fcall	PL22	;call to abstracted procedure
  5586  0948  300D               	movlw	13
  5587  0949  0601               	xorwf	1,w
  5588  094A  1903               	btfsc	3,2
  5589  094B  2955               	goto	l5883
  5590  094C  21EC  3188         	fcall	PL22	;call to abstracted procedure
  5591  094E  0801               	movf	1,w
  5592  094F  1903               	btfsc	3,2
  5593  0950  2955               	goto	l5883
  5594  0951  21EC  3188         	fcall	PL22	;call to abstracted procedure
  5595  0953  0801               	movf	1,w
  5596  0954  00AA               	movwf	verifierCRC@crc+1
  5597  0955                     l5883:	
  5598  0955  3029               	movlw	(low (verifierCRC@crc| 0))& (0+255)
  5599                           
  5600                           ;gps.c: 135: crc[2] = '\0';
  5601  0956  01AB               	clrf	verifierCRC@crc+2
  5602                           
  5603                           ;gps.c: 137: if(result == (unsigned char)xtoi(crc)) return 1;
  5604  0957  215E  3188         	fcall	_xtoi
  5605  0959  0876               	movf	?_xtoi,w
  5606  095A  062C               	xorwf	verifierCRC@result,w
  5607  095B  1903               	btfsc	3,2
  5608  095C  3401               	retlw	1
  5609                           
  5610                           ;gps.c: 138: }
  5611                           ;gps.c: 139: return 0;
  5612  095D  3400               	retlw	0
  5613  095E                     __end_of_verifierCRC:	
  5614  095E                     __ptext4:	
  5615 ;; *************** function _xtoi *****************
  5616 ;; Defined at:
  5617 ;;		line 5 in file "C:\Program Files (x86)\Microchip\xc8\v1.44\sources\common\xtoi.c"
  5618 ;; Parameters:    Size  Location     Type
  5619 ;;  s               1    wreg     PTR const unsigned char 
  5620 ;;		 -> verifierCRC@crc(3), 
  5621 ;; Auto vars:     Size  Location     Type
  5622 ;;  s               1    3[BANK0 ] PTR const unsigned char 
  5623 ;;		 -> verifierCRC@crc(3), 
  5624 ;;  val             2    1[BANK0 ] unsigned int 
  5625 ;;  c               1    4[BANK0 ] unsigned char 
  5626 ;;  sign            1    0[BANK0 ] unsigned char 
  5627 ;; Return value:  Size  Location     Type
  5628 ;;                  2    6[COMMON] unsigned int 
  5629 ;; Registers used:
  5630 ;;		wreg, fsr1l, fsr1h, status,2, status,0, pclath, cstack
  5631 ;; Tracked objects:
  5632 ;;		On entry : 1F/0
  5633 ;;		On exit  : 1F/0
  5634 ;;		Unchanged: 0/0
  5635 ;; Data sizes:     COMMON   BANK0   BANK1   BANK2   BANK3   BANK4   BANK5   BANK6   BANK7   BANK8   BANK9  BANK10  BANK1
      +1  BANK12
  5636 ;;      Params:         2       0       0       0       0       0       0       0       0       0       0       0       
      +0       0
  5637 ;;      Locals:         0       5       0       0       0       0       0       0       0       0       0       0       
      +0       0
  5638 ;;      Temps:          2       0       0       0       0       0       0       0       0       0       0       0       
      +0       0
  5639 ;;      Totals:         4       5       0       0       0       0       0       0       0       0       0       0       
      +0       0
  5640 ;;Total ram usage:        9 bytes
  5641 ;; Hardware stack levels used:    1
  5642 ;; Hardware stack levels required when called:    3
  5643 ;; This function calls:
  5644 ;;		_isdigit
  5645 ;;		_isspace
  5646 ;;		_isupper
  5647 ;;		_isxdigit
  5648 ;;		_tolower
  5649 ;; This function is called by:
  5650 ;;		_verifierCRC
  5651 ;; This function uses a non-reentrant model
  5652 ;;
  5653                           
  5654                           
  5655                           ;psect for function _xtoi
  5656  095E                     _xtoi:	
  5657                           
  5658                           ;incstack = 0
  5659                           ; Regs used in _xtoi: [wreg+fsr1l+fsr1h+status,2+status,0+pclath+cstack]
  5660                           ;xtoi@s stored from wreg
  5661  095E  00A3               	movwf	xtoi@s
  5662  095F  01A0               	clrf	xtoi@sign
  5663  0960  01A1               	clrf	xtoi@val
  5664  0961  01A2               	clrf	xtoi@val+1
  5665  0962                     l5517:	
  5666  0962  0823               	movf	xtoi@s,w
  5667  0963  0086               	movwf	6
  5668  0964  0187               	clrf	7
  5669  0965  0801               	movf	1,w
  5670  0966  2457  3188         	fcall	_isspace
  5671  0968  1C03               	btfss	3,0
  5672  0969  296C               	goto	l5519
  5673  096A  0AA3               	incf	xtoi@s,f
  5674  096B  2962               	goto	l5517
  5675  096C                     l5519:	
  5676  096C  0823               	movf	xtoi@s,w
  5677  096D  0086               	movwf	6
  5678  096E  302D               	movlw	45
  5679  096F  0187               	clrf	7
  5680  0970  0601               	xorwf	1,w
  5681  0971  1D03               	btfss	3,2
  5682  0972  2975               	goto	l5523
  5683  0973  0AA0               	incf	xtoi@sign,f
  5684  0974  297B               	goto	l5525
  5685  0975                     l5523:	
  5686  0975  0823               	movf	xtoi@s,w
  5687  0976  0086               	movwf	6
  5688  0977  302B               	movlw	43
  5689  0978  0187               	clrf	7
  5690  0979  0601               	xorwf	1,w
  5691  097A  1903               	btfsc	3,2
  5692  097B                     l5525:	
  5693  097B  0AA3               	incf	xtoi@s,f
  5694  097C                     l5541:	
  5695  097C  0823               	movf	xtoi@s,w
  5696  097D  0086               	movwf	6
  5697  097E  0187               	clrf	7
  5698  097F  0AA3               	incf	xtoi@s,f
  5699  0980  0801               	movf	1,w
  5700  0981  00A4               	movwf	xtoi@c
  5701  0982  21C7  3188         	fcall	_isxdigit
  5702  0984  1C03               	btfss	3,0
  5703  0985  29A5               	goto	l5543
  5704  0986  0824               	movf	xtoi@c,w
  5705  0987  21B9  3188         	fcall	_isupper
  5706  0989  0824               	movf	xtoi@c,w
  5707  098A  1C03               	btfss	3,0
  5708  098B  298F               	goto	L15
  5709  098C  21E0  3188         	fcall	_tolower
  5710  098E  00A4               	movwf	xtoi@c
  5711  098F                     L15:	
  5712  098F  241A  3188         	fcall	_isdigit
  5713  0991  1C03               	btfss	3,0
  5714  0992  2995               	goto	l5535
  5715  0993  3030               	movlw	48
  5716  0994  2996               	goto	L14
  5717  0995                     l5535:	
  5718  0995  3057               	movlw	87
  5719  0996                     L14:	
  5720  0996  02A4               	subwf	xtoi@c,f
  5721  0997  30F0               	movlw	240
  5722  0998  0EA1               	swapf	xtoi@val,f
  5723  0999  0EA2               	swapf	xtoi@val+1,f
  5724  099A  05A2               	andwf	xtoi@val+1,f
  5725  099B  0821               	movf	xtoi@val,w
  5726  099C  390F               	andlw	15
  5727  099D  04A2               	iorwf	xtoi@val+1,f
  5728  099E  30F0               	movlw	240
  5729  099F  05A1               	andwf	xtoi@val,f
  5730  09A0  0824               	movf	xtoi@c,w
  5731  09A1  07A1               	addwf	xtoi@val,f
  5732  09A2  1803               	skipnc
  5733  09A3  0AA2               	incf	xtoi@val+1,f
  5734  09A4  297C               	goto	l5541
  5735  09A5                     l5543:	
  5736  09A5  0820               	movf	xtoi@sign,w
  5737  09A6  1903               	btfsc	3,2
  5738  09A7  29B4               	goto	l5549
  5739  09A8  0921               	comf	xtoi@val,w
  5740  09A9  00F8               	movwf	??_xtoi
  5741  09AA  0922               	comf	xtoi@val+1,w
  5742  09AB  00F9               	movwf	??_xtoi+1
  5743  09AC  0AF8               	incf	??_xtoi,f
  5744  09AD  1903               	skipnz
  5745  09AE  0AF9               	incf	??_xtoi+1,f
  5746  09AF  0878               	movf	??_xtoi,w
  5747  09B0  00F6               	movwf	?_xtoi
  5748  09B1  0879               	movf	??_xtoi+1,w
  5749  09B2  00F7               	movwf	?_xtoi+1
  5750  09B3  0008               	return
  5751  09B4                     l5549:	
  5752  09B4  0822               	movf	xtoi@val+1,w
  5753  09B5  00F7               	movwf	?_xtoi+1
  5754  09B6  0821               	movf	xtoi@val,w
  5755  09B7  00F6               	movwf	?_xtoi
  5756  09B8  0008               	return
  5757  09B9                     __end_of_xtoi:	
  5758  09B9                     __ptext7:	
  5759 ;; *************** function _isupper *****************
  5760 ;; Defined at:
  5761 ;;		line 8 in file "C:\Program Files (x86)\Microchip\xc8\v1.44\sources\common\isupper.c"
  5762 ;; Parameters:    Size  Location     Type
  5763 ;;  c               1    wreg     unsigned char 
  5764 ;; Auto vars:     Size  Location     Type
  5765 ;;  c               1    3[COMMON] unsigned char 
  5766 ;; Return value:  Size  Location     Type
  5767 ;;		None               void
  5768 ;; Registers used:
  5769 ;;		wreg, status,2, status,0
  5770 ;; Tracked objects:
  5771 ;;		On entry : 1F/0
  5772 ;;		On exit  : 1F/0
  5773 ;;		Unchanged: 1F/0
  5774 ;; Data sizes:     COMMON   BANK0   BANK1   BANK2   BANK3   BANK4   BANK5   BANK6   BANK7   BANK8   BANK9  BANK10  BANK1
      +1  BANK12
  5775 ;;      Params:         0       0       0       0       0       0       0       0       0       0       0       0       
      +0       0
  5776 ;;      Locals:         2       0       0       0       0       0       0       0       0       0       0       0       
      +0       0
  5777 ;;      Temps:          0       0       0       0       0       0       0       0       0       0       0       0       
      +0       0
  5778 ;;      Totals:         2       0       0       0       0       0       0       0       0       0       0       0       
      +0       0
  5779 ;;Total ram usage:        2 bytes
  5780 ;; Hardware stack levels used:    1
  5781 ;; Hardware stack levels required when called:    1
  5782 ;; This function calls:
  5783 ;;		Nothing
  5784 ;; This function is called by:
  5785 ;;		_xtoi
  5786 ;; This function uses a non-reentrant model
  5787 ;;
  5788                           
  5789                           
  5790                           ;psect for function _isupper
  5791  09B9                     _isupper:	
  5792                           
  5793                           ;incstack = 0
  5794                           ; Regs used in _isupper: [wreg+status,2+status,0]
  5795                           ;isupper@c stored from wreg
  5796  09B9  00F3               	movwf	isupper@c
  5797  09BA  305B               	movlw	91
  5798  09BB  01F2               	clrf	_isupper$1084
  5799  09BC  0273               	subwf	isupper@c,w
  5800  09BD  1803               	skipnc
  5801  09BE  29C5               	goto	l5403
  5802  09BF  3041               	movlw	65
  5803  09C0  0273               	subwf	isupper@c,w
  5804  09C1  1C03               	skipc
  5805  09C2  29C5               	goto	l5403
  5806  09C3  01F2               	clrf	_isupper$1084
  5807  09C4  0AF2               	incf	_isupper$1084,f
  5808  09C5                     l5403:	
  5809  09C5  0C72               	rrf	_isupper$1084,w
  5810  09C6  0008               	return
  5811  09C7                     __end_of_isupper:	
  5812  09C7                     __ptext6:	
  5813 ;; *************** function _isxdigit *****************
  5814 ;; Defined at:
  5815 ;;		line 8 in file "C:\Program Files (x86)\Microchip\xc8\v1.44\sources\common\isxdigit.c"
  5816 ;; Parameters:    Size  Location     Type
  5817 ;;  c               1    wreg     unsigned char 
  5818 ;; Auto vars:     Size  Location     Type
  5819 ;;  c               1    5[COMMON] unsigned char 
  5820 ;; Return value:  Size  Location     Type
  5821 ;;		None               void
  5822 ;; Registers used:
  5823 ;;		wreg, status,2, status,0, pclath, cstack
  5824 ;; Tracked objects:
  5825 ;;		On entry : 1F/0
  5826 ;;		On exit  : 1F/0
  5827 ;;		Unchanged: 1F/0
  5828 ;; Data sizes:     COMMON   BANK0   BANK1   BANK2   BANK3   BANK4   BANK5   BANK6   BANK7   BANK8   BANK9  BANK10  BANK1
      +1  BANK12
  5829 ;;      Params:         0       0       0       0       0       0       0       0       0       0       0       0       
      +0       0
  5830 ;;      Locals:         2       0       0       0       0       0       0       0       0       0       0       0       
      +0       0
  5831 ;;      Temps:          0       0       0       0       0       0       0       0       0       0       0       0       
      +0       0
  5832 ;;      Totals:         2       0       0       0       0       0       0       0       0       0       0       0       
      +0       0
  5833 ;;Total ram usage:        2 bytes
  5834 ;; Hardware stack levels used:    1
  5835 ;; Hardware stack levels required when called:    2
  5836 ;; This function calls:
  5837 ;;		_isdigit
  5838 ;; This function is called by:
  5839 ;;		_xtoi
  5840 ;; This function uses a non-reentrant model
  5841 ;;
  5842                           
  5843                           
  5844                           ;psect for function _isxdigit
  5845  09C7                     _isxdigit:	
  5846                           
  5847                           ;incstack = 0
  5848                           ; Regs used in _isxdigit: [wreg+status,2+status,0+pclath+cstack]
  5849                           ;isxdigit@c stored from wreg
  5850  09C7  00F5               	movwf	isxdigit@c
  5851  09C8  3067               	movlw	103
  5852  09C9  01F4               	clrf	_isxdigit$1088
  5853  09CA  0AF4               	incf	_isxdigit$1088,f
  5854  09CB  0275               	subwf	isxdigit@c,w
  5855  09CC  1803               	skipnc
  5856  09CD  29D2               	goto	l5423
  5857  09CE  3061               	movlw	97
  5858  09CF  0275               	subwf	isxdigit@c,w
  5859  09D0  1803               	skipnc
  5860  09D1  29DE               	goto	l5431
  5861  09D2                     l5423:	
  5862  09D2  3047               	movlw	71
  5863  09D3  0275               	subwf	isxdigit@c,w
  5864  09D4  1803               	skipnc
  5865  09D5  29DA               	goto	l5427
  5866  09D6  3041               	movlw	65
  5867  09D7  0275               	subwf	isxdigit@c,w
  5868  09D8  1803               	skipnc
  5869  09D9  29DE               	goto	l5431
  5870  09DA                     l5427:	
  5871  09DA  0875               	movf	isxdigit@c,w
  5872  09DB  241A               	fcall	_isdigit
  5873  09DC  1C03               	btfss	3,0
  5874  09DD  01F4               	clrf	_isxdigit$1088
  5875  09DE                     l5431:	
  5876  09DE  0C74               	rrf	_isxdigit$1088,w
  5877  09DF  0008               	return
  5878  09E0                     __end_of_isxdigit:	
  5879  09E0                     __ptext5:	
  5880 ;; *************** function _tolower *****************
  5881 ;; Defined at:
  5882 ;;		line 5 in file "C:\Program Files (x86)\Microchip\xc8\v1.44\sources\common\tolower.c"
  5883 ;; Parameters:    Size  Location     Type
  5884 ;;  c               1    wreg     unsigned char 
  5885 ;; Auto vars:     Size  Location     Type
  5886 ;;  c               1    2[COMMON] unsigned char 
  5887 ;; Return value:  Size  Location     Type
  5888 ;;                  1    wreg      unsigned char 
  5889 ;; Registers used:
  5890 ;;		wreg
  5891 ;; Tracked objects:
  5892 ;;		On entry : 1F/0
  5893 ;;		On exit  : 1F/0
  5894 ;;		Unchanged: 1F/0
  5895 ;; Data sizes:     COMMON   BANK0   BANK1   BANK2   BANK3   BANK4   BANK5   BANK6   BANK7   BANK8   BANK9  BANK10  BANK1
      +1  BANK12
  5896 ;;      Params:         0       0       0       0       0       0       0       0       0       0       0       0       
      +0       0
  5897 ;;      Locals:         1       0       0       0       0       0       0       0       0       0       0       0       
      +0       0
  5898 ;;      Temps:          0       0       0       0       0       0       0       0       0       0       0       0       
      +0       0
  5899 ;;      Totals:         1       0       0       0       0       0       0       0       0       0       0       0       
      +0       0
  5900 ;;Total ram usage:        1 bytes
  5901 ;; Hardware stack levels used:    1
  5902 ;; Hardware stack levels required when called:    1
  5903 ;; This function calls:
  5904 ;;		Nothing
  5905 ;; This function is called by:
  5906 ;;		_xtoi
  5907 ;; This function uses a non-reentrant model
  5908 ;;
  5909                           
  5910                           
  5911                           ;psect for function _tolower
  5912  09E0                     _tolower:	
  5913                           
  5914                           ;incstack = 0
  5915                           ; Regs used in _tolower: [wreg]
  5916                           ;tolower@c stored from wreg
  5917  09E0  00F2               	movwf	tolower@c
  5918  09E1  305B               	movlw	91
  5919  09E2  0272               	subwf	tolower@c,w
  5920  09E3  1803               	skipnc
  5921  09E4  29EA               	goto	l5413
  5922  09E5  3041               	movlw	65
  5923  09E6  0272               	subwf	tolower@c,w
  5924  09E7  1C03               	skipc
  5925  09E8  29EA               	goto	l5413
  5926  09E9  16F2               	bsf	tolower@c,5
  5927  09EA                     l5413:	
  5928  09EA  0872               	movf	tolower@c,w
  5929  09EB  0008               	return
  5930  09EC                     __end_of_tolower:	
  5931  09EC                     PL22:	
  5932  09EC  082D               	movf	verifierCRC@i,w
  5933  09ED  00A7               	movwf	??_verifierCRC
  5934  09EE  01A8               	clrf	??_verifierCRC+1
  5935  09EF  0725               	addwf	verifierCRC@trameGPS,w
  5936  09F0  0086               	movwf	6
  5937  09F1  0828               	movf	??_verifierCRC+1,w
  5938  09F2  3D26               	addwfc	verifierCRC@trameGPS+1,w
  5939  09F3  0087               	movwf	7
  5940  09F4  0008               	return
  5941  09F5                     __end_ofPL22:	
  5942  09F5                     PL28:	
  5943  09F5  083B               	movf	decode_trame_GPS@k,w
  5944  09F6  00AE               	movwf	??_decode_trame_GPS
  5945  09F7  01AF               	clrf	??_decode_trame_GPS+1
  5946  09F8  083A               	movf	decode_trame_GPS@j,w
  5947  09F9  00B0               	movwf	??_decode_trame_GPS+2
  5948  09FA  3090               	movlw	144
  5949  09FB  01B1               	clrf	??_decode_trame_GPS+3
  5950  09FC  35B0               	lslf	??_decode_trame_GPS+2,f
  5951  09FD  0DB1               	rlf	??_decode_trame_GPS+3,f
  5952  09FE  35B0               	lslf	??_decode_trame_GPS+2,f
  5953  09FF  0DB1               	rlf	??_decode_trame_GPS+3,f
  5954  0A00  35B0               	lslf	??_decode_trame_GPS+2,f
  5955  0A01  0DB1               	rlf	??_decode_trame_GPS+3,f
  5956  0A02  00B2               	movwf	??_decode_trame_GPS+4
  5957  0A03  3023               	movlw	35
  5958  0A04  00B3               	movwf	??_decode_trame_GPS+5
  5959  0A05  0830               	movf	??_decode_trame_GPS+2,w
  5960  0A06  0732               	addwf	??_decode_trame_GPS+4,w
  5961  0A07  00B4               	movwf	??_decode_trame_GPS+6
  5962  0A08  0831               	movf	??_decode_trame_GPS+3,w
  5963  0A09  3D33               	addwfc	??_decode_trame_GPS+5,w
  5964  0A0A  00B5               	movwf	??_decode_trame_GPS+7
  5965  0A0B  082E               	movf	??_decode_trame_GPS,w
  5966  0A0C  0734               	addwf	??_decode_trame_GPS+6,w
  5967  0A0D  0008               	return
  5968  0A0E                     __end_ofPL28:	
  5969  0A0E                     PL64:	
  5970  0A0E  3008               	movlw	8
  5971  0A0F  00B0               	movwf	??_decode_trame_GPS+2
  5972  0A10  3022               	movlw	34
  5973  0A11  00B1               	movwf	??_decode_trame_GPS+3
  5974  0A12  0872               	movf	?___wmul,w
  5975  0A13  0730               	addwf	??_decode_trame_GPS+2,w
  5976  0A14  00B2               	movwf	??_decode_trame_GPS+4
  5977  0A15  0873               	movf	?___wmul+1,w
  5978  0A16  3D31               	addwfc	??_decode_trame_GPS+3,w
  5979  0A17  00B3               	movwf	??_decode_trame_GPS+5
  5980  0A18  082E               	movf	??_decode_trame_GPS,w
  5981  0A19  0732               	addwf	??_decode_trame_GPS+4,w
  5982  0A1A  0008               	return
  5983  0A1B                     __end_ofPL64:	
  5984  0A1B                     PL92:	
  5985  0A1B  0839               	movf	decode_trame_GPS@i,w
  5986  0A1C  3EC8               	addlw	200
  5987  0A1D  0086               	movwf	6
  5988  0A1E  3022               	movlw	34
  5989  0A1F  0187               	clrf	7
  5990  0A20  3D87               	addwfc	7,f
  5991  0A21  0801               	movf	1,w
  5992  0A22  00BC               	movwf	decode_trame_GPS@caract
  5993  0A23  3A2C               	xorlw	44
  5994  0A24  0008               	return
  5995  0A25                     __end_ofPL92:	
  5996  0A25                     PL94:	
  5997  0A25  083B               	movf	decode_trame_GPS@k,w
  5998  0A26  00AE               	movwf	??_decode_trame_GPS
  5999  0A27  01AF               	clrf	??_decode_trame_GPS+1
  6000  0A28  083A               	movf	decode_trame_GPS@j,w
  6001  0A29  00F2               	movwf	___wmul@multiplier
  6002  0A2A  300C               	movlw	12
  6003  0A2B  01F3               	clrf	___wmul@multiplier+1
  6004  0A2C  00F4               	movwf	___wmul@multiplicand
  6005  0A2D  01F5               	clrf	___wmul@multiplicand+1
  6006  0A2E  0008               	return
  6007  0A2F                     __end_ofPL94:	
  6008  0A2F                     PL132:	
  6009  0A2F  0825               	movf	verifierCRC@trameGPS,w
  6010  0A30  0086               	movwf	6
  6011  0A31  0826               	movf	verifierCRC@trameGPS+1,w
  6012  0A32  0087               	movwf	7
  6013  0A33  3141               	addfsr 1,1
  6014  0A34  0801               	movf	1,w
  6015  0A35  0008               	return
  6016  0A36                     __end_ofPL132:	
  6017  0A36                     PL154:	
  6018  0A36  0874               	movf	strncmp@s2,w
  6019  0A37  0084               	movwf	4
  6020  0A38  0875               	movf	strncmp@s2+1,w
  6021  0A39  0085               	movwf	5
  6022  0A3A  0800               	movf	0,w	;code access
  6023  0A3B  0008               	return
  6024  0A3C                     __end_ofPL154:	
  6025  0A3C                     PL164:	
  6026  0A3C  0872               	movf	strncmp@s1,w
  6027  0A3D  0086               	movwf	6
  6028  0A3E  0873               	movf	strncmp@s1+1,w
  6029  0A3F  0087               	movwf	7
  6030  0A40  0801               	movf	1,w
  6031  0A41  0008               	return
  6032  0A42                     __end_ofPL164:	
  6033  0A42                     PL170:	
  6034  0A42  0087               	movwf	7
  6035  0A43  0181               	clrf	1
  6036  0A44  0ABA               	incf	decode_trame_GPS@j,f
  6037  0A45  01BB               	clrf	decode_trame_GPS@k
  6038  0A46  0008               	return
  6039  0A47                     __end_ofPL170:	
  6040  0A47                     PL174:	
  6041  0A47  0087               	movwf	7
  6042  0A48  083C               	movf	decode_trame_GPS@caract,w
  6043  0A49  0081               	movwf	1
  6044  0A4A  0ABB               	incf	decode_trame_GPS@k,f
  6045  0A4B  0008               	return
  6046  0A4C                     __end_ofPL174:	
  6047  0A4C                     PL180:	
  6048  0A4C  00F5               	movwf	strncmp@s2+1
  6049  0A4D  3006               	movlw	6
  6050  0A4E  00F6               	movwf	strncmp@len
  6051  0A4F  01F7               	clrf	strncmp@len+1
  6052  0A50  0008               	return
  6053  0A51                     __end_ofPL180:	
  6054  0A51                     PL186:	
  6055  0A51  0020               	movlb	0	; select bank0
  6056  0A52  00A5               	movwf	verifierCRC@trameGPS
  6057  0A53  3022               	movlw	34
  6058  0A54  00A6               	movwf	verifierCRC@trameGPS+1
  6059  0A55  0008               	return
  6060  0A56                     __end_ofPL186:	
  6061  0A56                     __ptext9:	
  6062 ;; *************** function _decodage_VTG *****************
  6063 ;; Defined at:
  6064 ;;		line 163 in file "../Sources/gps.c"
  6065 ;; Parameters:    Size  Location     Type
  6066 ;;  cap             1    wreg     PTR float 
  6067 ;;		 -> main@cap(3), 
  6068 ;;  vitesse         1   46[BANK0 ] PTR float 
  6069 ;;		 -> main@vitesse(3), 
  6070 ;; Auto vars:     Size  Location     Type
  6071 ;;  cap             1   10[COMMON] PTR float 
  6072 ;;		 -> main@cap(3), 
  6073 ;; Return value:  Size  Location     Type
  6074 ;;                  1    wreg      void 
  6075 ;; Registers used:
  6076 ;;		wreg, fsr1l, fsr1h, status,2, status,0, pclath, cstack
  6077 ;; Tracked objects:
  6078 ;;		On entry : 1F/0
  6079 ;;		On exit  : 1F/0
  6080 ;;		Unchanged: 0/0
  6081 ;; Data sizes:     COMMON   BANK0   BANK1   BANK2   BANK3   BANK4   BANK5   BANK6   BANK7   BANK8   BANK9  BANK10  BANK1
      +1  BANK12
  6082 ;;      Params:         0       1       0       0       0       0       0       0       0       0       0       0       
      +0       0
  6083 ;;      Locals:         1       0       0       0       0       0       0       0       0       0       0       0       
      +0       0
  6084 ;;      Temps:          0       0       0       0       0       0       0       0       0       0       0       0       
      +0       0
  6085 ;;      Totals:         1       1       0       0       0       0       0       0       0       0       0       0       
      +0       0
  6086 ;;Total ram usage:        2 bytes
  6087 ;; Hardware stack levels used:    1
  6088 ;; Hardware stack levels required when called:    5
  6089 ;; This function calls:
  6090 ;;		_atof
  6091 ;; This function is called by:
  6092 ;;		_main
  6093 ;; This function uses a non-reentrant model
  6094 ;;
  6095                           
  6096                           
  6097                           ;psect for function _decodage_VTG
  6098  0A56                     _decodage_VTG:	
  6099                           
  6100                           ;incstack = 0
  6101                           ; Regs used in _decodage_VTG: [wreg+fsr1l+fsr1h+status,2+status,0+pclath+cstack]
  6102                           ;decodage_VTG@cap stored from wreg
  6103  0A56  00FA               	movwf	decodage_VTG@cap
  6104                           
  6105                           ;gps.c: 164: if(champsTrameGPSVTG[1][0] == '\0') *cap=0.0;
  6106  0A57  3090               	movlw	144
  6107  0A58  0086               	movwf	6
  6108  0A59  3023               	movlw	35
  6109  0A5A  0087               	movwf	7
  6110  0A5B  3148               	addfsr 1,8
  6111  0A5C  0801               	movf	1,w
  6112  0A5D  1D03               	btfss	3,2
  6113  0A5E  2A63               	goto	l6543
  6114  0A5F  087A               	movf	decodage_VTG@cap,w
  6115  0A60  27D1  3188         	fcall	PL128	;call to abstracted procedure
  6116  0A62  2A6C               	goto	l6545
  6117  0A63                     l6543:	
  6118                           
  6119                           ;gps.c: 165: else *cap=atof(champsTrameGPSVTG[1]);
  6120  0A63  3098               	movlw	152
  6121  0A64  00CB               	movwf	atof@s
  6122  0A65  3023               	movlw	35
  6123  0A66  00CC               	movwf	atof@s+1
  6124  0A67  2621  3188         	fcall	_atof
  6125  0A69  087A               	movf	decodage_VTG@cap,w
  6126  0A6A  27A2  3188         	fcall	PL106	;call to abstracted procedure
  6127  0A6C                     l6545:	
  6128                           
  6129                           ;gps.c: 166: if(champsTrameGPSVTG[7][0] == '\0') *vitesse=0.0;
  6130  0A6C  30C8               	movlw	200
  6131  0A6D  0086               	movwf	6
  6132  0A6E  3023               	movlw	35
  6133  0A6F  0087               	movwf	7
  6134  0A70  0801               	movf	1,w
  6135  0A71  1D03               	btfss	3,2
  6136  0A72  2A76               	goto	l6549
  6137  0A73  084E               	movf	decodage_VTG@vitesse,w
  6138  0A74  27D1               	fcall	PL128	;call to abstracted procedure
  6139  0A75  0008               	return
  6140  0A76                     l6549:	
  6141                           
  6142                           ;gps.c: 167: else *vitesse=atof(champsTrameGPSVTG[7]);
  6143  0A76  30C8               	movlw	200
  6144  0A77  00CB               	movwf	atof@s
  6145  0A78  3023               	movlw	35
  6146  0A79  00CC               	movwf	atof@s+1
  6147  0A7A  2621  3188         	fcall	_atof
  6148  0A7C  084E               	movf	decodage_VTG@vitesse,w
  6149  0A7D  27A2               	fcall	PL106	;call to abstracted procedure
  6150  0A7E  0008               	return
  6151  0A7F                     __end_of_decodage_VTG:	
  6152  0A7F                     __ptext23:	
  6153 ;; *************** function _Reinit_trame_GPS *****************
  6154 ;; Defined at:
  6155 ;;		line 37 in file "../Sources/gps.c"
  6156 ;; Parameters:    Size  Location     Type
  6157 ;;		None
  6158 ;; Auto vars:     Size  Location     Type
  6159 ;;  j               1    9[COMMON] unsigned char 
  6160 ;;  i               1    8[COMMON] unsigned char 
  6161 ;; Return value:  Size  Location     Type
  6162 ;;                  1    wreg      void 
  6163 ;; Registers used:
  6164 ;;		wreg, fsr1l, fsr1h, status,2, status,0, pclath, cstack
  6165 ;; Tracked objects:
  6166 ;;		On entry : 1F/2
  6167 ;;		On exit  : 0/0
  6168 ;;		Unchanged: 0/0
  6169 ;; Data sizes:     COMMON   BANK0   BANK1   BANK2   BANK3   BANK4   BANK5   BANK6   BANK7   BANK8   BANK9  BANK10  BANK1
      +1  BANK12
  6170 ;;      Params:         0       0       0       0       0       0       0       0       0       0       0       0       
      +0       0
  6171 ;;      Locals:         2       0       0       0       0       0       0       0       0       0       0       0       
      +0       0
  6172 ;;      Temps:          0       6       0       0       0       0       0       0       0       0       0       0       
      +0       0
  6173 ;;      Totals:         2       6       0       0       0       0       0       0       0       0       0       0       
      +0       0
  6174 ;;Total ram usage:        8 bytes
  6175 ;; Hardware stack levels used:    1
  6176 ;; Hardware stack levels required when called:    2
  6177 ;; This function calls:
  6178 ;;		___wmul
  6179 ;;		_chaine_Init
  6180 ;; This function is called by:
  6181 ;;		_main
  6182 ;; This function uses a non-reentrant model
  6183 ;;
  6184                           
  6185                           
  6186                           ;psect for function _Reinit_trame_GPS
  6187  0A7F                     _Reinit_trame_GPS:	
  6188                           
  6189                           ;gps.c: 38: unsigned char i,j;
  6190                           ;gps.c: 39: i=0;
  6191                           
  6192                           ;incstack = 0
  6193                           ; Regs used in _Reinit_trame_GPS: [wreg+fsr1l+fsr1h+status,2+status,0+pclath+cstack]
  6194  0A7F  01F8               	clrf	Reinit_trame_GPS@i
  6195                           
  6196                           ;gps.c: 40: j=0;
  6197  0A80  01F9               	clrf	Reinit_trame_GPS@j
  6198                           
  6199                           ;gps.c: 41: while(i<16){
  6200  0A81  2A8D               	goto	l6285
  6201  0A82                     l6277:	
  6202                           
  6203                           ;gps.c: 43: champsTrameGPSGGA[i][j]= 0;
  6204  0A82  278A  3188         	fcall	PL90	;call to abstracted procedure
  6205  0A84  268E  3188         	fcall	___wmul
  6206                           
  6207                           ;gps.c: 44: j++;
  6208  0A86  2736  3188         	fcall	PL36	;call to abstracted procedure
  6209  0A88                     l6281:	
  6210  0A88  300C               	movlw	12
  6211  0A89  0279               	subwf	Reinit_trame_GPS@j,w
  6212  0A8A  1C03               	skipc
  6213  0A8B  2A82               	goto	l6277
  6214                           
  6215                           ;gps.c: 45: }
  6216                           ;gps.c: 46: i++;
  6217  0A8C  0AF8               	incf	Reinit_trame_GPS@i,f
  6218  0A8D                     l6285:	
  6219  0A8D  3010               	movlw	16
  6220  0A8E  0278               	subwf	Reinit_trame_GPS@i,w
  6221  0A8F  1C03               	skipc
  6222  0A90  2A88               	goto	l6281
  6223                           
  6224                           ;gps.c: 47: }
  6225                           ;gps.c: 48: i=0;
  6226  0A91  01F8               	clrf	Reinit_trame_GPS@i
  6227                           
  6228                           ;gps.c: 49: j=0;
  6229  0A92  01F9               	clrf	Reinit_trame_GPS@j
  6230                           
  6231                           ;gps.c: 50: while(i<16){
  6232  0A93  2A9F               	goto	l6297
  6233  0A94                     l6289:	
  6234                           
  6235                           ;gps.c: 52: champsTrameGPSGGA[i][j]= 0;
  6236  0A94  278A  3188         	fcall	PL90	;call to abstracted procedure
  6237  0A96  268E  3188         	fcall	___wmul
  6238                           
  6239                           ;gps.c: 53: j++;
  6240  0A98  2736  3188         	fcall	PL36	;call to abstracted procedure
  6241  0A9A                     l6293:	
  6242  0A9A  300C               	movlw	12
  6243  0A9B  0279               	subwf	Reinit_trame_GPS@j,w
  6244  0A9C  1C03               	skipc
  6245  0A9D  2A94               	goto	l6289
  6246                           
  6247                           ;gps.c: 54: }
  6248                           ;gps.c: 55: i++;
  6249  0A9E  0AF8               	incf	Reinit_trame_GPS@i,f
  6250  0A9F                     l6297:	
  6251  0A9F  3010               	movlw	16
  6252  0AA0  0278               	subwf	Reinit_trame_GPS@i,w
  6253  0AA1  1C03               	skipc
  6254  0AA2  2A9A               	goto	l6293
  6255                           
  6256                           ;gps.c: 56: }
  6257                           ;gps.c: 57: chaine_Init();
  6258  0AA3  3185  2D9A         	ljmp	l5455
  6259  0AA5                     __end_of_Reinit_trame_GPS:	
  6260  0AA5                     __ptext13:	
  6261 ;; *************** function _strtod *****************
  6262 ;; Defined at:
  6263 ;;		line 35 in file "C:\Program Files (x86)\Microchip\xc8\v1.44\sources\common\atof.c"
  6264 ;; Parameters:    Size  Location     Type
  6265 ;;  s               2   33[BANK0 ] PTR const unsigned char 
  6266 ;;		 -> champsTrameGPSVTG(96), champsTrameGPSGGA(192), 
  6267 ;;  res             1   35[BANK0 ] PTR PTR const unsigned c
  6268 ;;		 -> NULL(0), 
  6269 ;; Auto vars:     Size  Location     Type
  6270 ;;  _u              4   39[BANK0 ] struct .
  6271 ;;  expon           1   38[BANK0 ] char 
  6272 ;;  flags           1   37[BANK0 ] unsigned char 
  6273 ;;  eexp            1   36[BANK0 ] char 
  6274 ;; Return value:  Size  Location     Type
  6275 ;;                  3   33[BANK0 ] char 
  6276 ;; Registers used:
  6277 ;;		wreg, fsr1l, fsr1h, status,2, status,0, pclath, cstack
  6278 ;; Tracked objects:
  6279 ;;		On entry : 1F/0
  6280 ;;		On exit  : 1F/0
  6281 ;;		Unchanged: 0/0
  6282 ;; Data sizes:     COMMON   BANK0   BANK1   BANK2   BANK3   BANK4   BANK5   BANK6   BANK7   BANK8   BANK9  BANK10  BANK1
      +1  BANK12
  6283 ;;      Params:         0       3       0       0       0       0       0       0       0       0       0       0       
      +0       0
  6284 ;;      Locals:         0       7       0       0       0       0       0       0       0       0       0       0       
      +0       0
  6285 ;;      Temps:          0       0       0       0       0       0       0       0       0       0       0       0       
      +0       0
  6286 ;;      Totals:         0      10       0       0       0       0       0       0       0       0       0       0       
      +0       0
  6287 ;;Total ram usage:       10 bytes
  6288 ;; Hardware stack levels used:    1
  6289 ;; Hardware stack levels required when called:    3
  6290 ;; This function calls:
  6291 ;;		___altoft
  6292 ;;		___bmul
  6293 ;;		___ftdiv
  6294 ;;		___ftge
  6295 ;;		___ftmul
  6296 ;;		___ftneg
  6297 ;;		___lmul
  6298 ;;		_isdigit
  6299 ;;		_isspace
  6300 ;; This function is called by:
  6301 ;;		_atof
  6302 ;; This function uses a non-reentrant model
  6303 ;;
  6304                           
  6305                           
  6306                           ;psect for function _strtod
  6307  0AA5                     _strtod:	
  6308                           
  6309                           ;incstack = 0
  6310                           ; Regs used in _strtod: [wreg+fsr1l+fsr1h+status,2+status,0+pclath+cstack]
  6311  0AA5  0843               	movf	strtod@res,w
  6312  0AA6  1903               	btfsc	3,2
  6313  0AA7  2AAA               	goto	l5575
  6314  0AA8  27AB  3188         	fcall	PL110	;call to abstracted procedure
  6315  0AAA                     l5575:	
  6316  0AAA  276B  3188         	fcall	PL58	;call to abstracted procedure
  6317  0AAC  00C4               	movwf	strtod@eexp
  6318  0AAD  2457  3188         	fcall	_isspace
  6319  0AAF  1C03               	btfss	3,0
  6320  0AB0  2AB5               	goto	l5577
  6321  0AB1  0AC1               	incf	strtod@s,f
  6322  0AB2  1903               	skipnz
  6323  0AB3  0AC2               	incf	strtod@s+1,f
  6324  0AB4  2AAA               	goto	l5575
  6325  0AB5                     l5577:	
  6326  0AB5  302D               	movlw	45
  6327  0AB6  01C5               	clrf	strtod@flags
  6328  0AB7  0644               	xorwf	strtod@eexp,w
  6329  0AB8  1D03               	btfss	3,2
  6330  0AB9  2ABD               	goto	l5585
  6331  0ABA  01C5               	clrf	strtod@flags
  6332  0ABB  0AC5               	incf	strtod@flags,f
  6333  0ABC  2AC1               	goto	l5583
  6334  0ABD                     l5585:	
  6335  0ABD  302B               	movlw	43
  6336  0ABE  0644               	xorwf	strtod@eexp,w
  6337  0ABF  1D03               	btfss	3,2
  6338  0AC0  2AC4               	goto	l5589
  6339  0AC1                     l5583:	
  6340  0AC1  0AC1               	incf	strtod@s,f
  6341  0AC2  1903               	skipnz
  6342  0AC3  0AC2               	incf	strtod@s+1,f
  6343  0AC4                     l5589:	
  6344  0AC4  01C4               	clrf	strtod@eexp
  6345  0AC5  01C7               	clrf	strtod@_u
  6346  0AC6  01C8               	clrf	strtod@_u+1
  6347  0AC7  01C9               	clrf	strtod@_u+2
  6348  0AC8  01CA               	clrf	strtod@_u+3
  6349  0AC9  01C6               	clrf	strtod@expon
  6350  0ACA  2AD7               	goto	l5595
  6351  0ACB                     l5597:	
  6352  0ACB  0841               	movf	strtod@s,w
  6353  0ACC  0086               	movwf	6
  6354  0ACD  0842               	movf	strtod@s+1,w
  6355  0ACE  0087               	movwf	7
  6356  0ACF  302E               	movlw	46
  6357  0AD0  0601               	xorwf	1,w
  6358  0AD1  1D03               	btfss	3,2
  6359  0AD2  2AD9               	goto	l5603
  6360  0AD3  1645               	bsf	strtod@flags,4
  6361  0AD4                     l5601:	
  6362  0AD4  0AC1               	incf	strtod@s,f
  6363  0AD5  1903               	skipnz
  6364  0AD6  0AC2               	incf	strtod@s+1,f
  6365  0AD7                     l5595:	
  6366  0AD7  1E45               	btfss	strtod@flags,4
  6367  0AD8  2ACB               	goto	l5597
  6368  0AD9                     l5603:	
  6369  0AD9  276B  3188         	fcall	PL58	;call to abstracted procedure
  6370  0ADB  241A  3188         	fcall	_isdigit
  6371  0ADD  1C03               	btfss	3,0
  6372  0ADE  2B0E               	goto	l5619
  6373  0ADF  3008               	movlw	8
  6374  0AE0  14C5               	bsf	strtod@flags,1
  6375  0AE1  0644               	xorwf	strtod@eexp,w
  6376  0AE2  1903               	btfsc	3,2
  6377  0AE3  2B0A               	goto	l772
  6378  0AE4  1A45               	btfsc	strtod@flags,4
  6379  0AE5  03C6               	decf	strtod@expon,f
  6380  0AE6  300A               	movlw	10
  6381  0AE7  0AC4               	incf	strtod@eexp,f
  6382  0AE8  00F2               	movwf	___lmul@multiplier
  6383  0AE9  01F3               	clrf	___lmul@multiplier+1
  6384  0AEA  01F4               	clrf	___lmul@multiplier+2
  6385  0AEB  01F5               	clrf	___lmul@multiplier+3
  6386  0AEC  084A               	movf	strtod@_u+3,w
  6387  0AED  00F9               	movwf	___lmul@multiplicand+3
  6388  0AEE  0849               	movf	strtod@_u+2,w
  6389  0AEF  00F8               	movwf	___lmul@multiplicand+2
  6390  0AF0  0848               	movf	strtod@_u+1,w
  6391  0AF1  00F7               	movwf	___lmul@multiplicand+1
  6392  0AF2  0847               	movf	strtod@_u,w
  6393  0AF3  00F6               	movwf	___lmul@multiplicand
  6394  0AF4  25FC  3188         	fcall	___lmul
  6395  0AF6  0875               	movf	?___lmul+3,w
  6396  0AF7  00CA               	movwf	strtod@_u+3
  6397  0AF8  0874               	movf	?___lmul+2,w
  6398  0AF9  00C9               	movwf	strtod@_u+2
  6399  0AFA  0873               	movf	?___lmul+1,w
  6400  0AFB  00C8               	movwf	strtod@_u+1
  6401  0AFC  0872               	movf	?___lmul,w
  6402  0AFD  00C7               	movwf	strtod@_u
  6403  0AFE  276B  3188         	fcall	PL58	;call to abstracted procedure
  6404  0B00  3ED0               	addlw	208
  6405  0B01  07C7               	addwf	strtod@_u,f
  6406  0B02  3001               	movlw	1
  6407  0B03  1803               	skipnc
  6408  0B04  07C8               	addwf	strtod@_u+1,f
  6409  0B05  1803               	skipnc
  6410  0B06  07C9               	addwf	strtod@_u+2,f
  6411  0B07  1803               	skipnc
  6412  0B08  07CA               	addwf	strtod@_u+3,f
  6413  0B09  2AD4               	goto	l5601
  6414  0B0A                     l772:	
  6415  0B0A  1A45               	btfsc	strtod@flags,4
  6416  0B0B  2AD4               	goto	l5601
  6417  0B0C  0AC6               	incf	strtod@expon,f
  6418  0B0D  2AD4               	goto	l5601
  6419  0B0E                     l5619:	
  6420  0B0E  01C4               	clrf	strtod@eexp
  6421  0B0F  0841               	movf	strtod@s,w
  6422  0B10  0086               	movwf	6
  6423  0B11  0842               	movf	strtod@s+1,w
  6424  0B12  0087               	movwf	7
  6425  0B13  3065               	movlw	101
  6426  0B14  0601               	xorwf	1,w
  6427  0B15  1903               	btfsc	3,2
  6428  0B16  2B1F               	goto	l5625
  6429  0B17  0841               	movf	strtod@s,w
  6430  0B18  0086               	movwf	6
  6431  0B19  0842               	movf	strtod@s+1,w
  6432  0B1A  0087               	movwf	7
  6433  0B1B  3045               	movlw	69
  6434  0B1C  0601               	xorwf	1,w
  6435  0B1D  1D03               	btfss	3,2
  6436  0B1E  2B70               	goto	l5659
  6437  0B1F                     l5625:	
  6438  0B1F  0AC1               	incf	strtod@s,f
  6439  0B20  1903               	skipnz
  6440  0B21  0AC2               	incf	strtod@s+1,f
  6441  0B22  0841               	movf	strtod@s,w
  6442  0B23  0086               	movwf	6
  6443  0B24  0842               	movf	strtod@s+1,w
  6444  0B25  0087               	movwf	7
  6445  0B26  302D               	movlw	45
  6446  0B27  0601               	xorwf	1,w
  6447  0B28  1D03               	btfss	3,2
  6448  0B29  2B2C               	goto	l5631
  6449  0B2A  15C5               	bsf	strtod@flags,3
  6450  0B2B  2B3C               	goto	l5629
  6451  0B2C                     l5631:	
  6452  0B2C  0841               	movf	strtod@s,w
  6453  0B2D  0086               	movwf	6
  6454  0B2E  0842               	movf	strtod@s+1,w
  6455  0B2F  0087               	movwf	7
  6456  0B30  302B               	movlw	43
  6457  0B31  0601               	xorwf	1,w
  6458  0B32  1903               	btfsc	3,2
  6459  0B33  2B3C               	goto	l5629
  6460  0B34                     l5637:	
  6461  0B34  0841               	movf	strtod@s,w
  6462  0B35  0086               	movwf	6
  6463  0B36  0842               	movf	strtod@s+1,w
  6464  0B37  0087               	movwf	7
  6465  0B38  3030               	movlw	48
  6466  0B39  0601               	xorwf	1,w
  6467  0B3A  1D03               	btfss	3,2
  6468  0B3B  2B40               	goto	l5639
  6469  0B3C                     l5629:	
  6470  0B3C  0AC1               	incf	strtod@s,f
  6471  0B3D  1903               	skipnz
  6472  0B3E  0AC2               	incf	strtod@s+1,f
  6473  0B3F  2B34               	goto	l5637
  6474  0B40                     l5639:	
  6475  0B40  276B  3188         	fcall	PL58	;call to abstracted procedure
  6476  0B42  241A  3188         	fcall	_isdigit
  6477  0B44  1C03               	btfss	3,0
  6478  0B45  2B6C               	goto	l5655
  6479  0B46  276B  3188         	fcall	PL58	;call to abstracted procedure
  6480  0B48  3ED0               	addlw	208
  6481  0B49  00C4               	movwf	strtod@eexp
  6482  0B4A  0AC1               	incf	strtod@s,f
  6483  0B4B  1903               	skipnz
  6484  0B4C  0AC2               	incf	strtod@s+1,f
  6485  0B4D  276B  3188         	fcall	PL58	;call to abstracted procedure
  6486  0B4F  241A  3188         	fcall	_isdigit
  6487  0B51  1C03               	btfss	3,0
  6488  0B52  2B6C               	goto	l5655
  6489  0B53  27B3               	fcall	PL114	;call to abstracted procedure
  6490  0B54  3197  2716  3188   	fcall	___bmul
  6491  0B57  0701               	addwf	1,w
  6492  0B58  3ED0               	addlw	-48
  6493  0B59  0020               	movlb	0	; select bank0
  6494  0B5A  00C4               	movwf	strtod@eexp
  6495  0B5B  0AC1               	incf	strtod@s,f
  6496  0B5C  1903               	skipnz
  6497  0B5D  0AC2               	incf	strtod@s+1,f
  6498  0B5E  276B  3188         	fcall	PL58	;call to abstracted procedure
  6499  0B60  241A  3188         	fcall	_isdigit
  6500  0B62  1C03               	btfss	3,0
  6501  0B63  2B6C               	goto	l5655
  6502  0B64  27B3               	fcall	PL114	;call to abstracted procedure
  6503  0B65  3197  2716  3188   	fcall	___bmul
  6504  0B68  0701               	addwf	1,w
  6505  0B69  3ED0               	addlw	-48
  6506  0B6A  0020               	movlb	0	; select bank0
  6507  0B6B  00C4               	movwf	strtod@eexp
  6508  0B6C                     l5655:	
  6509  0B6C  1DC5               	btfss	strtod@flags,3
  6510  0B6D  2B70               	goto	l5659
  6511  0B6E  09C4               	comf	strtod@eexp,f
  6512  0B6F  0AC4               	incf	strtod@eexp,f
  6513  0B70                     l5659:	
  6514  0B70  0844               	movf	strtod@eexp,w
  6515  0B71  07C6               	addwf	strtod@expon,f
  6516  0B72  0843               	movf	strtod@res,w
  6517  0B73  1D03               	btfss	3,2
  6518  0B74  1CC5               	btfss	strtod@flags,1
  6519  0B75  2B78               	goto	l5667
  6520  0B76  27AB  3188         	fcall	PL110	;call to abstracted procedure
  6521  0B78                     l5667:	
  6522  0B78  084A               	movf	strtod@_u+3,w
  6523  0B79  00A3               	movwf	___altoft@c+3
  6524  0B7A  0849               	movf	strtod@_u+2,w
  6525  0B7B  00A2               	movwf	___altoft@c+2
  6526  0B7C  0848               	movf	strtod@_u+1,w
  6527  0B7D  00A1               	movwf	___altoft@c+1
  6528  0B7E  0847               	movf	strtod@_u,w
  6529  0B7F  00A0               	movwf	___altoft@c
  6530  0B80  2428  3188         	fcall	___altoft
  6531  0B82  0820               	movf	?___altoft,w
  6532  0B83  00C7               	movwf	strtod@_u
  6533  0B84  0821               	movf	?___altoft+1,w
  6534  0B85  00C8               	movwf	strtod@_u+1
  6535  0B86  0822               	movf	?___altoft+2,w
  6536  0B87  00C9               	movwf	strtod@_u+2
  6537  0B88  0448               	iorwf	strtod@_u+1,w
  6538  0B89  0447               	iorwf	strtod@_u,w
  6539  0B8A  1D03               	skipz
  6540  0B8B  2B90               	goto	l790
  6541  0B8C  01C1               	clrf	?_strtod
  6542  0B8D  01C2               	clrf	?_strtod+1
  6543  0B8E  01C3               	clrf	?_strtod+2
  6544  0B8F  0008               	return
  6545  0B90                     l790:	
  6546  0B90  1FC6               	btfss	strtod@expon,7
  6547  0B91  2BC9               	goto	l5699
  6548  0B92  09C6               	comf	strtod@expon,f
  6549  0B93  0AC6               	incf	strtod@expon,f
  6550  0B94                     l5679:	
  6551  0B94  0846               	movf	strtod@expon,w
  6552  0B95  3A80               	xorlw	128
  6553  0B96  3E76               	addlw	-138
  6554  0B97  1C03               	btfss	3,0
  6555  0B98  2BB2               	goto	l5685
  6556  0B99  3003               	movlw	3
  6557  0B9A  00B2               	movwf	___ftdiv@f2
  6558  0B9B  3015               	movlw	21
  6559  0B9C  00B3               	movwf	___ftdiv@f2+1
  6560  0B9D  3050               	movlw	80
  6561  0B9E  27C3               	fcall	PL118	;call to abstracted procedure
  6562  0B9F  3194  243C  3188   	fcall	___ftdiv
  6563  0BA2  27DF  3188         	fcall	PL144	;call to abstracted procedure
  6564  0BA4  30F6               	movlw	246
  6565  0BA5  07C6               	addwf	strtod@expon,f
  6566  0BA6  2B94               	goto	l5679
  6567  0BA7                     l5681:	
  6568  0BA7  3020               	movlw	32
  6569  0BA8  01B2               	clrf	___ftdiv@f2
  6570  0BA9  00B3               	movwf	___ftdiv@f2+1
  6571  0BAA  3041               	movlw	65
  6572  0BAB  27C3               	fcall	PL118	;call to abstracted procedure
  6573  0BAC  3194  243C  3188   	fcall	___ftdiv
  6574  0BAF  27DF  3188         	fcall	PL144	;call to abstracted procedure
  6575  0BB1  03C6               	decf	strtod@expon,f
  6576  0BB2                     l5685:	
  6577  0BB2  0846               	movf	strtod@expon,w
  6578  0BB3  1D03               	btfss	3,2
  6579  0BB4  2BA7               	goto	l5681
  6580  0BB5  0847               	movf	strtod@_u,w
  6581  0BB6  00F2               	movwf	___ftge@ff1
  6582  0BB7  0848               	movf	strtod@_u+1,w
  6583  0BB8  00F3               	movwf	___ftge@ff1+1
  6584  0BB9  0849               	movf	strtod@_u+2,w
  6585  0BBA  00F4               	movwf	___ftge@ff1+2
  6586  0BBB  3080               	movlw	128
  6587  0BBC  01F5               	clrf	___ftge@ff2
  6588  0BBD  00F6               	movwf	___ftge@ff2+1
  6589  0BBE  01F7               	clrf	___ftge@ff2+2
  6590  0BBF  3184  24B4  3188   	fcall	___ftge
  6591  0BC2  1803               	btfsc	3,0
  6592  0BC3  2BCE               	goto	l801
  6593  0BC4  0020               	movlb	0	; select bank0
  6594  0BC5  1C45               	btfss	strtod@flags,0
  6595  0BC6  2BC8               	goto	l5695
  6596  0BC7  2FEC               	ljmp	PL162	;call to abstracted procedure
  6597  0BC8                     l5695:	
  6598  0BC8  2FCB               	ljmp	PL124	;call to abstracted procedure
  6599  0BC9                     l5699:	
  6600  0BC9  0846               	movf	strtod@expon,w
  6601  0BCA  3A80               	xorlw	128
  6602  0BCB  3E7F               	addlw	-129
  6603  0BCC  1803               	btfsc	3,0
  6604  0BCD  2BF2               	goto	l5707
  6605  0BCE                     l801:	
  6606  0BCE  0020               	movlb	0	; select bank0
  6607  0BCF  1C45               	btfss	strtod@flags,0
  6608  0BD0  2BDE               	goto	l5729
  6609  0BD1  0847               	movf	strtod@_u,w
  6610  0BD2  00F2               	movwf	___ftneg@f1
  6611  0BD3  0848               	movf	strtod@_u+1,w
  6612  0BD4  00F3               	movwf	___ftneg@f1+1
  6613  0BD5  0849               	movf	strtod@_u+2,w
  6614  0BD6  00F4               	movwf	___ftneg@f1+2
  6615  0BD7  26A3               	fcall	___ftneg
  6616  0BD8  0872               	movf	?___ftneg,w
  6617  0BD9  00C7               	movwf	strtod@_u
  6618  0BDA  0873               	movf	?___ftneg+1,w
  6619  0BDB  00C8               	movwf	strtod@_u+1
  6620  0BDC  0874               	movf	?___ftneg+2,w
  6621  0BDD  00C9               	movwf	strtod@_u+2
  6622  0BDE                     l5729:	
  6623  0BDE  0847               	movf	strtod@_u,w
  6624  0BDF  00C1               	movwf	?_strtod
  6625  0BE0  0848               	movf	strtod@_u+1,w
  6626  0BE1  00C2               	movwf	?_strtod+1
  6627  0BE2  0849               	movf	strtod@_u+2,w
  6628  0BE3  00C3               	movwf	?_strtod+2
  6629  0BE4  0008               	return
  6630  0BE5                     l5703:	
  6631  0BE5  3003               	movlw	3
  6632  0BE6  00A3               	movwf	___ftmul@f1
  6633  0BE7  3015               	movlw	21
  6634  0BE8  00A4               	movwf	___ftmul@f1+1
  6635  0BE9  3050               	movlw	80
  6636  0BEA  27BB               	fcall	PL116	;call to abstracted procedure
  6637  0BEB  3196  2631  3188   	fcall	___ftmul
  6638  0BEE  27D8  3188         	fcall	PL138	;call to abstracted procedure
  6639  0BF0  30F6               	movlw	246
  6640  0BF1  07C6               	addwf	strtod@expon,f
  6641  0BF2                     l5707:	
  6642  0BF2  300A               	movlw	10
  6643  0BF3  0246               	subwf	strtod@expon,w
  6644  0BF4  1C03               	btfss	3,0
  6645  0BF5  2C02               	goto	l5713
  6646  0BF6  2BE5               	goto	l5703
  6647  0BF7                     l5709:	
  6648  0BF7  3020               	movlw	32
  6649  0BF8  01A3               	clrf	___ftmul@f1
  6650  0BF9  00A4               	movwf	___ftmul@f1+1
  6651  0BFA  3041               	movlw	65
  6652  0BFB  27BB               	fcall	PL116	;call to abstracted procedure
  6653  0BFC  3196  2631  3188   	fcall	___ftmul
  6654  0BFF  27D8  3188         	fcall	PL138	;call to abstracted procedure
  6655  0C01  03C6               	decf	strtod@expon,f
  6656  0C02                     l5713:	
  6657  0C02  0846               	movf	strtod@expon,w
  6658  0C03  1D03               	btfss	3,2
  6659  0C04  2BF7               	goto	l5709
  6660  0C05  30FF               	movlw	255
  6661  0C06  00F2               	movwf	___ftge@ff1
  6662  0C07  307F               	movlw	127
  6663  0C08  00F3               	movwf	___ftge@ff1+1
  6664  0C09  00F4               	movwf	___ftge@ff1+2
  6665  0C0A  0847               	movf	strtod@_u,w
  6666  0C0B  00F5               	movwf	___ftge@ff2
  6667  0C0C  0848               	movf	strtod@_u+1,w
  6668  0C0D  00F6               	movwf	___ftge@ff2+1
  6669  0C0E  0849               	movf	strtod@_u+2,w
  6670  0C0F  00F7               	movwf	___ftge@ff2+2
  6671  0C10  3184  24B4  3188   	fcall	___ftge
  6672  0C13  1803               	btfsc	3,0
  6673  0C14  2BCE               	goto	l801
  6674  0C15  0020               	movlb	0	; select bank0
  6675  0C16  1C45               	btfss	strtod@flags,0
  6676  0C17  2C19               	goto	l5723
  6677  0C18  2FEC               	ljmp	PL162	;call to abstracted procedure
  6678  0C19                     l5723:	
  6679  0C19  2FCB               	ljmp	PL124	;call to abstracted procedure
  6680  0C1A                     __end_of_strtod:	
  6681  0C1A                     __ptext15:	
  6682 ;; *************** function _isdigit *****************
  6683 ;; Defined at:
  6684 ;;		line 8 in file "C:\Program Files (x86)\Microchip\xc8\v1.44\sources\common\isdigit.c"
  6685 ;; Parameters:    Size  Location     Type
  6686 ;;  c               1    wreg     unsigned char 
  6687 ;; Auto vars:     Size  Location     Type
  6688 ;;  c               1    3[COMMON] unsigned char 
  6689 ;; Return value:  Size  Location     Type
  6690 ;;		None               void
  6691 ;; Registers used:
  6692 ;;		wreg, status,2, status,0
  6693 ;; Tracked objects:
  6694 ;;		On entry : 1F/0
  6695 ;;		On exit  : 1F/0
  6696 ;;		Unchanged: 1F/0
  6697 ;; Data sizes:     COMMON   BANK0   BANK1   BANK2   BANK3   BANK4   BANK5   BANK6   BANK7   BANK8   BANK9  BANK10  BANK1
      +1  BANK12
  6698 ;;      Params:         0       0       0       0       0       0       0       0       0       0       0       0       
      +0       0
  6699 ;;      Locals:         2       0       0       0       0       0       0       0       0       0       0       0       
      +0       0
  6700 ;;      Temps:          0       0       0       0       0       0       0       0       0       0       0       0       
      +0       0
  6701 ;;      Totals:         2       0       0       0       0       0       0       0       0       0       0       0       
      +0       0
  6702 ;;Total ram usage:        2 bytes
  6703 ;; Hardware stack levels used:    1
  6704 ;; Hardware stack levels required when called:    1
  6705 ;; This function calls:
  6706 ;;		Nothing
  6707 ;; This function is called by:
  6708 ;;		_strtod
  6709 ;;		_atoi
  6710 ;;		_xtoi
  6711 ;;		_isxdigit
  6712 ;; This function uses a non-reentrant model
  6713 ;;
  6714                           
  6715                           
  6716                           ;psect for function _isdigit
  6717  0C1A                     _isdigit:	
  6718                           
  6719                           ;incstack = 0
  6720                           ; Regs used in _isdigit: [wreg+status,2+status,0]
  6721                           ;isdigit@c stored from wreg
  6722  0C1A  00F3               	movwf	isdigit@c
  6723  0C1B  303A               	movlw	58
  6724  0C1C  01F2               	clrf	_isdigit$1002
  6725  0C1D  0273               	subwf	isdigit@c,w
  6726  0C1E  1803               	skipnc
  6727  0C1F  2C26               	goto	l5203
  6728  0C20  3030               	movlw	48
  6729  0C21  0273               	subwf	isdigit@c,w
  6730  0C22  1C03               	skipc
  6731  0C23  2C26               	goto	l5203
  6732  0C24  01F2               	clrf	_isdigit$1002
  6733  0C25  0AF2               	incf	_isdigit$1002,f
  6734  0C26                     l5203:	
  6735  0C26  0C72               	rrf	_isdigit$1002,w
  6736  0C27  0008               	return
  6737  0C28                     __end_of_isdigit:	
  6738  0C28                     __ptext18:	
  6739 ;; *************** function ___altoft *****************
  6740 ;; Defined at:
  6741 ;;		line 42 in file "C:\Program Files (x86)\Microchip\xc8\v1.44\sources\common\altoft.c"
  6742 ;; Parameters:    Size  Location     Type
  6743 ;;  c               4    0[BANK0 ] long 
  6744 ;; Auto vars:     Size  Location     Type
  6745 ;;  sign            1    5[BANK0 ] unsigned char 
  6746 ;;  exp             1    4[BANK0 ] unsigned char 
  6747 ;; Return value:  Size  Location     Type
  6748 ;;                  3    0[BANK0 ] float 
  6749 ;; Registers used:
  6750 ;;		wreg, status,2, status,0, pclath, cstack
  6751 ;; Tracked objects:
  6752 ;;		On entry : 1F/0
  6753 ;;		On exit  : 1F/0
  6754 ;;		Unchanged: 0/0
  6755 ;; Data sizes:     COMMON   BANK0   BANK1   BANK2   BANK3   BANK4   BANK5   BANK6   BANK7   BANK8   BANK9  BANK10  BANK1
      +1  BANK12
  6756 ;;      Params:         0       4       0       0       0       0       0       0       0       0       0       0       
      +0       0
  6757 ;;      Locals:         0       2       0       0       0       0       0       0       0       0       0       0       
      +0       0
  6758 ;;      Temps:          0       0       0       0       0       0       0       0       0       0       0       0       
      +0       0
  6759 ;;      Totals:         0       6       0       0       0       0       0       0       0       0       0       0       
      +0       0
  6760 ;;Total ram usage:        6 bytes
  6761 ;; Hardware stack levels used:    1
  6762 ;; Hardware stack levels required when called:    2
  6763 ;; This function calls:
  6764 ;;		___ftpack
  6765 ;; This function is called by:
  6766 ;;		_strtod
  6767 ;; This function uses a non-reentrant model
  6768 ;;
  6769                           
  6770                           
  6771                           ;psect for function ___altoft
  6772  0C28                     ___altoft:	
  6773  0C28  308E               	movlw	142
  6774                           
  6775                           ;incstack = 0
  6776                           ; Regs used in ___altoft: [wreg+status,2+status,0+pclath+cstack]
  6777  0C29  01A5               	clrf	___altoft@sign
  6778  0C2A  00A4               	movwf	___altoft@exp
  6779  0C2B  1FA3               	btfss	___altoft@c+3,7
  6780  0C2C  2C3A               	goto	l5255
  6781  0C2D  09A0               	comf	___altoft@c,f
  6782  0C2E  09A1               	comf	___altoft@c+1,f
  6783  0C2F  09A2               	comf	___altoft@c+2,f
  6784  0C30  09A3               	comf	___altoft@c+3,f
  6785  0C31  0AA0               	incf	___altoft@c,f
  6786  0C32  1903               	skipnz
  6787  0C33  0AA1               	incf	___altoft@c+1,f
  6788  0C34  1903               	skipnz
  6789  0C35  0AA2               	incf	___altoft@c+2,f
  6790  0C36  1903               	skipnz
  6791  0C37  0AA3               	incf	___altoft@c+3,f
  6792  0C38  01A5               	clrf	___altoft@sign
  6793  0C39  0AA5               	incf	___altoft@sign,f
  6794  0C3A                     l5255:	
  6795  0C3A  30FF               	movlw	255
  6796  0C3B  0523               	andwf	___altoft@c+3,w
  6797  0C3C  1903               	btfsc	3,2
  6798  0C3D  2C44               	goto	l5257
  6799  0C3E  36A3               	lsrf	___altoft@c+3,f
  6800  0C3F  0CA2               	rrf	___altoft@c+2,f
  6801  0C40  0CA1               	rrf	___altoft@c+1,f
  6802  0C41  0CA0               	rrf	___altoft@c,f
  6803  0C42  0AA4               	incf	___altoft@exp,f
  6804  0C43  2C3A               	goto	l5255
  6805  0C44                     l5257:	
  6806  0C44  0820               	movf	___altoft@c,w
  6807  0C45  00F2               	movwf	___ftpack@arg
  6808  0C46  0821               	movf	___altoft@c+1,w
  6809  0C47  00F3               	movwf	___ftpack@arg+1
  6810  0C48  0822               	movf	___altoft@c+2,w
  6811  0C49  00F4               	movwf	___ftpack@arg+2
  6812  0C4A  0824               	movf	___altoft@exp,w
  6813  0C4B  00F5               	movwf	___ftpack@exp
  6814  0C4C  0825               	movf	___altoft@sign,w
  6815  0C4D  00F6               	movwf	___ftpack@sign
  6816  0C4E  3196  26D8         	fcall	___ftpack
  6817  0C50  0872               	movf	?___ftpack,w
  6818  0C51  00A0               	movwf	?___altoft
  6819  0C52  0873               	movf	?___ftpack+1,w
  6820  0C53  00A1               	movwf	?___altoft+1
  6821  0C54  0874               	movf	?___ftpack+2,w
  6822  0C55  00A2               	movwf	?___altoft+2
  6823  0C56  0008               	return
  6824  0C57                     __end_of___altoft:	
  6825  0C57                     __ptext14:	
  6826 ;; *************** function _isspace *****************
  6827 ;; Defined at:
  6828 ;;		line 8 in file "C:\Program Files (x86)\Microchip\xc8\v1.44\sources\common\isspace.c"
  6829 ;; Parameters:    Size  Location     Type
  6830 ;;  c               1    wreg     unsigned char 
  6831 ;; Auto vars:     Size  Location     Type
  6832 ;;  c               1    3[COMMON] unsigned char 
  6833 ;; Return value:  Size  Location     Type
  6834 ;;		None               void
  6835 ;; Registers used:
  6836 ;;		wreg, status,2, status,0
  6837 ;; Tracked objects:
  6838 ;;		On entry : 1F/0
  6839 ;;		On exit  : 1F/0
  6840 ;;		Unchanged: 1F/0
  6841 ;; Data sizes:     COMMON   BANK0   BANK1   BANK2   BANK3   BANK4   BANK5   BANK6   BANK7   BANK8   BANK9  BANK10  BANK1
      +1  BANK12
  6842 ;;      Params:         0       0       0       0       0       0       0       0       0       0       0       0       
      +0       0
  6843 ;;      Locals:         2       0       0       0       0       0       0       0       0       0       0       0       
      +0       0
  6844 ;;      Temps:          0       0       0       0       0       0       0       0       0       0       0       0       
      +0       0
  6845 ;;      Totals:         2       0       0       0       0       0       0       0       0       0       0       0       
      +0       0
  6846 ;;Total ram usage:        2 bytes
  6847 ;; Hardware stack levels used:    1
  6848 ;; Hardware stack levels required when called:    1
  6849 ;; This function calls:
  6850 ;;		Nothing
  6851 ;; This function is called by:
  6852 ;;		_strtod
  6853 ;;		_xtoi
  6854 ;; This function uses a non-reentrant model
  6855 ;;
  6856                           
  6857                           
  6858                           ;psect for function _isspace
  6859  0C57                     _isspace:	
  6860                           
  6861                           ;incstack = 0
  6862                           ; Regs used in _isspace: [wreg+status,2+status,0]
  6863                           ;isspace@c stored from wreg
  6864  0C57  00F3               	movwf	isspace@c
  6865  0C58  3020               	movlw	32
  6866  0C59  01F2               	clrf	_isspace$1005
  6867  0C5A  0AF2               	incf	_isspace$1005,f
  6868  0C5B  0673               	xorwf	isspace@c,w
  6869  0C5C  1903               	btfsc	3,2
  6870  0C5D  2C67               	goto	l5271
  6871  0C5E  300E               	movlw	14
  6872  0C5F  0273               	subwf	isspace@c,w
  6873  0C60  1803               	skipnc
  6874  0C61  2C66               	goto	l5269
  6875  0C62  3009               	movlw	9
  6876  0C63  0273               	subwf	isspace@c,w
  6877  0C64  1803               	skipnc
  6878  0C65  2C67               	goto	l5271
  6879  0C66                     l5269:	
  6880  0C66  01F2               	clrf	_isspace$1005
  6881  0C67                     l5271:	
  6882  0C67  0C72               	rrf	_isspace$1005,w
  6883  0C68  0008               	return
  6884  0C69                     __end_of_isspace:	
  6885  0C69                     __ptext10:	
  6886 ;; *************** function _decodage_Lat_Long *****************
  6887 ;; Defined at:
  6888 ;;		line 175 in file "../Sources/gps.c"
  6889 ;; Parameters:    Size  Location     Type
  6890 ;;  Lat             1    wreg     PTR unsigned long 
  6891 ;;		 -> main@Lat(4), 
  6892 ;;  Long            1   46[BANK0 ] PTR unsigned long 
  6893 ;;		 -> main@Long(4), 
  6894 ;;  dopBis          1   47[BANK0 ] PTR unsigned char 
  6895 ;;		 -> main@dopBis(1), 
  6896 ;; Auto vars:     Size  Location     Type
  6897 ;;  Lat             1   55[BANK0 ] PTR unsigned long 
  6898 ;;		 -> main@Lat(4), 
  6899 ;;  Long_temp       4   56[BANK0 ] unsigned long 
  6900 ;;  dop_f           3   52[BANK0 ] float 
  6901 ;;  Char_temp       1   60[BANK0 ] unsigned char 
  6902 ;; Return value:  Size  Location     Type
  6903 ;;                  1    wreg      void 
  6904 ;; Registers used:
  6905 ;;		wreg, fsr0l, fsr0h, fsr1l, fsr1h, status,2, status,0, pclath, cstack
  6906 ;; Tracked objects:
  6907 ;;		On entry : 1F/0
  6908 ;;		On exit  : 1F/0
  6909 ;;		Unchanged: 0/0
  6910 ;; Data sizes:     COMMON   BANK0   BANK1   BANK2   BANK3   BANK4   BANK5   BANK6   BANK7   BANK8   BANK9  BANK10  BANK1
      +1  BANK12
  6911 ;;      Params:         0       2       0       0       0       0       0       0       0       0       0       0       
      +0       0
  6912 ;;      Locals:         0       9       0       0       0       0       0       0       0       0       0       0       
      +0       0
  6913 ;;      Temps:          0       4       0       0       0       0       0       0       0       0       0       0       
      +0       0
  6914 ;;      Totals:         0      15       0       0       0       0       0       0       0       0       0       0       
      +0       0
  6915 ;;Total ram usage:       15 bytes
  6916 ;; Hardware stack levels used:    1
  6917 ;; Hardware stack levels required when called:    5
  6918 ;; This function calls:
  6919 ;;		___ftge
  6920 ;;		___lmul
  6921 ;;		_atof
  6922 ;;		_atoi
  6923 ;; This function is called by:
  6924 ;;		_main
  6925 ;; This function uses a non-reentrant model
  6926 ;;
  6927                           
  6928                           
  6929                           ;psect for function _decodage_Lat_Long
  6930  0C69                     _decodage_Lat_Long:	
  6931                           
  6932                           ;incstack = 0
  6933                           ; Regs used in _decodage_Lat_Long: [wreg-fsr1h+status,2+status,0+pclath+cstack]
  6934                           ;decodage_Lat_Long@Lat stored from wreg
  6935  0C69  00D7               	movwf	decodage_Lat_Long@Lat
  6936                           
  6937                           ;gps.c: 176: unsigned char Char_temp;
  6938                           ;gps.c: 177: unsigned long Long_temp;
  6939                           ;gps.c: 178: float dop_f;
  6940                           ;gps.c: 183: Char_temp=(unsigned char)champsTrameGPSGGA[2][0]-0x30;
  6941  0C6A  3008               	movlw	8
  6942  0C6B  0086               	movwf	6
  6943  0C6C  3022               	movlw	34
  6944  0C6D  0087               	movwf	7
  6945  0C6E  3158               	addfsr 1,24
  6946  0C6F  0801               	movf	1,w
  6947  0C70  3ED0               	addlw	208
  6948  0C71  00DC               	movwf	decodage_Lat_Long@Char_temp
  6949                           
  6950                           ;gps.c: 184: Long_temp=(unsigned long)Char_temp*(unsigned long)10000000;
  6951  0C72  00F2               	movwf	___lmul@multiplier
  6952  0C73  3098               	movlw	152
  6953  0C74  2771  3188         	fcall	PL74	;call to abstracted procedure
  6954  0C76  27F1  3188         	fcall	PL168	;call to abstracted procedure
  6955  0C78  25FC  3188         	fcall	___lmul
  6956  0C7A  0875               	movf	?___lmul+3,w
  6957  0C7B  00DB               	movwf	decodage_Lat_Long@Long_temp+3
  6958  0C7C  26F6  3188         	fcall	PL6	;call to abstracted procedure
  6959                           
  6960                           ;gps.c: 185: *Lat= Long_temp;
  6961  0C7E  0857               	movf	decodage_Lat_Long@Lat,w
  6962  0C7F  2777  3188         	fcall	PL78	;call to abstracted procedure
  6963                           
  6964                           ;gps.c: 187: Char_temp=(unsigned char)champsTrameGPSGGA[2][1]-0x30;
  6965  0C81  3008               	movlw	8
  6966  0C82  0086               	movwf	6
  6967  0C83  3022               	movlw	34
  6968  0C84  0087               	movwf	7
  6969  0C85  3159               	addfsr 1,25
  6970  0C86  0801               	movf	1,w
  6971  0C87  3ED0               	addlw	208
  6972  0C88  00DC               	movwf	decodage_Lat_Long@Char_temp
  6973                           
  6974                           ;gps.c: 188: Long_temp=(unsigned long)Char_temp*(unsigned long)1000000;
  6975  0C89  00F2               	movwf	___lmul@multiplier
  6976  0C8A  300F               	movlw	15
  6977  0C8B  2771  3188         	fcall	PL74	;call to abstracted procedure
  6978  0C8D  27F6  3188         	fcall	PL176	;call to abstracted procedure
  6979  0C8F  25FC  3188         	fcall	___lmul
  6980                           
  6981                           ;gps.c: 189: *Lat= *Lat + Long_temp;
  6982  0C91  26AB  3188         	fcall	PL2	;call to abstracted procedure
  6983                           
  6984                           ;gps.c: 191: Char_temp=(unsigned char)champsTrameGPSGGA[2][2]-0x30;
  6985  0C93  3008               	movlw	8
  6986  0C94  0086               	movwf	6
  6987  0C95  3022               	movlw	34
  6988  0C96  0087               	movwf	7
  6989  0C97  315A               	addfsr 1,26
  6990  0C98  0801               	movf	1,w
  6991  0C99  3ED0               	addlw	208
  6992  0C9A  00DC               	movwf	decodage_Lat_Long@Char_temp
  6993                           
  6994                           ;gps.c: 192: Long_temp=(unsigned long)Char_temp*(unsigned long)100000;
  6995  0C9B  00F2               	movwf	___lmul@multiplier
  6996  0C9C  3001               	movlw	1
  6997  0C9D  2771  3188         	fcall	PL74	;call to abstracted procedure
  6998  0C9F  27FB  3188         	fcall	PL182	;call to abstracted procedure
  6999  0CA1  25FC  3188         	fcall	___lmul
  7000                           
  7001                           ;gps.c: 193: *Lat= *Lat + Long_temp;
  7002  0CA3  26AB  3188         	fcall	PL2	;call to abstracted procedure
  7003                           
  7004                           ;gps.c: 195: Char_temp=(unsigned char)champsTrameGPSGGA[2][3]-0x30;
  7005  0CA5  3008               	movlw	8
  7006  0CA6  0086               	movwf	6
  7007  0CA7  3022               	movlw	34
  7008  0CA8  0087               	movwf	7
  7009  0CA9  315B               	addfsr 1,27
  7010  0CAA  0801               	movf	1,w
  7011  0CAB  3ED0               	addlw	208
  7012  0CAC  00DC               	movwf	decodage_Lat_Long@Char_temp
  7013                           
  7014                           ;gps.c: 196: Long_temp=(unsigned long)Char_temp*(unsigned long)10000;
  7015  0CAD  00F2               	movwf	___lmul@multiplier
  7016  0CAE  3027               	movlw	39
  7017  0CAF  2783  3188         	fcall	PL82	;call to abstracted procedure
  7018  0CB1  3010               	movlw	16
  7019  0CB2  00F6               	movwf	___lmul@multiplicand
  7020  0CB3  25FC  3188         	fcall	___lmul
  7021                           
  7022                           ;gps.c: 197: *Lat= *Lat + Long_temp;
  7023  0CB5  26AB  3188         	fcall	PL2	;call to abstracted procedure
  7024                           
  7025                           ;gps.c: 199: Char_temp=(unsigned char)champsTrameGPSGGA[2][5]-0x30;
  7026  0CB7  3008               	movlw	8
  7027  0CB8  0086               	movwf	6
  7028  0CB9  3022               	movlw	34
  7029  0CBA  0087               	movwf	7
  7030  0CBB  315D               	addfsr 1,29
  7031  0CBC  0801               	movf	1,w
  7032  0CBD  3ED0               	addlw	208
  7033  0CBE  00DC               	movwf	decodage_Lat_Long@Char_temp
  7034                           
  7035                           ;gps.c: 200: Long_temp=(unsigned long)Char_temp*(unsigned long)1000;
  7036  0CBF  00F2               	movwf	___lmul@multiplier
  7037  0CC0  3003               	movlw	3
  7038  0CC1  2783  3188         	fcall	PL82	;call to abstracted procedure
  7039  0CC3  30E8               	movlw	232
  7040  0CC4  00F6               	movwf	___lmul@multiplicand
  7041  0CC5  25FC  3188         	fcall	___lmul
  7042                           
  7043                           ;gps.c: 201: *Lat= *Lat + Long_temp;
  7044  0CC7  26AB  3188         	fcall	PL2	;call to abstracted procedure
  7045                           
  7046                           ;gps.c: 203: Char_temp=(unsigned char)champsTrameGPSGGA[2][6]-0x30;
  7047  0CC9  3008               	movlw	8
  7048  0CCA  0086               	movwf	6
  7049  0CCB  3022               	movlw	34
  7050  0CCC  0087               	movwf	7
  7051  0CCD  315E               	addfsr 1,30
  7052  0CCE  0801               	movf	1,w
  7053  0CCF  3ED0               	addlw	208
  7054  0CD0  00DC               	movwf	decodage_Lat_Long@Char_temp
  7055                           
  7056                           ;gps.c: 204: Long_temp=(unsigned long)Char_temp*(unsigned long)100;
  7057  0CD1  00F2               	movwf	___lmul@multiplier
  7058  0CD2  3064               	movlw	100
  7059  0CD3  2763  3188         	fcall	PL54	;call to abstracted procedure
  7060  0CD5  25FC  3188         	fcall	___lmul
  7061                           
  7062                           ;gps.c: 205: *Lat= *Lat + Long_temp;
  7063  0CD7  26AB  3188         	fcall	PL2	;call to abstracted procedure
  7064                           
  7065                           ;gps.c: 207: Char_temp=(unsigned char)champsTrameGPSGGA[2][7]-0x30;
  7066  0CD9  3008               	movlw	8
  7067  0CDA  0086               	movwf	6
  7068  0CDB  3022               	movlw	34
  7069  0CDC  0087               	movwf	7
  7070  0CDD  315F               	addfsr 1,31
  7071  0CDE  0801               	movf	1,w
  7072  0CDF  3ED0               	addlw	208
  7073  0CE0  00DC               	movwf	decodage_Lat_Long@Char_temp
  7074                           
  7075                           ;gps.c: 208: Long_temp=(unsigned long)Char_temp*(unsigned long)10;
  7076  0CE1  00F2               	movwf	___lmul@multiplier
  7077  0CE2  300A               	movlw	10
  7078  0CE3  2763  3188         	fcall	PL54	;call to abstracted procedure
  7079  0CE5  25FC  3188         	fcall	___lmul
  7080                           
  7081                           ;gps.c: 209: *Lat= *Lat + Long_temp;
  7082  0CE7  26AB  3188         	fcall	PL2	;call to abstracted procedure
  7083                           
  7084                           ;gps.c: 211: Char_temp=(unsigned char)champsTrameGPSGGA[2][8]-0x30;
  7085  0CE9  3028               	movlw	40
  7086  0CEA  0086               	movwf	6
  7087                           
  7088                           ;gps.c: 212: Long_temp=(unsigned long)Char_temp;
  7089  0CEB  272C  3188         	fcall	PL30	;call to abstracted procedure
  7090                           
  7091                           ;gps.c: 213: *Lat= *Lat + Long_temp;
  7092  0CED  26FD  3188         	fcall	PL8	;call to abstracted procedure
  7093  0CEF  0857               	movf	decodage_Lat_Long@Lat,w
  7094  0CF0  2705  3188         	fcall	PL12	;call to abstracted procedure
  7095  0CF2  0857               	movf	decodage_Lat_Long@Lat,w
  7096  0CF3  2711  3188         	fcall	PL16	;call to abstracted procedure
  7097                           
  7098                           ;gps.c: 215: if(champsTrameGPSGGA[3][0] == 'S') *Lat=*Lat | 0x80000000;
  7099  0CF5  302C               	movlw	44
  7100  0CF6  0086               	movwf	6
  7101  0CF7  3022               	movlw	34
  7102  0CF8  0087               	movwf	7
  7103  0CF9  3053               	movlw	83
  7104  0CFA  0601               	xorwf	1,w
  7105  0CFB  1D03               	btfss	3,2
  7106  0CFC  2D06               	goto	l542
  7107  0CFD  0857               	movf	decodage_Lat_Long@Lat,w
  7108  0CFE  2749  3188         	fcall	PL46	;call to abstracted procedure
  7109  0D00  0857               	movf	decodage_Lat_Long@Lat,w
  7110  0D01  0086               	movwf	6
  7111  0D02  3001               	movlw	1	; select bank2/3
  7112  0D03  0087               	movwf	7
  7113  0D04  271B  3188         	fcall	PL18	;call to abstracted procedure
  7114  0D06                     l542:	
  7115                           
  7116                           ;gps.c: 220: Char_temp=(unsigned char)champsTrameGPSGGA[4][0]-0x30;
  7117  0D06  3038               	movlw	56
  7118                           
  7119                           ;gps.c: 221: Long_temp=(unsigned long)Char_temp*(unsigned long)100000000;
  7120  0D07  2724  3188         	fcall	PL24	;call to abstracted procedure
  7121  0D09  3005               	movlw	5
  7122  0D0A  01F3               	clrf	___lmul@multiplier+1
  7123  0D0B  01F4               	clrf	___lmul@multiplier+2
  7124  0D0C  01F5               	clrf	___lmul@multiplier+3
  7125  0D0D  00F9               	movwf	___lmul@multiplicand+3
  7126  0D0E  30F5               	movlw	245
  7127  0D0F  00F8               	movwf	___lmul@multiplicand+2
  7128  0D10  30E1               	movlw	225
  7129  0D11  00F7               	movwf	___lmul@multiplicand+1
  7130  0D12  3000               	movlw	0
  7131  0D13  01F6               	clrf	___lmul@multiplicand
  7132  0D14  25FC  3188         	fcall	___lmul
  7133  0D16  0875               	movf	?___lmul+3,w
  7134  0D17  00DB               	movwf	decodage_Lat_Long@Long_temp+3
  7135  0D18  26F6  3188         	fcall	PL6	;call to abstracted procedure
  7136                           
  7137                           ;gps.c: 222: *Long= Long_temp;
  7138  0D1A  084E               	movf	decodage_Lat_Long@Long,w
  7139  0D1B  2777  3188         	fcall	PL78	;call to abstracted procedure
  7140                           
  7141                           ;gps.c: 224: Char_temp=(unsigned char)champsTrameGPSGGA[4][1]-0x30;
  7142  0D1D  3039               	movlw	57
  7143                           
  7144                           ;gps.c: 225: Long_temp=(unsigned long)Char_temp*(unsigned long)10000000;
  7145  0D1E  2724  3188         	fcall	PL24	;call to abstracted procedure
  7146  0D20  3098               	movlw	152
  7147  0D21  2771  3188         	fcall	PL74	;call to abstracted procedure
  7148  0D23  27F1  3188         	fcall	PL168	;call to abstracted procedure
  7149  0D25  25FC  3188         	fcall	___lmul
  7150  0D27  0875               	movf	?___lmul+3,w
  7151                           
  7152                           ;gps.c: 226: *Long= *Long + Long_temp;
  7153  0D28  26D1  3188         	fcall	PL4	;call to abstracted procedure
  7154                           
  7155                           ;gps.c: 228: Char_temp=(unsigned char)champsTrameGPSGGA[4][2]-0x30;
  7156  0D2A  303A               	movlw	58
  7157                           
  7158                           ;gps.c: 229: Long_temp=(unsigned long)Char_temp*(unsigned long)1000000;
  7159  0D2B  2724  3188         	fcall	PL24	;call to abstracted procedure
  7160  0D2D  300F               	movlw	15
  7161  0D2E  2771  3188         	fcall	PL74	;call to abstracted procedure
  7162  0D30  27F6  3188         	fcall	PL176	;call to abstracted procedure
  7163  0D32  25FC  3188         	fcall	___lmul
  7164  0D34  0875               	movf	?___lmul+3,w
  7165                           
  7166                           ;gps.c: 230: *Long= *Long + Long_temp;
  7167  0D35  26D1  3188         	fcall	PL4	;call to abstracted procedure
  7168                           
  7169                           ;gps.c: 232: Char_temp=(unsigned char)champsTrameGPSGGA[4][3]-0x30;
  7170  0D37  303B               	movlw	59
  7171                           
  7172                           ;gps.c: 233: Long_temp=(unsigned long)Char_temp*(unsigned long)100000;
  7173  0D38  2724  3188         	fcall	PL24	;call to abstracted procedure
  7174  0D3A  3001               	movlw	1
  7175  0D3B  2771  3188         	fcall	PL74	;call to abstracted procedure
  7176  0D3D  27FB  3188         	fcall	PL182	;call to abstracted procedure
  7177  0D3F  25FC  3188         	fcall	___lmul
  7178  0D41  0875               	movf	?___lmul+3,w
  7179                           
  7180                           ;gps.c: 234: *Long= *Long + Long_temp;
  7181  0D42  26D1  3188         	fcall	PL4	;call to abstracted procedure
  7182                           
  7183                           ;gps.c: 236: Char_temp=(unsigned char)champsTrameGPSGGA[4][4]-0x30;
  7184  0D44  303C               	movlw	60
  7185                           
  7186                           ;gps.c: 237: Long_temp=(unsigned long)Char_temp*(unsigned long)10000;
  7187  0D45  2724  3188         	fcall	PL24	;call to abstracted procedure
  7188  0D47  3027               	movlw	39
  7189  0D48  2783  3188         	fcall	PL82	;call to abstracted procedure
  7190  0D4A  3010               	movlw	16
  7191  0D4B  00F6               	movwf	___lmul@multiplicand
  7192  0D4C  25FC  3188         	fcall	___lmul
  7193  0D4E  0875               	movf	?___lmul+3,w
  7194                           
  7195                           ;gps.c: 238: *Long= *Long + Long_temp;
  7196  0D4F  26D1  3188         	fcall	PL4	;call to abstracted procedure
  7197                           
  7198                           ;gps.c: 240: Char_temp=(unsigned char)champsTrameGPSGGA[4][6]-0x30;
  7199  0D51  303E               	movlw	62
  7200                           
  7201                           ;gps.c: 241: Long_temp=(unsigned long)Char_temp*(unsigned long)1000;
  7202  0D52  2724  3188         	fcall	PL24	;call to abstracted procedure
  7203  0D54  3003               	movlw	3
  7204  0D55  2783  3188         	fcall	PL82	;call to abstracted procedure
  7205  0D57  30E8               	movlw	232
  7206  0D58  00F6               	movwf	___lmul@multiplicand
  7207  0D59  25FC  3188         	fcall	___lmul
  7208  0D5B  0875               	movf	?___lmul+3,w
  7209                           
  7210                           ;gps.c: 242: *Long= *Long + Long_temp;
  7211  0D5C  26D1  3188         	fcall	PL4	;call to abstracted procedure
  7212                           
  7213                           ;gps.c: 244: Char_temp=(unsigned char)champsTrameGPSGGA[4][7]-0x30;
  7214  0D5E  303F               	movlw	63
  7215                           
  7216                           ;gps.c: 245: Long_temp=(unsigned long)Char_temp*(unsigned long)100;
  7217  0D5F  2724  3188         	fcall	PL24	;call to abstracted procedure
  7218  0D61  3064               	movlw	100
  7219  0D62  2763  3188         	fcall	PL54	;call to abstracted procedure
  7220  0D64  25FC  3188         	fcall	___lmul
  7221  0D66  0875               	movf	?___lmul+3,w
  7222                           
  7223                           ;gps.c: 246: *Long= *Long + Long_temp;
  7224  0D67  26D1  3188         	fcall	PL4	;call to abstracted procedure
  7225                           
  7226                           ;gps.c: 248: Char_temp=(unsigned char)champsTrameGPSGGA[4][8]-0x30;
  7227  0D69  3040               	movlw	64
  7228                           
  7229                           ;gps.c: 249: Long_temp=(unsigned long)Char_temp*(unsigned long)10;
  7230  0D6A  2724  3188         	fcall	PL24	;call to abstracted procedure
  7231  0D6C  300A               	movlw	10
  7232  0D6D  2763  3188         	fcall	PL54	;call to abstracted procedure
  7233  0D6F  25FC  3188         	fcall	___lmul
  7234  0D71  0875               	movf	?___lmul+3,w
  7235                           
  7236                           ;gps.c: 250: *Long= *Long + Long_temp;
  7237  0D72  26D1  3188         	fcall	PL4	;call to abstracted procedure
  7238                           
  7239                           ;gps.c: 252: Char_temp=(unsigned char)champsTrameGPSGGA[4][9]-0x30;
  7240  0D74  3041               	movlw	65
  7241  0D75  0086               	movwf	6
  7242                           
  7243                           ;gps.c: 253: Long_temp=(unsigned long)Char_temp;
  7244  0D76  272C  3188         	fcall	PL30	;call to abstracted procedure
  7245                           
  7246                           ;gps.c: 254: *Long= *Long + Long_temp;
  7247  0D78  26FD  3188         	fcall	PL8	;call to abstracted procedure
  7248  0D7A  084E               	movf	decodage_Lat_Long@Long,w
  7249  0D7B  2705  3188         	fcall	PL12	;call to abstracted procedure
  7250  0D7D  084E               	movf	decodage_Lat_Long@Long,w
  7251  0D7E  2711  3188         	fcall	PL16	;call to abstracted procedure
  7252                           
  7253                           ;gps.c: 256: if(champsTrameGPSGGA[5][0] == 'W') *Long=*Long | 0x80000000;
  7254  0D80  3044               	movlw	68
  7255  0D81  0086               	movwf	6
  7256  0D82  3022               	movlw	34
  7257  0D83  0087               	movwf	7
  7258  0D84  3057               	movlw	87
  7259  0D85  0601               	xorwf	1,w
  7260  0D86  1D03               	btfss	3,2
  7261  0D87  2D91               	goto	l6503
  7262  0D88  084E               	movf	decodage_Lat_Long@Long,w
  7263  0D89  2749  3188         	fcall	PL46	;call to abstracted procedure
  7264  0D8B  084E               	movf	decodage_Lat_Long@Long,w
  7265  0D8C  0086               	movwf	6
  7266  0D8D  3001               	movlw	1	; select bank2/3
  7267  0D8E  0087               	movwf	7
  7268  0D8F  271B  3188         	fcall	PL18	;call to abstracted procedure
  7269  0D91                     l6503:	
  7270                           
  7271                           ;gps.c: 258: dop_f=atof(champsTrameGPSGGA[8]);
  7272  0D91  3068               	movlw	104
  7273  0D92  00CB               	movwf	atof@s
  7274  0D93  3022               	movlw	34
  7275  0D94  00CC               	movwf	atof@s+1
  7276  0D95  2621  3188         	fcall	_atof
  7277  0D97  084B               	movf	?_atof,w
  7278  0D98  00D4               	movwf	decodage_Lat_Long@dop_f
  7279  0D99  084C               	movf	?_atof+1,w
  7280  0D9A  00D5               	movwf	decodage_Lat_Long@dop_f+1
  7281  0D9B  084D               	movf	?_atof+2,w
  7282  0D9C  00D6               	movwf	decodage_Lat_Long@dop_f+2
  7283                           
  7284                           ;gps.c: 259: if(dop_f < 1.0) *dopBis = 0;
  7285  0D9D  2795               	fcall	PL98	;call to abstracted procedure
  7286  0D9E  3080               	movlw	128
  7287  0D9F  01F5               	clrf	___ftge@ff2
  7288  0DA0  00F6               	movwf	___ftge@ff2+1
  7289  0DA1  303F               	movlw	63
  7290  0DA2  00F7               	movwf	___ftge@ff2+2
  7291  0DA3  3184  24B4  3188   	fcall	___ftge
  7292  0DA6  1803               	btfsc	3,0
  7293  0DA7  2DAC               	goto	l6509
  7294  0DA8  279C  3188         	fcall	PL100	;call to abstracted procedure
  7295  0DAA  0181               	clrf	1
  7296  0DAB  2DD0               	goto	l6519
  7297  0DAC                     l6509:	
  7298                           
  7299                           ;gps.c: 260: else if(dop_f < 2.0) *dopBis = 1;
  7300  0DAC  0020               	movlb	0	; select bank0
  7301  0DAD  2795               	fcall	PL98	;call to abstracted procedure
  7302  0DAE  3040               	movlw	64
  7303  0DAF  01F5               	clrf	___ftge@ff2
  7304  0DB0  01F6               	clrf	___ftge@ff2+1
  7305  0DB1  00F7               	movwf	___ftge@ff2+2
  7306  0DB2  3184  24B4  3188   	fcall	___ftge
  7307  0DB5  1803               	btfsc	3,0
  7308  0DB6  2DBC               	goto	l6513
  7309  0DB7  279C  3188         	fcall	PL100	;call to abstracted procedure
  7310  0DB9  0181               	clrf	1
  7311  0DBA  0A81               	incf	1,f
  7312  0DBB  2DD0               	goto	l6519
  7313  0DBC                     l6513:	
  7314                           
  7315                           ;gps.c: 261: else if(dop_f < 5.0) *dopBis = 2;
  7316  0DBC  0020               	movlb	0	; select bank0
  7317  0DBD  2795               	fcall	PL98	;call to abstracted procedure
  7318  0DBE  30A0               	movlw	160
  7319  0DBF  01F5               	clrf	___ftge@ff2
  7320  0DC0  00F6               	movwf	___ftge@ff2+1
  7321  0DC1  3040               	movlw	64
  7322  0DC2  00F7               	movwf	___ftge@ff2+2
  7323  0DC3  3184  24B4  3188   	fcall	___ftge
  7324  0DC6  1803               	btfsc	3,0
  7325  0DC7  2DCC               	goto	l6517
  7326  0DC8  279C  3188         	fcall	PL100	;call to abstracted procedure
  7327  0DCA  3002               	movlw	2
  7328  0DCB  2DCF               	goto	L16
  7329  0DCC                     l6517:	
  7330                           
  7331                           ;gps.c: 262: else *dopBis = 3;
  7332  0DCC  279C  3188         	fcall	PL100	;call to abstracted procedure
  7333  0DCE  3003               	movlw	3
  7334  0DCF                     L16:	
  7335  0DCF  0081               	movwf	1
  7336  0DD0                     l6519:	
  7337                           
  7338                           ;gps.c: 264: *dopBis=(*dopBis <<6) & 0xC0;
  7339  0DD0  2759  3188         	fcall	PL52	;call to abstracted procedure
  7340  0DD2  00D0               	movwf	??_decodage_Lat_Long
  7341  0DD3  0CD0               	rrf	??_decodage_Lat_Long,f
  7342  0DD4  0CD0               	rrf	??_decodage_Lat_Long,f
  7343  0DD5  0C50               	rrf	??_decodage_Lat_Long,w
  7344  0DD6  39C0               	andlw	192
  7345  0DD7  0081               	movwf	1
  7346  0DD8  084F               	movf	decodage_Lat_Long@dopBis,w
  7347  0DD9  0086               	movwf	6
  7348  0DDA  30C0               	movlw	192
  7349  0DDB  0581               	andwf	1,f
  7350                           
  7351                           ;gps.c: 266: Char_temp= atoi(champsTrameGPSGGA[7]);
  7352  0DDC  305C               	movlw	92
  7353  0DDD  00F8               	movwf	atoi@s
  7354  0DDE  3022               	movlw	34
  7355  0DDF  00F9               	movwf	atoi@s+1
  7356  0DE0  262E  3188         	fcall	_atoi
  7357  0DE2  0878               	movf	?_atoi,w
  7358  0DE3  00DC               	movwf	decodage_Lat_Long@Char_temp
  7359                           
  7360                           ;gps.c: 267: if(Char_temp < 4);
  7361  0DE4  3004               	movlw	4
  7362  0DE5  025C               	subwf	decodage_Lat_Long@Char_temp,w
  7363  0DE6  1C03               	btfss	3,0
  7364  0DE7  0008               	return
  7365                           
  7366                           ;gps.c: 268: else if(Char_temp < 7) *dopBis = *dopBis | (0b00010000);
  7367  0DE8  3007               	movlw	7
  7368  0DE9  025C               	subwf	decodage_Lat_Long@Char_temp,w
  7369  0DEA  1803               	skipnc
  7370  0DEB  2DF0               	goto	l6533
  7371  0DEC  2759               	fcall	PL52	;call to abstracted procedure
  7372  0DED  3810               	iorlw	16
  7373  0DEE  0081               	movwf	1
  7374  0DEF  0008               	return
  7375  0DF0                     l6533:	
  7376                           
  7377                           ;gps.c: 269: else if(Char_temp < 9) *dopBis = *dopBis | (0b00100000);
  7378  0DF0  3009               	movlw	9
  7379  0DF1  025C               	subwf	decodage_Lat_Long@Char_temp,w
  7380  0DF2  2759  3188         	fcall	PL52	;call to abstracted procedure
  7381  0DF4  1803               	skipnc
  7382  0DF5  2DF9               	goto	L17
  7383  0DF6  3820               	iorlw	32
  7384  0DF7  0081               	movwf	1
  7385  0DF8  0008               	return
  7386  0DF9                     L17:	
  7387                           ;gps.c: 270: else *dopBis = *dopBis | (0b00110000);
  7388                           
  7389  0DF9  3830               	iorlw	48
  7390  0DFA  0081               	movwf	1
  7391  0DFB  0008               	return
  7392  0DFC                     __end_of_decodage_Lat_Long:	
  7393  0DFC                     __ptext16:	
  7394 ;; *************** function ___lmul *****************
  7395 ;; Defined at:
  7396 ;;		line 15 in file "C:\Program Files (x86)\Microchip\xc8\v1.44\sources\common\Umul32.c"
  7397 ;; Parameters:    Size  Location     Type
  7398 ;;  multiplier      4    2[COMMON] unsigned long 
  7399 ;;  multiplicand    4    6[COMMON] unsigned long 
  7400 ;; Auto vars:     Size  Location     Type
  7401 ;;  product         4    0[BANK0 ] unsigned long 
  7402 ;; Return value:  Size  Location     Type
  7403 ;;                  4    2[COMMON] unsigned long 
  7404 ;; Registers used:
  7405 ;;		wreg, status,2, status,0
  7406 ;; Tracked objects:
  7407 ;;		On entry : 1F/0
  7408 ;;		On exit  : 1F/0
  7409 ;;		Unchanged: 0/0
  7410 ;; Data sizes:     COMMON   BANK0   BANK1   BANK2   BANK3   BANK4   BANK5   BANK6   BANK7   BANK8   BANK9  BANK10  BANK1
      +1  BANK12
  7411 ;;      Params:         8       0       0       0       0       0       0       0       0       0       0       0       
      +0       0
  7412 ;;      Locals:         0       4       0       0       0       0       0       0       0       0       0       0       
      +0       0
  7413 ;;      Temps:          0       0       0       0       0       0       0       0       0       0       0       0       
      +0       0
  7414 ;;      Totals:         8       4       0       0       0       0       0       0       0       0       0       0       
      +0       0
  7415 ;;Total ram usage:       12 bytes
  7416 ;; Hardware stack levels used:    1
  7417 ;; Hardware stack levels required when called:    1
  7418 ;; This function calls:
  7419 ;;		Nothing
  7420 ;; This function is called by:
  7421 ;;		_decodage_Lat_Long
  7422 ;;		_strtod
  7423 ;; This function uses a non-reentrant model
  7424 ;;
  7425                           
  7426                           
  7427                           ;psect for function ___lmul
  7428  0DFC                     ___lmul:	
  7429                           
  7430                           ;incstack = 0
  7431                           ; Regs used in ___lmul: [wreg+status,2+status,0]
  7432  0DFC  01A0               	clrf	___lmul@product
  7433  0DFD  01A1               	clrf	___lmul@product+1
  7434  0DFE  01A2               	clrf	___lmul@product+2
  7435  0DFF  01A3               	clrf	___lmul@product+3
  7436  0E00                     l651:	
  7437  0E00  1C72               	btfss	___lmul@multiplier,0
  7438  0E01  2E0A               	goto	l5223
  7439  0E02  0876               	movf	___lmul@multiplicand,w
  7440  0E03  07A0               	addwf	___lmul@product,f
  7441  0E04  0877               	movf	___lmul@multiplicand+1,w
  7442  0E05  3DA1               	addwfc	___lmul@product+1,f
  7443  0E06  0878               	movf	___lmul@multiplicand+2,w
  7444  0E07  3DA2               	addwfc	___lmul@product+2,f
  7445  0E08  0879               	movf	___lmul@multiplicand+3,w
  7446  0E09  3DA3               	addwfc	___lmul@product+3,f
  7447  0E0A                     l5223:	
  7448  0E0A  35F6               	lslf	___lmul@multiplicand,f
  7449  0E0B  0DF7               	rlf	___lmul@multiplicand+1,f
  7450  0E0C  0DF8               	rlf	___lmul@multiplicand+2,f
  7451  0E0D  0DF9               	rlf	___lmul@multiplicand+3,f
  7452  0E0E  36F5               	lsrf	___lmul@multiplier+3,f
  7453  0E0F  0CF4               	rrf	___lmul@multiplier+2,f
  7454  0E10  0CF3               	rrf	___lmul@multiplier+1,f
  7455  0E11  0CF2               	rrf	___lmul@multiplier,f
  7456  0E12  0875               	movf	___lmul@multiplier+3,w
  7457  0E13  0474               	iorwf	___lmul@multiplier+2,w
  7458  0E14  0473               	iorwf	___lmul@multiplier+1,w
  7459  0E15  0472               	iorwf	___lmul@multiplier,w
  7460  0E16  1D03               	skipz
  7461  0E17  2E00               	goto	l651
  7462  0E18  0823               	movf	___lmul@product+3,w
  7463  0E19  00F5               	movwf	?___lmul+3
  7464  0E1A  0822               	movf	___lmul@product+2,w
  7465  0E1B  00F4               	movwf	?___lmul+2
  7466  0E1C  0821               	movf	___lmul@product+1,w
  7467  0E1D  00F3               	movwf	?___lmul+1
  7468  0E1E  0820               	movf	___lmul@product,w
  7469  0E1F  00F2               	movwf	?___lmul
  7470  0E20  0008               	return
  7471  0E21                     __end_of___lmul:	
  7472  0E21                     __ptext12:	
  7473 ;; *************** function _atof *****************
  7474 ;; Defined at:
  7475 ;;		line 200 in file "C:\Program Files (x86)\Microchip\xc8\v1.44\sources\common\atof.c"
  7476 ;; Parameters:    Size  Location     Type
  7477 ;;  s               2   43[BANK0 ] PTR const unsigned char 
  7478 ;;		 -> champsTrameGPSVTG(96), champsTrameGPSGGA(192), 
  7479 ;; Auto vars:     Size  Location     Type
  7480 ;;		None
  7481 ;; Return value:  Size  Location     Type
  7482 ;;                  3   43[BANK0 ] PTR const unsigned char 
  7483 ;; Registers used:
  7484 ;;		wreg, fsr1l, fsr1h, status,2, status,0, pclath, cstack
  7485 ;; Tracked objects:
  7486 ;;		On entry : 1F/0
  7487 ;;		On exit  : 1F/0
  7488 ;;		Unchanged: 0/0
  7489 ;; Data sizes:     COMMON   BANK0   BANK1   BANK2   BANK3   BANK4   BANK5   BANK6   BANK7   BANK8   BANK9  BANK10  BANK1
      +1  BANK12
  7490 ;;      Params:         0       3       0       0       0       0       0       0       0       0       0       0       
      +0       0
  7491 ;;      Locals:         0       0       0       0       0       0       0       0       0       0       0       0       
      +0       0
  7492 ;;      Temps:          0       0       0       0       0       0       0       0       0       0       0       0       
      +0       0
  7493 ;;      Totals:         0       3       0       0       0       0       0       0       0       0       0       0       
      +0       0
  7494 ;;Total ram usage:        3 bytes
  7495 ;; Hardware stack levels used:    1
  7496 ;; Hardware stack levels required when called:    4
  7497 ;; This function calls:
  7498 ;;		_strtod
  7499 ;; This function is called by:
  7500 ;;		_decodage_VTG
  7501 ;;		_decodage_Lat_Long
  7502 ;; This function uses a non-reentrant model
  7503 ;;
  7504                           
  7505                           
  7506                           ;psect for function _atof
  7507  0E21                     _atof:	
  7508                           
  7509                           ;incstack = 0
  7510                           ; Regs used in _atof: [wreg+fsr1l+fsr1h+status,2+status,0+pclath+cstack]
  7511  0E21  084C               	movf	atof@s+1,w
  7512  0E22  00C2               	movwf	strtod@s+1
  7513  0E23  084B               	movf	atof@s,w
  7514  0E24  00C1               	movwf	strtod@s
  7515  0E25  01C3               	clrf	strtod@res
  7516  0E26  22A5               	fcall	_strtod
  7517  0E27  0841               	movf	?_strtod,w
  7518  0E28  00CB               	movwf	?_atof
  7519  0E29  0842               	movf	?_strtod+1,w
  7520  0E2A  00CC               	movwf	?_atof+1
  7521  0E2B  0843               	movf	?_strtod+2,w
  7522  0E2C  00CD               	movwf	?_atof+2
  7523  0E2D  0008               	return
  7524  0E2E                     __end_of_atof:	
  7525  0E2E                     __ptext11:	
  7526 ;; *************** function _atoi *****************
  7527 ;; Defined at:
  7528 ;;		line 5 in file "C:\Program Files (x86)\Microchip\xc8\v1.44\sources\common\atoi.c"
  7529 ;; Parameters:    Size  Location     Type
  7530 ;;  s               2    8[COMMON] PTR const unsigned char 
  7531 ;;		 -> champsTrameGPSGGA(192), 
  7532 ;; Auto vars:     Size  Location     Type
  7533 ;;  a               2    5[BANK0 ] int 
  7534 ;;  sign            1    4[BANK0 ] unsigned char 
  7535 ;; Return value:  Size  Location     Type
  7536 ;;                  2    8[COMMON] int 
  7537 ;; Registers used:
  7538 ;;		wreg, fsr1l, fsr1h, status,2, status,0, pclath, cstack
  7539 ;; Tracked objects:
  7540 ;;		On entry : 1F/0
  7541 ;;		On exit  : 1F/0
  7542 ;;		Unchanged: 0/0
  7543 ;; Data sizes:     COMMON   BANK0   BANK1   BANK2   BANK3   BANK4   BANK5   BANK6   BANK7   BANK8   BANK9  BANK10  BANK1
      +1  BANK12
  7544 ;;      Params:         2       0       0       0       0       0       0       0       0       0       0       0       
      +0       0
  7545 ;;      Locals:         0       3       0       0       0       0       0       0       0       0       0       0       
      +0       0
  7546 ;;      Temps:          0       4       0       0       0       0       0       0       0       0       0       0       
      +0       0
  7547 ;;      Totals:         2       7       0       0       0       0       0       0       0       0       0       0       
      +0       0
  7548 ;;Total ram usage:        9 bytes
  7549 ;; Hardware stack levels used:    1
  7550 ;; Hardware stack levels required when called:    2
  7551 ;; This function calls:
  7552 ;;		___wmul
  7553 ;;		_isdigit
  7554 ;; This function is called by:
  7555 ;;		_decodage_Lat_Long
  7556 ;; This function uses a non-reentrant model
  7557 ;;
  7558                           
  7559                           
  7560                           ;psect for function _atoi
  7561  0E2E                     _atoi:	
  7562  0E2E                     l5903:	
  7563                           ;incstack = 0
  7564                           ; Regs used in _atoi: [wreg+fsr1l+fsr1h+status,2+status,0+pclath+cstack]
  7565                           
  7566  0E2E  0878               	movf	atoi@s,w
  7567  0E2F  0086               	movwf	6
  7568  0E30  0879               	movf	atoi@s+1,w
  7569  0E31  0087               	movwf	7
  7570  0E32  3020               	movlw	32
  7571  0E33  0601               	xorwf	1,w
  7572  0E34  1D03               	btfss	3,2
  7573  0E35  2E3A               	goto	l5905
  7574  0E36                     l5901:	
  7575  0E36  0AF8               	incf	atoi@s,f
  7576  0E37  1903               	skipnz
  7577  0E38  0AF9               	incf	atoi@s+1,f
  7578  0E39  2E2E               	goto	l5903
  7579  0E3A                     l5905:	
  7580  0E3A  0878               	movf	atoi@s,w
  7581  0E3B  0086               	movwf	6
  7582  0E3C  0879               	movf	atoi@s+1,w
  7583  0E3D  0087               	movwf	7
  7584  0E3E  3009               	movlw	9
  7585  0E3F  0601               	xorwf	1,w
  7586  0E40  1903               	btfsc	3,2
  7587  0E41  2E36               	goto	l5901
  7588  0E42  01A5               	clrf	atoi@a
  7589  0E43  01A6               	clrf	atoi@a+1
  7590  0E44  01A4               	clrf	atoi@sign
  7591  0E45  0878               	movf	atoi@s,w
  7592  0E46  0086               	movwf	6
  7593  0E47  0879               	movf	atoi@s+1,w
  7594  0E48  0087               	movwf	7
  7595  0E49  302D               	movlw	45
  7596  0E4A  0601               	xorwf	1,w
  7597  0E4B  1D03               	btfss	3,2
  7598  0E4C  2E4F               	goto	l5913
  7599  0E4D  0AA4               	incf	atoi@sign,f
  7600  0E4E  2E76               	goto	l5915
  7601  0E4F                     l5913:	
  7602  0E4F  0878               	movf	atoi@s,w
  7603  0E50  0086               	movwf	6
  7604  0E51  0879               	movf	atoi@s+1,w
  7605  0E52  0087               	movwf	7
  7606  0E53  302B               	movlw	43
  7607  0E54  0601               	xorwf	1,w
  7608  0E55  1903               	btfsc	3,2
  7609  0E56  2E76               	goto	l5915
  7610  0E57                     l5921:	
  7611  0E57  27E6  3188         	fcall	PL148	;call to abstracted procedure
  7612  0E59  241A  3188         	fcall	_isdigit
  7613  0E5B  1C03               	btfss	3,0
  7614  0E5C  2E7A               	goto	l5923
  7615  0E5D  27E6  3188         	fcall	PL148	;call to abstracted procedure
  7616  0E5F  00A0               	movwf	??_atoi
  7617  0E60  01A1               	clrf	??_atoi+1
  7618  0E61  0826               	movf	atoi@a+1,w
  7619  0E62  00F3               	movwf	___wmul@multiplier+1
  7620  0E63  0825               	movf	atoi@a,w
  7621  0E64  00F2               	movwf	___wmul@multiplier
  7622  0E65  300A               	movlw	10
  7623  0E66  00F4               	movwf	___wmul@multiplicand
  7624  0E67  01F5               	clrf	___wmul@multiplicand+1
  7625  0E68  268E  3188         	fcall	___wmul
  7626  0E6A  0820               	movf	??_atoi,w
  7627  0E6B  0772               	addwf	?___wmul,w
  7628  0E6C  00A2               	movwf	??_atoi+2
  7629  0E6D  0821               	movf	??_atoi+1,w
  7630  0E6E  3D73               	addwfc	?___wmul+1,w
  7631  0E6F  00A3               	movwf	??_atoi+3
  7632  0E70  0822               	movf	??_atoi+2,w
  7633  0E71  3ED0               	addlw	208
  7634  0E72  00A5               	movwf	atoi@a
  7635  0E73  30FF               	movlw	255
  7636  0E74  3D23               	addwfc	??_atoi+3,w
  7637  0E75  00A6               	movwf	atoi@a+1
  7638  0E76                     l5915:	
  7639  0E76  0AF8               	incf	atoi@s,f
  7640  0E77  1903               	skipnz
  7641  0E78  0AF9               	incf	atoi@s+1,f
  7642  0E79  2E57               	goto	l5921
  7643  0E7A                     l5923:	
  7644  0E7A  0824               	movf	atoi@sign,w
  7645  0E7B  1903               	btfsc	3,2
  7646  0E7C  2E89               	goto	l5929
  7647  0E7D  0925               	comf	atoi@a,w
  7648  0E7E  00A0               	movwf	??_atoi
  7649  0E7F  0926               	comf	atoi@a+1,w
  7650  0E80  00A1               	movwf	??_atoi+1
  7651  0E81  0AA0               	incf	??_atoi,f
  7652  0E82  1903               	skipnz
  7653  0E83  0AA1               	incf	??_atoi+1,f
  7654  0E84  0820               	movf	??_atoi,w
  7655  0E85  00F8               	movwf	?_atoi
  7656  0E86  0821               	movf	??_atoi+1,w
  7657  0E87  00F9               	movwf	?_atoi+1
  7658  0E88  0008               	return
  7659  0E89                     l5929:	
  7660  0E89  0826               	movf	atoi@a+1,w
  7661  0E8A  00F9               	movwf	?_atoi+1
  7662  0E8B  0825               	movf	atoi@a,w
  7663  0E8C  00F8               	movwf	?_atoi
  7664  0E8D  0008               	return
  7665  0E8E                     __end_of_atoi:	
  7666  0E8E                     __ptext24:	
  7667 ;; *************** function ___wmul *****************
  7668 ;; Defined at:
  7669 ;;		line 15 in file "C:\Program Files (x86)\Microchip\xc8\v1.44\sources\common\Umul16.c"
  7670 ;; Parameters:    Size  Location     Type
  7671 ;;  multiplier      2    2[COMMON] unsigned int 
  7672 ;;  multiplicand    2    4[COMMON] unsigned int 
  7673 ;; Auto vars:     Size  Location     Type
  7674 ;;  product         2    6[COMMON] unsigned int 
  7675 ;; Return value:  Size  Location     Type
  7676 ;;                  2    2[COMMON] unsigned int 
  7677 ;; Registers used:
  7678 ;;		wreg, status,2, status,0
  7679 ;; Tracked objects:
  7680 ;;		On entry : 1F/0
  7681 ;;		On exit  : 1F/0
  7682 ;;		Unchanged: 1F/0
  7683 ;; Data sizes:     COMMON   BANK0   BANK1   BANK2   BANK3   BANK4   BANK5   BANK6   BANK7   BANK8   BANK9  BANK10  BANK1
      +1  BANK12
  7684 ;;      Params:         4       0       0       0       0       0       0       0       0       0       0       0       
      +0       0
  7685 ;;      Locals:         2       0       0       0       0       0       0       0       0       0       0       0       
      +0       0
  7686 ;;      Temps:          0       0       0       0       0       0       0       0       0       0       0       0       
      +0       0
  7687 ;;      Totals:         6       0       0       0       0       0       0       0       0       0       0       0       
      +0       0
  7688 ;;Total ram usage:        6 bytes
  7689 ;; Hardware stack levels used:    1
  7690 ;; Hardware stack levels required when called:    1
  7691 ;; This function calls:
  7692 ;;		Nothing
  7693 ;; This function is called by:
  7694 ;;		_Reinit_trame_GPS
  7695 ;;		_decode_trame_GPS
  7696 ;;		_atoi
  7697 ;; This function uses a non-reentrant model
  7698 ;;
  7699                           
  7700                           
  7701                           ;psect for function ___wmul
  7702  0E8E                     ___wmul:	
  7703                           
  7704                           ;incstack = 0
  7705                           ; Regs used in ___wmul: [wreg+status,2+status,0]
  7706  0E8E  01F6               	clrf	___wmul@product
  7707  0E8F  01F7               	clrf	___wmul@product+1
  7708  0E90                     l5555:	
  7709  0E90  1C72               	btfss	___wmul@multiplier,0
  7710  0E91  2E96               	goto	l5559
  7711  0E92  0874               	movf	___wmul@multiplicand,w
  7712  0E93  07F6               	addwf	___wmul@product,f
  7713  0E94  0875               	movf	___wmul@multiplicand+1,w
  7714  0E95  3DF7               	addwfc	___wmul@product+1,f
  7715  0E96                     l5559:	
  7716  0E96  35F4               	lslf	___wmul@multiplicand,f
  7717  0E97  0DF5               	rlf	___wmul@multiplicand+1,f
  7718  0E98  36F3               	lsrf	___wmul@multiplier+1,f
  7719  0E99  0CF2               	rrf	___wmul@multiplier,f
  7720  0E9A  0872               	movf	___wmul@multiplier,w
  7721  0E9B  0473               	iorwf	___wmul@multiplier+1,w
  7722  0E9C  1D03               	btfss	3,2
  7723  0E9D  2E90               	goto	l5555
  7724  0E9E  0877               	movf	___wmul@product+1,w
  7725  0E9F  00F3               	movwf	?___wmul+1
  7726  0EA0  0876               	movf	___wmul@product,w
  7727  0EA1  00F2               	movwf	?___wmul
  7728  0EA2  0008               	return
  7729  0EA3                     __end_of___wmul:	
  7730  0EA3                     __ptext17:	
  7731 ;; *************** function ___ftneg *****************
  7732 ;; Defined at:
  7733 ;;		line 15 in file "C:\Program Files (x86)\Microchip\xc8\v1.44\sources\common\ftneg.c"
  7734 ;; Parameters:    Size  Location     Type
  7735 ;;  f1              3    2[COMMON] float 
  7736 ;; Auto vars:     Size  Location     Type
  7737 ;;		None
  7738 ;; Return value:  Size  Location     Type
  7739 ;;                  3    2[COMMON] float 
  7740 ;; Registers used:
  7741 ;;		wreg
  7742 ;; Tracked objects:
  7743 ;;		On entry : 1F/0
  7744 ;;		On exit  : 1F/0
  7745 ;;		Unchanged: 1F/0
  7746 ;; Data sizes:     COMMON   BANK0   BANK1   BANK2   BANK3   BANK4   BANK5   BANK6   BANK7   BANK8   BANK9  BANK10  BANK1
      +1  BANK12
  7747 ;;      Params:         3       0       0       0       0       0       0       0       0       0       0       0       
      +0       0
  7748 ;;      Locals:         0       0       0       0       0       0       0       0       0       0       0       0       
      +0       0
  7749 ;;      Temps:          0       0       0       0       0       0       0       0       0       0       0       0       
      +0       0
  7750 ;;      Totals:         3       0       0       0       0       0       0       0       0       0       0       0       
      +0       0
  7751 ;;Total ram usage:        3 bytes
  7752 ;; Hardware stack levels used:    1
  7753 ;; Hardware stack levels required when called:    1
  7754 ;; This function calls:
  7755 ;;		Nothing
  7756 ;; This function is called by:
  7757 ;;		_strtod
  7758 ;; This function uses a non-reentrant model
  7759 ;;
  7760                           
  7761                           
  7762                           ;psect for function ___ftneg
  7763  0EA3                     ___ftneg:	
  7764                           
  7765                           ;incstack = 0
  7766                           ; Regs used in ___ftneg: [wreg]
  7767  0EA3  0874               	movf	___ftneg@f1+2,w
  7768  0EA4  0473               	iorwf	___ftneg@f1+1,w
  7769  0EA5  0472               	iorwf	___ftneg@f1,w
  7770  0EA6  1903               	skipnz
  7771  0EA7  0008               	return
  7772  0EA8  3080               	movlw	128
  7773  0EA9  06F4               	xorwf	___ftneg@f1+2,f
  7774  0EAA  0008               	return
  7775  0EAB                     __end_of___ftneg:	
  7776  0EAB                     PL2:	
  7777  0EAB  0875               	movf	?___lmul+3,w
  7778  0EAC  00DB               	movwf	decodage_Lat_Long@Long_temp+3
  7779  0EAD  0874               	movf	?___lmul+2,w
  7780  0EAE  00DA               	movwf	decodage_Lat_Long@Long_temp+2
  7781  0EAF  0873               	movf	?___lmul+1,w
  7782  0EB0  00D9               	movwf	decodage_Lat_Long@Long_temp+1
  7783  0EB1  0872               	movf	?___lmul,w
  7784  0EB2  00D8               	movwf	decodage_Lat_Long@Long_temp
  7785  0EB3  00D0               	movwf	??_decodage_Lat_Long
  7786  0EB4  0859               	movf	decodage_Lat_Long@Long_temp+1,w
  7787  0EB5  00D1               	movwf	??_decodage_Lat_Long+1
  7788  0EB6  085A               	movf	decodage_Lat_Long@Long_temp+2,w
  7789  0EB7  00D2               	movwf	??_decodage_Lat_Long+2
  7790  0EB8  085B               	movf	decodage_Lat_Long@Long_temp+3,w
  7791  0EB9  00D3               	movwf	??_decodage_Lat_Long+3
  7792  0EBA  0857               	movf	decodage_Lat_Long@Lat,w
  7793  0EBB  0086               	movwf	6
  7794  0EBC  3001               	movlw	1	; select bank2/3
  7795  0EBD  0087               	movwf	7
  7796  0EBE  3F40               	moviw [0]fsr1
  7797  0EBF  07D0               	addwf	??_decodage_Lat_Long,f
  7798  0EC0  3F41               	moviw [1]fsr1
  7799  0EC1  3DD1               	addwfc	??_decodage_Lat_Long+1,f
  7800  0EC2  3F42               	moviw [2]fsr1
  7801  0EC3  3DD2               	addwfc	??_decodage_Lat_Long+2,f
  7802  0EC4  3F43               	moviw [3]fsr1
  7803  0EC5  3DD3               	addwfc	??_decodage_Lat_Long+3,f
  7804  0EC6  0857               	movf	decodage_Lat_Long@Lat,w
  7805  0EC7  0086               	movwf	6
  7806  0EC8  0850               	movf	??_decodage_Lat_Long,w
  7807  0EC9  3FC0               	movwi [0]fsr1
  7808  0ECA  0851               	movf	??_decodage_Lat_Long+1,w
  7809  0ECB  3FC1               	movwi [1]fsr1
  7810  0ECC  0852               	movf	??_decodage_Lat_Long+2,w
  7811  0ECD  3FC2               	movwi [2]fsr1
  7812  0ECE  0853               	movf	??_decodage_Lat_Long+3,w
  7813  0ECF  3FC3               	movwi [3]fsr1
  7814  0ED0  0008               	return
  7815  0ED1                     __end_ofPL2:	
  7816  0ED1                     PL4:	
  7817  0ED1  00DB               	movwf	decodage_Lat_Long@Long_temp+3
  7818  0ED2  0874               	movf	?___lmul+2,w
  7819  0ED3  00DA               	movwf	decodage_Lat_Long@Long_temp+2
  7820  0ED4  0873               	movf	?___lmul+1,w
  7821  0ED5  00D9               	movwf	decodage_Lat_Long@Long_temp+1
  7822  0ED6  0872               	movf	?___lmul,w
  7823  0ED7  00D8               	movwf	decodage_Lat_Long@Long_temp
  7824  0ED8  00D0               	movwf	??_decodage_Lat_Long
  7825  0ED9  0859               	movf	decodage_Lat_Long@Long_temp+1,w
  7826  0EDA  00D1               	movwf	??_decodage_Lat_Long+1
  7827  0EDB  085A               	movf	decodage_Lat_Long@Long_temp+2,w
  7828  0EDC  00D2               	movwf	??_decodage_Lat_Long+2
  7829  0EDD  085B               	movf	decodage_Lat_Long@Long_temp+3,w
  7830  0EDE  00D3               	movwf	??_decodage_Lat_Long+3
  7831  0EDF  084E               	movf	decodage_Lat_Long@Long,w
  7832  0EE0  0086               	movwf	6
  7833  0EE1  3001               	movlw	1	; select bank2/3
  7834  0EE2  0087               	movwf	7
  7835  0EE3  3F40               	moviw [0]fsr1
  7836  0EE4  07D0               	addwf	??_decodage_Lat_Long,f
  7837  0EE5  3F41               	moviw [1]fsr1
  7838  0EE6  3DD1               	addwfc	??_decodage_Lat_Long+1,f
  7839  0EE7  3F42               	moviw [2]fsr1
  7840  0EE8  3DD2               	addwfc	??_decodage_Lat_Long+2,f
  7841  0EE9  3F43               	moviw [3]fsr1
  7842  0EEA  3DD3               	addwfc	??_decodage_Lat_Long+3,f
  7843  0EEB  084E               	movf	decodage_Lat_Long@Long,w
  7844  0EEC  0086               	movwf	6
  7845  0EED  0850               	movf	??_decodage_Lat_Long,w
  7846  0EEE  3FC0               	movwi [0]fsr1
  7847  0EEF  0851               	movf	??_decodage_Lat_Long+1,w
  7848  0EF0  3FC1               	movwi [1]fsr1
  7849  0EF1  0852               	movf	??_decodage_Lat_Long+2,w
  7850  0EF2  3FC2               	movwi [2]fsr1
  7851  0EF3  0853               	movf	??_decodage_Lat_Long+3,w
  7852  0EF4  3FC3               	movwi [3]fsr1
  7853  0EF5  0008               	return
  7854  0EF6                     __end_ofPL4:	
  7855  0EF6                     PL6:	
  7856  0EF6  0874               	movf	?___lmul+2,w
  7857  0EF7  00DA               	movwf	decodage_Lat_Long@Long_temp+2
  7858  0EF8  0873               	movf	?___lmul+1,w
  7859  0EF9  00D9               	movwf	decodage_Lat_Long@Long_temp+1
  7860  0EFA  0872               	movf	?___lmul,w
  7861  0EFB  00D8               	movwf	decodage_Lat_Long@Long_temp
  7862  0EFC  0008               	return
  7863  0EFD                     __end_ofPL6:	
  7864  0EFD                     PL8:	
  7865  0EFD  00D0               	movwf	??_decodage_Lat_Long
  7866  0EFE  0859               	movf	decodage_Lat_Long@Long_temp+1,w
  7867  0EFF  00D1               	movwf	??_decodage_Lat_Long+1
  7868  0F00  085A               	movf	decodage_Lat_Long@Long_temp+2,w
  7869  0F01  00D2               	movwf	??_decodage_Lat_Long+2
  7870  0F02  085B               	movf	decodage_Lat_Long@Long_temp+3,w
  7871  0F03  00D3               	movwf	??_decodage_Lat_Long+3
  7872  0F04  0008               	return
  7873  0F05                     __end_ofPL8:	
  7874  0F05                     PL12:	
  7875  0F05  0086               	movwf	6
  7876  0F06  3001               	movlw	1	; select bank2/3
  7877  0F07  0087               	movwf	7
  7878  0F08  3F40               	moviw [0]fsr1
  7879  0F09  07D0               	addwf	??_decodage_Lat_Long,f
  7880  0F0A  3F41               	moviw [1]fsr1
  7881  0F0B  3DD1               	addwfc	??_decodage_Lat_Long+1,f
  7882  0F0C  3F42               	moviw [2]fsr1
  7883  0F0D  3DD2               	addwfc	??_decodage_Lat_Long+2,f
  7884  0F0E  3F43               	moviw [3]fsr1
  7885  0F0F  3DD3               	addwfc	??_decodage_Lat_Long+3,f
  7886  0F10  0008               	return
  7887  0F11                     __end_ofPL12:	
  7888  0F11                     PL16:	
  7889  0F11  0086               	movwf	6
  7890  0F12  0850               	movf	??_decodage_Lat_Long,w
  7891  0F13  3FC0               	movwi [0]fsr1
  7892  0F14  0851               	movf	??_decodage_Lat_Long+1,w
  7893  0F15  3FC1               	movwi [1]fsr1
  7894  0F16  0852               	movf	??_decodage_Lat_Long+2,w
  7895  0F17  3FC2               	movwi [2]fsr1
  7896  0F18  0853               	movf	??_decodage_Lat_Long+3,w
  7897  0F19  3FC3               	movwi [3]fsr1
  7898  0F1A  0008               	return
  7899  0F1B                     __end_ofPL16:	
  7900  0F1B                     PL18:	
  7901  0F1B  0850               	movf	??_decodage_Lat_Long,w
  7902  0F1C  3FC0               	movwi [0]fsr1
  7903  0F1D  0851               	movf	??_decodage_Lat_Long+1,w
  7904  0F1E  3FC1               	movwi [1]fsr1
  7905  0F1F  0852               	movf	??_decodage_Lat_Long+2,w
  7906  0F20  3FC2               	movwi [2]fsr1
  7907  0F21  0853               	movf	??_decodage_Lat_Long+3,w
  7908  0F22  3FC3               	movwi [3]fsr1
  7909  0F23  0008               	return
  7910  0F24                     __end_ofPL18:	
  7911  0F24                     PL24:	
  7912  0F24  0086               	movwf	6
  7913  0F25  3022               	movlw	34
  7914  0F26  0087               	movwf	7
  7915  0F27  0801               	movf	1,w
  7916  0F28  3ED0               	addlw	208
  7917  0F29  00DC               	movwf	decodage_Lat_Long@Char_temp
  7918  0F2A  00F2               	movwf	___lmul@multiplier
  7919  0F2B  0008               	return
  7920  0F2C                     __end_ofPL24:	
  7921  0F2C                     PL30:	
  7922  0F2C  3022               	movlw	34
  7923  0F2D  0087               	movwf	7
  7924  0F2E  0801               	movf	1,w
  7925  0F2F  3ED0               	addlw	208
  7926  0F30  00DC               	movwf	decodage_Lat_Long@Char_temp
  7927  0F31  00D8               	movwf	decodage_Lat_Long@Long_temp
  7928  0F32  01D9               	clrf	decodage_Lat_Long@Long_temp+1
  7929  0F33  01DA               	clrf	decodage_Lat_Long@Long_temp+2
  7930  0F34  01DB               	clrf	decodage_Lat_Long@Long_temp+3
  7931  0F35  0008               	return
  7932  0F36                     __end_ofPL30:	
  7933  0F36                     PL36:	
  7934  0F36  3008               	movlw	8
  7935  0F37  00A2               	movwf	??_Reinit_trame_GPS+2
  7936  0F38  3022               	movlw	34
  7937  0F39  00A3               	movwf	??_Reinit_trame_GPS+3
  7938  0F3A  0872               	movf	?___wmul,w
  7939  0F3B  0722               	addwf	??_Reinit_trame_GPS+2,w
  7940  0F3C  00A4               	movwf	??_Reinit_trame_GPS+4
  7941  0F3D  0873               	movf	?___wmul+1,w
  7942  0F3E  3D23               	addwfc	??_Reinit_trame_GPS+3,w
  7943  0F3F  00A5               	movwf	??_Reinit_trame_GPS+5
  7944  0F40  0820               	movf	??_Reinit_trame_GPS,w
  7945  0F41  0724               	addwf	??_Reinit_trame_GPS+4,w
  7946  0F42  0086               	movwf	6
  7947  0F43  0821               	movf	??_Reinit_trame_GPS+1,w
  7948  0F44  3D25               	addwfc	??_Reinit_trame_GPS+5,w
  7949  0F45  0087               	movwf	7
  7950  0F46  0181               	clrf	1
  7951  0F47  0AF9               	incf	Reinit_trame_GPS@j,f
  7952  0F48  0008               	return
  7953  0F49                     __end_ofPL36:	
  7954  0F49                     PL46:	
  7955  0F49  0086               	movwf	6
  7956  0F4A  3001               	movlw	1	; select bank2/3
  7957  0F4B  0087               	movwf	7
  7958  0F4C  0801               	movf	1,w
  7959  0F4D  00D0               	movwf	??_decodage_Lat_Long
  7960  0F4E  3141               	addfsr 1,1
  7961  0F4F  0801               	movf	1,w
  7962  0F50  00D1               	movwf	??_decodage_Lat_Long+1
  7963  0F51  3141               	addfsr 1,1
  7964  0F52  0801               	movf	1,w
  7965  0F53  00D2               	movwf	??_decodage_Lat_Long+2
  7966  0F54  3080               	movlw	128
  7967  0F55  3141               	addfsr 1,1
  7968  0F56  0401               	iorwf	1,w
  7969  0F57  00D3               	movwf	??_decodage_Lat_Long+3
  7970  0F58  0008               	return
  7971  0F59                     __end_ofPL46:	
  7972  0F59                     PL52:	
  7973  0F59  084F               	movf	decodage_Lat_Long@dopBis,w
  7974  0F5A  0086               	movwf	6
  7975  0F5B  3001               	movlw	1	; select bank2/3
  7976  0F5C  0087               	movwf	7
  7977  0F5D  084F               	movf	decodage_Lat_Long@dopBis,w
  7978  0F5E  0084               	movwf	4
  7979  0F5F  3001               	movlw	1	; select bank2/3
  7980  0F60  0085               	movwf	5
  7981  0F61  0800               	movf	0,w
  7982  0F62  0008               	return
  7983  0F63                     __end_ofPL52:	
  7984  0F63                     PL54:	
  7985  0F63  01F3               	clrf	___lmul@multiplier+1
  7986  0F64  01F4               	clrf	___lmul@multiplier+2
  7987  0F65  01F5               	clrf	___lmul@multiplier+3
  7988  0F66  00F6               	movwf	___lmul@multiplicand
  7989  0F67  01F7               	clrf	___lmul@multiplicand+1
  7990  0F68  01F8               	clrf	___lmul@multiplicand+2
  7991  0F69  01F9               	clrf	___lmul@multiplicand+3
  7992  0F6A  0008               	return
  7993  0F6B                     __end_ofPL54:	
  7994  0F6B                     PL58:	
  7995  0F6B  0841               	movf	strtod@s,w
  7996  0F6C  0086               	movwf	6
  7997  0F6D  0842               	movf	strtod@s+1,w
  7998  0F6E  0087               	movwf	7
  7999  0F6F  0801               	movf	1,w
  8000  0F70  0008               	return
  8001  0F71                     __end_ofPL58:	
  8002  0F71                     PL74:	
  8003  0F71  01F3               	clrf	___lmul@multiplier+1
  8004  0F72  01F4               	clrf	___lmul@multiplier+2
  8005  0F73  01F5               	clrf	___lmul@multiplier+3
  8006  0F74  01F9               	clrf	___lmul@multiplicand+3
  8007  0F75  00F8               	movwf	___lmul@multiplicand+2
  8008  0F76  0008               	return
  8009  0F77                     __end_ofPL74:	
  8010  0F77                     PL78:	
  8011  0F77  0086               	movwf	6
  8012  0F78  3001               	movlw	1	; select bank2/3
  8013  0F79  0087               	movwf	7
  8014  0F7A  0858               	movf	decodage_Lat_Long@Long_temp,w
  8015  0F7B  3FC0               	movwi [0]fsr1
  8016  0F7C  0859               	movf	decodage_Lat_Long@Long_temp+1,w
  8017  0F7D  3FC1               	movwi [1]fsr1
  8018  0F7E  085A               	movf	decodage_Lat_Long@Long_temp+2,w
  8019  0F7F  3FC2               	movwi [2]fsr1
  8020  0F80  085B               	movf	decodage_Lat_Long@Long_temp+3,w
  8021  0F81  3FC3               	movwi [3]fsr1
  8022  0F82  0008               	return
  8023  0F83                     __end_ofPL78:	
  8024  0F83                     PL82:	
  8025  0F83  01F3               	clrf	___lmul@multiplier+1
  8026  0F84  01F4               	clrf	___lmul@multiplier+2
  8027  0F85  01F5               	clrf	___lmul@multiplier+3
  8028  0F86  01F9               	clrf	___lmul@multiplicand+3
  8029  0F87  01F8               	clrf	___lmul@multiplicand+2
  8030  0F88  00F7               	movwf	___lmul@multiplicand+1
  8031  0F89  0008               	return
  8032  0F8A                     __end_ofPL82:	
  8033  0F8A                     PL90:	
  8034  0F8A  0879               	movf	Reinit_trame_GPS@j,w
  8035  0F8B  0020               	movlb	0	; select bank0
  8036  0F8C  00A0               	movwf	??_Reinit_trame_GPS
  8037  0F8D  01A1               	clrf	??_Reinit_trame_GPS+1
  8038  0F8E  0878               	movf	Reinit_trame_GPS@i,w
  8039  0F8F  00F2               	movwf	___wmul@multiplier
  8040  0F90  300C               	movlw	12
  8041  0F91  01F3               	clrf	___wmul@multiplier+1
  8042  0F92  00F4               	movwf	___wmul@multiplicand
  8043  0F93  01F5               	clrf	___wmul@multiplicand+1
  8044  0F94  0008               	return
  8045  0F95                     __end_ofPL90:	
  8046  0F95                     PL98:	
  8047  0F95  0854               	movf	decodage_Lat_Long@dop_f,w
  8048  0F96  00F2               	movwf	___ftge@ff1
  8049  0F97  0855               	movf	decodage_Lat_Long@dop_f+1,w
  8050  0F98  00F3               	movwf	___ftge@ff1+1
  8051  0F99  0856               	movf	decodage_Lat_Long@dop_f+2,w
  8052  0F9A  00F4               	movwf	___ftge@ff1+2
  8053  0F9B  0008               	return
  8054  0F9C                     __end_ofPL98:	
  8055  0F9C                     PL100:	
  8056  0F9C  0020               	movlb	0	; select bank0
  8057  0F9D  084F               	movf	decodage_Lat_Long@dopBis,w
  8058  0F9E  0086               	movwf	6
  8059  0F9F  3001               	movlw	1	; select bank2/3
  8060  0FA0  0087               	movwf	7
  8061  0FA1  0008               	return
  8062  0FA2                     __end_ofPL100:	
  8063  0FA2                     PL106:	
  8064  0FA2  0086               	movwf	6
  8065  0FA3  0187               	clrf	7
  8066  0FA4  084B               	movf	?_atof,w
  8067  0FA5  3FC0               	movwi [0]fsr1
  8068  0FA6  084C               	movf	?_atof+1,w
  8069  0FA7  3FC1               	movwi [1]fsr1
  8070  0FA8  084D               	movf	?_atof+2,w
  8071  0FA9  3FC2               	movwi [2]fsr1
  8072  0FAA  0008               	return
  8073  0FAB                     __end_ofPL106:	
  8074  0FAB                     PL110:	
  8075  0FAB  0843               	movf	strtod@res,w
  8076  0FAC  0086               	movwf	6
  8077  0FAD  0187               	clrf	7
  8078  0FAE  0841               	movf	strtod@s,w
  8079  0FAF  3FC0               	movwi [0]fsr1
  8080  0FB0  0842               	movf	strtod@s+1,w
  8081  0FB1  3FC1               	movwi [1]fsr1
  8082  0FB2  0008               	return
  8083  0FB3                     __end_ofPL110:	
  8084  0FB3                     PL114:	
  8085  0FB3  0841               	movf	strtod@s,w
  8086  0FB4  0086               	movwf	6
  8087  0FB5  0842               	movf	strtod@s+1,w
  8088  0FB6  0087               	movwf	7
  8089  0FB7  300A               	movlw	10
  8090  0FB8  00F2               	movwf	___bmul@multiplicand
  8091  0FB9  0844               	movf	strtod@eexp,w
  8092  0FBA  0008               	return
  8093  0FBB                     __end_ofPL114:	
  8094  0FBB                     PL116:	
  8095  0FBB  00A5               	movwf	___ftmul@f1+2
  8096  0FBC  0847               	movf	strtod@_u,w
  8097  0FBD  00A6               	movwf	___ftmul@f2
  8098  0FBE  0848               	movf	strtod@_u+1,w
  8099  0FBF  00A7               	movwf	___ftmul@f2+1
  8100  0FC0  0849               	movf	strtod@_u+2,w
  8101  0FC1  00A8               	movwf	___ftmul@f2+2
  8102  0FC2  0008               	return
  8103  0FC3                     __end_ofPL116:	
  8104  0FC3                     PL118:	
  8105  0FC3  00B4               	movwf	___ftdiv@f2+2
  8106  0FC4  0847               	movf	strtod@_u,w
  8107  0FC5  00B5               	movwf	___ftdiv@f1
  8108  0FC6  0848               	movf	strtod@_u+1,w
  8109  0FC7  00B6               	movwf	___ftdiv@f1+1
  8110  0FC8  0849               	movf	strtod@_u+2,w
  8111  0FC9  00B7               	movwf	___ftdiv@f1+2
  8112  0FCA  0008               	return
  8113  0FCB                     __end_ofPL118:	
  8114  0FCB                     PL124:	
  8115  0FCB  3080               	movlw	128
  8116  0FCC  01C1               	clrf	?_strtod
  8117  0FCD  00C2               	movwf	?_strtod+1
  8118  0FCE  3000               	movlw	0
  8119  0FCF  01C3               	clrf	?_strtod+2
  8120  0FD0  0008               	return
  8121  0FD1                     __end_ofPL124:	
  8122  0FD1                     PL128:	
  8123  0FD1  0086               	movwf	6
  8124  0FD2  3000               	movlw	0
  8125  0FD3  0187               	clrf	7
  8126  0FD4  3FC0               	movwi [0]fsr1
  8127  0FD5  3FC1               	movwi [1]fsr1
  8128  0FD6  3FC2               	movwi [2]fsr1
  8129  0FD7  0008               	return
  8130  0FD8                     __end_ofPL128:	
  8131  0FD8                     PL138:	
  8132  0FD8  0823               	movf	?___ftmul,w
  8133  0FD9  00C7               	movwf	strtod@_u
  8134  0FDA  0824               	movf	?___ftmul+1,w
  8135  0FDB  00C8               	movwf	strtod@_u+1
  8136  0FDC  0825               	movf	?___ftmul+2,w
  8137  0FDD  00C9               	movwf	strtod@_u+2
  8138  0FDE  0008               	return
  8139  0FDF                     __end_ofPL138:	
  8140  0FDF                     PL144:	
  8141  0FDF  0832               	movf	?___ftdiv,w
  8142  0FE0  00C7               	movwf	strtod@_u
  8143  0FE1  0833               	movf	?___ftdiv+1,w
  8144  0FE2  00C8               	movwf	strtod@_u+1
  8145  0FE3  0834               	movf	?___ftdiv+2,w
  8146  0FE4  00C9               	movwf	strtod@_u+2
  8147  0FE5  0008               	return
  8148  0FE6                     __end_ofPL144:	
  8149  0FE6                     PL148:	
  8150  0FE6  0878               	movf	atoi@s,w
  8151  0FE7  0086               	movwf	6
  8152  0FE8  0879               	movf	atoi@s+1,w
  8153  0FE9  0087               	movwf	7
  8154  0FEA  0801               	movf	1,w
  8155  0FEB  0008               	return
  8156  0FEC                     __end_ofPL148:	
  8157  0FEC                     PL162:	
  8158  0FEC  3080               	movlw	128
  8159  0FED  01C1               	clrf	?_strtod
  8160  0FEE  00C2               	movwf	?_strtod+1
  8161  0FEF  00C3               	movwf	?_strtod+2
  8162  0FF0  0008               	return
  8163  0FF1                     __end_ofPL162:	
  8164  0FF1                     PL168:	
  8165  0FF1  3096               	movlw	150
  8166  0FF2  00F7               	movwf	___lmul@multiplicand+1
  8167  0FF3  3080               	movlw	128
  8168  0FF4  00F6               	movwf	___lmul@multiplicand
  8169  0FF5  0008               	return
  8170  0FF6                     __end_ofPL168:	
  8171  0FF6                     PL176:	
  8172  0FF6  3042               	movlw	66
  8173  0FF7  00F7               	movwf	___lmul@multiplicand+1
  8174  0FF8  3040               	movlw	64
  8175  0FF9  00F6               	movwf	___lmul@multiplicand
  8176  0FFA  0008               	return
  8177  0FFB                     __end_ofPL176:	
  8178  0FFB                     PL182:	
  8179  0FFB  3086               	movlw	134
  8180  0FFC  00F7               	movwf	___lmul@multiplicand+1
  8181  0FFD  30A0               	movlw	160
  8182  0FFE  00F6               	movwf	___lmul@multiplicand
  8183  0FFF  0008               	return
  8184  1000                     __end_ofPL182:	
  8185                           
  8186                           	psect	text25
  8187  10FA                     __ptext25:	
  8188 ;; *************** function _Processing_Temperature *****************
  8189 ;; Defined at:
  8190 ;;		line 93 in file "../Sources/main.c"
  8191 ;; Parameters:    Size  Location     Type
  8192 ;;  actual_temp     1    wreg     PTR char 
  8193 ;;		 -> main@actual_temp(1), 
  8194 ;;  temp_min        1    2[BANK0 ] PTR char 
  8195 ;;		 -> main@temp_min(1), 
  8196 ;;  temp_max        1    3[BANK0 ] PTR char 
  8197 ;;		 -> main@temp_max(1), 
  8198 ;;  temp_moy        1    4[BANK0 ] PTR short 
  8199 ;;		 -> main@temp_moy(2), 
  8200 ;;  tab_temp        1    5[BANK0 ] PTR char 
  8201 ;;		 -> main@tab_temp(50), 
  8202 ;;  index_temp_o    1    6[BANK0 ] PTR unsigned char 
  8203 ;;		 -> main@index_temp_old(1), 
  8204 ;; Auto vars:     Size  Location     Type
  8205 ;;  actual_temp     1   14[BANK0 ] PTR char 
  8206 ;;		 -> main@actual_temp(1), 
  8207 ;;  temp            1   13[BANK0 ] char 
  8208 ;; Return value:  Size  Location     Type
  8209 ;;                  1    wreg      void 
  8210 ;; Registers used:
  8211 ;;		wreg, fsr0l, fsr0h, fsr1l, fsr1h, status,2, status,0, pclath, cstack
  8212 ;; Tracked objects:
  8213 ;;		On entry : 1F/0
  8214 ;;		On exit  : 1F/0
  8215 ;;		Unchanged: 0/0
  8216 ;; Data sizes:     COMMON   BANK0   BANK1   BANK2   BANK3   BANK4   BANK5   BANK6   BANK7   BANK8   BANK9  BANK10  BANK1
      +1  BANK12
  8217 ;;      Params:         0       5       0       0       0       0       0       0       0       0       0       0       
      +0       0
  8218 ;;      Locals:         0       2       0       0       0       0       0       0       0       0       0       0       
      +0       0
  8219 ;;      Temps:          0       6       0       0       0       0       0       0       0       0       0       0       
      +0       0
  8220 ;;      Totals:         0      13       0       0       0       0       0       0       0       0       0       0       
      +0       0
  8221 ;;Total ram usage:       13 bytes
  8222 ;; Hardware stack levels used:    1
  8223 ;; Hardware stack levels required when called:    4
  8224 ;; This function calls:
  8225 ;;		_Recuperer_Temp
  8226 ;; This function is called by:
  8227 ;;		_main
  8228 ;; This function uses a non-reentrant model
  8229 ;;
  8230                           
  8231                           
  8232                           ;psect for function _Processing_Temperature
  8233  10FA                     _Processing_Temperature:	
  8234                           
  8235                           ;incstack = 0
  8236                           ; Regs used in _Processing_Temperature: [wreg-fsr1h+status,2+status,0+pclath+cstack]
  8237                           ;Processing_Temperature@actual_temp stored from wreg
  8238  10FA  00AE               	movwf	Processing_Temperature@actual_temp
  8239                           
  8240                           ;main.c: 94: signed char temp;
  8241                           ;main.c: 95: temp=*actual_temp;
  8242  10FB  0086               	movwf	6
  8243  10FC  3001               	movlw	1	; select bank2/3
  8244  10FD  0087               	movwf	7
  8245  10FE  0801               	movf	1,w
  8246  10FF  00AD               	movwf	Processing_Temperature@temp
  8247                           
  8248                           ;main.c: 96: *actual_temp=Recuperer_Temp();
  8249  1100  219B  3190         	fcall	_Recuperer_Temp
  8250  1102  00A7               	movwf	??_Processing_Temperature
  8251  1103  082E               	movf	Processing_Temperature@actual_temp,w
  8252  1104  0086               	movwf	6
  8253  1105  3001               	movlw	1	; select bank2/3
  8254  1106  0087               	movwf	7
  8255  1107  0827               	movf	??_Processing_Temperature,w
  8256  1108  0081               	movwf	1
  8257                           
  8258                           ;main.c: 97: if((unsigned char)(*actual_temp) != 0xFF) {
  8259  1109  082E               	movf	Processing_Temperature@actual_temp,w
  8260  110A  0086               	movwf	6
  8261  110B  0A01               	incf	1,w
  8262  110C  1903               	btfsc	3,2
  8263  110D  2979               	goto	l6103
  8264                           
  8265                           ;main.c: 98: if(*actual_temp<*temp_min) *temp_min=*actual_temp;
  8266  110E  082E               	movf	Processing_Temperature@actual_temp,w
  8267  110F  0086               	movwf	6
  8268  1110  0801               	movf	1,w
  8269  1111  3A80               	xorlw	128
  8270  1112  00A7               	movwf	??_Processing_Temperature
  8271  1113  0822               	movf	Processing_Temperature@temp_min,w
  8272  1114  0086               	movwf	6
  8273  1115  0801               	movf	1,w
  8274  1116  3A80               	xorlw	128
  8275  1117  02A7               	subwf	??_Processing_Temperature,f
  8276  1118  1803               	skipnc
  8277  1119  291E               	goto	l6089
  8278  111A  0822               	movf	Processing_Temperature@temp_min,w
  8279  111B  0086               	movwf	6
  8280  111C  279C  3190         	fcall	PL96	;call to abstracted procedure
  8281  111E                     l6089:	
  8282                           
  8283                           ;main.c: 99: if(*actual_temp>*temp_max) *temp_max=*actual_temp;
  8284  111E  0823               	movf	Processing_Temperature@temp_max,w
  8285  111F  0086               	movwf	6
  8286  1120  3001               	movlw	1	; select bank2/3
  8287  1121  0087               	movwf	7
  8288  1122  0801               	movf	1,w
  8289  1123  3A80               	xorlw	128
  8290  1124  00A7               	movwf	??_Processing_Temperature
  8291  1125  082E               	movf	Processing_Temperature@actual_temp,w
  8292  1126  0086               	movwf	6
  8293  1127  0801               	movf	1,w
  8294  1128  3A80               	xorlw	128
  8295  1129  02A7               	subwf	??_Processing_Temperature,f
  8296  112A  1803               	skipnc
  8297  112B  2930               	goto	l6093
  8298  112C  0823               	movf	Processing_Temperature@temp_max,w
  8299  112D  0086               	movwf	6
  8300  112E  279C  3190         	fcall	PL96	;call to abstracted procedure
  8301  1130                     l6093:	
  8302                           
  8303                           ;main.c: 102: *temp_moy = *temp_moy + *actual_temp - tab_temp[*index_temp_old];
  8304  1130  0824               	movf	Processing_Temperature@temp_moy,w
  8305  1131  0086               	movwf	6
  8306  1132  0187               	clrf	7
  8307  1133  082E               	movf	Processing_Temperature@actual_temp,w
  8308  1134  0084               	movwf	4
  8309  1135  3001               	movlw	1	; select bank2/3
  8310  1136  0085               	movwf	5
  8311  1137  0800               	movf	0,w
  8312  1138  00A7               	movwf	??_Processing_Temperature
  8313  1139  0826               	movf	Processing_Temperature@index_temp_old,w
  8314  113A  0084               	movwf	4
  8315  113B  0800               	movf	0,w
  8316  113C  0725               	addwf	Processing_Temperature@tab_temp,w
  8317  113D  00A8               	movwf	??_Processing_Temperature+1
  8318  113E  0084               	movwf	4
  8319  113F  0185               	clrf	5
  8320  1140  0800               	movf	0,w
  8321  1141  0227               	subwf	??_Processing_Temperature,w
  8322  1142  00A9               	movwf	??_Processing_Temperature+2
  8323  1143  01AA               	clrf	??_Processing_Temperature+3
  8324  1144  1C03               	skipc
  8325  1145  03AA               	decf	??_Processing_Temperature+3,f
  8326  1146  1BA7               	btfsc	??_Processing_Temperature,7
  8327  1147  03AA               	decf	??_Processing_Temperature+3,f
  8328  1148  1F80               	btfss	0,7
  8329  1149  294C               	goto	u6665o
  8330  114A  0020               	movlb	0	; select bank0
  8331  114B  0AAA               	incf	??_Processing_Temperature+3,f
  8332  114C                     u6665o:	
  8333  114C  3F40               	moviw [0]fsr1
  8334  114D  0020               	movlb	0	; select bank0
  8335  114E  0729               	addwf	??_Processing_Temperature+2,w
  8336  114F  00AB               	movwf	??_Processing_Temperature+4
  8337  1150  3F41               	moviw [1]fsr1
  8338  1151  3D2A               	addwfc	??_Processing_Temperature+3,w
  8339  1152  00AC               	movwf	??_Processing_Temperature+5
  8340  1153  0824               	movf	Processing_Temperature@temp_moy,w
  8341  1154  0086               	movwf	6
  8342  1155  0187               	clrf	7
  8343  1156  082B               	movf	??_Processing_Temperature+4,w
  8344  1157  3FC0               	movwi [0]fsr1
  8345  1158  082C               	movf	??_Processing_Temperature+5,w
  8346  1159  3FC1               	movwi [1]fsr1
  8347                           
  8348                           ;main.c: 105: tab_temp[*index_temp_old] = *actual_temp;
  8349  115A  0826               	movf	Processing_Temperature@index_temp_old,w
  8350  115B  0086               	movwf	6
  8351  115C  3001               	movlw	1	; select bank2/3
  8352  115D  0087               	movwf	7
  8353  115E  0801               	movf	1,w
  8354  115F  0725               	addwf	Processing_Temperature@tab_temp,w
  8355  1160  00A7               	movwf	??_Processing_Temperature
  8356  1161  0086               	movwf	6
  8357  1162  0187               	clrf	7
  8358  1163  279C  3190         	fcall	PL96	;call to abstracted procedure
  8359                           
  8360                           ;main.c: 106: *index_temp_old = *index_temp_old + 1;
  8361  1165  0826               	movf	Processing_Temperature@index_temp_old,w
  8362  1166  0086               	movwf	6
  8363  1167  3001               	movlw	1	; select bank2/3
  8364  1168  0087               	movwf	7
  8365  1169  0826               	movf	Processing_Temperature@index_temp_old,w
  8366  116A  0084               	movwf	4
  8367  116B  0800               	movf	0,w
  8368  116C  3E01               	addlw	1
  8369  116D  0081               	movwf	1
  8370                           
  8371                           ;main.c: 107: if(*index_temp_old==(5100/102)) {
  8372  116E  0826               	movf	Processing_Temperature@index_temp_old,w
  8373  116F  0086               	movwf	6
  8374  1170  3032               	movlw	50
  8375  1171  0601               	xorwf	1,w
  8376  1172  1D03               	btfss	3,2
  8377  1173  0008               	return
  8378                           
  8379                           ;main.c: 108: *index_temp_old=0;
  8380  1174  0826               	movf	Processing_Temperature@index_temp_old,w
  8381  1175  0086               	movwf	6
  8382  1176  3001               	movlw	1	; select bank2/3
  8383  1177  0181               	clrf	1
  8384  1178  0008               	return
  8385  1179                     l6103:	
  8386                           
  8387                           ;main.c: 111: else *actual_temp=temp;
  8388  1179  082E               	movf	Processing_Temperature@actual_temp,w
  8389  117A  0086               	movwf	6
  8390  117B  3001               	movlw	1	; select bank2/3
  8391  117C  0087               	movwf	7
  8392  117D  082D               	movf	Processing_Temperature@temp,w
  8393  117E  0081               	movwf	1
  8394  117F  0008               	return
  8395  1180                     __end_of_Processing_Temperature:	
  8396  1180                     __ptext19:	
  8397 ;; *************** function _configure_GPS_VTG *****************
  8398 ;; Defined at:
  8399 ;;		line 153 in file "../Sources/gps.c"
  8400 ;; Parameters:    Size  Location     Type
  8401 ;;		None
  8402 ;; Auto vars:     Size  Location     Type
  8403 ;;		None
  8404 ;; Return value:  Size  Location     Type
  8405 ;;                  1    wreg      void 
  8406 ;; Registers used:
  8407 ;;		wreg, fsr0l, fsr0h, fsr1l, fsr1h, status,2, status,0, pclath, cstack
  8408 ;; Tracked objects:
  8409 ;;		On entry : 1F/1
  8410 ;;		On exit  : 1F/3
  8411 ;;		Unchanged: 0/0
  8412 ;; Data sizes:     COMMON   BANK0   BANK1   BANK2   BANK3   BANK4   BANK5   BANK6   BANK7   BANK8   BANK9  BANK10  BANK1
      +1  BANK12
  8413 ;;      Params:         0       0       0       0       0       0       0       0       0       0       0       0       
      +0       0
  8414 ;;      Locals:         0       0       0       0       0       0       0       0       0       0       0       0       
      +0       0
  8415 ;;      Temps:          0       0       0       0       0       0       0       0       0       0       0       0       
      +0       0
  8416 ;;      Totals:         0       0       0       0       0       0       0       0       0       0       0       0       
      +0       0
  8417 ;;Total ram usage:        0 bytes
  8418 ;; Hardware stack levels used:    1
  8419 ;; Hardware stack levels required when called:    2
  8420 ;; This function calls:
  8421 ;;		_Delay_100ms
  8422 ;;		_UART_RX_Buffers_Init
  8423 ;;		_UART_Transmit_string
  8424 ;; This function is called by:
  8425 ;;		_main
  8426 ;; This function uses a non-reentrant model
  8427 ;;
  8428                           
  8429                           
  8430                           ;psect for function _configure_GPS_VTG
  8431  1180                     _configure_GPS_VTG:	
  8432                           
  8433                           ;gps.c: 155: UART_Transmit_string(GGA_OFF);
  8434                           
  8435                           ;incstack = 0
  8436                           ; Regs used in _configure_GPS_VTG: [wreg-fsr1h+status,2+status,0+pclath+cstack]
  8437  1180  307D               	movlw	low (_GGA_OFF| (0+32768))
  8438  1181  00F2               	movwf	UART_Transmit_string@tx
  8439  1182  3098               	movlw	high (_GGA_OFF| (0+32768))
  8440  1183  00F3               	movwf	UART_Transmit_string@tx+1
  8441  1184  24C5  3190         	fcall	_UART_Transmit_string
  8442  1186                     l526:	
  8443                           ;gps.c: 156: while( TXSTAbits.TRMT == 0);;
  8444                           
  8445  1186  0023               	movlb	3	; select bank3
  8446  1187  1C9E               	btfss	30,1	;volatile
  8447  1188  2986               	goto	l526
  8448                           
  8449                           ;gps.c: 157: Delay_100ms(2);
  8450  1189  3002               	movlw	2
  8451  118A  00F2               	movwf	Delay_100ms@duree
  8452  118B  01F3               	clrf	Delay_100ms@duree+1
  8453  118C  3184  24E0  3190   	fcall	_Delay_100ms
  8454                           
  8455                           ;gps.c: 158: UART_RX_Buffers_Init();
  8456  118F  249F  3190         	fcall	_UART_RX_Buffers_Init
  8457                           
  8458                           ;gps.c: 159: UART_Transmit_string(VTG_ON);
  8459  1191  302F               	movlw	low (_VTG_ON| (0+32768))
  8460  1192  00F2               	movwf	UART_Transmit_string@tx
  8461  1193  3098               	movlw	high (_VTG_ON| (0+32768))
  8462  1194  00F3               	movwf	UART_Transmit_string@tx+1
  8463  1195  24C5  3190         	fcall	_UART_Transmit_string
  8464  1197                     l529:	
  8465                           ;gps.c: 160: while( TXSTAbits.TRMT == 0);;
  8466                           
  8467  1197  0023               	movlb	3	; select bank3
  8468  1198  189E               	btfsc	30,1	;volatile
  8469  1199  0008               	return
  8470  119A  2997               	goto	l529
  8471  119B                     __end_of_configure_GPS_VTG:	
  8472  119B                     __ptext26:	
  8473 ;; *************** function _Recuperer_Temp *****************
  8474 ;; Defined at:
  8475 ;;		line 247 in file "../Sources/modem.c"
  8476 ;; Parameters:    Size  Location     Type
  8477 ;;		None
  8478 ;; Auto vars:     Size  Location     Type
  8479 ;;  cpt_timeout     1    1[BANK0 ] unsigned char 
  8480 ;;  temp            1    0[BANK0 ] char 
  8481 ;; Return value:  Size  Location     Type
  8482 ;;                  1    wreg      char 
  8483 ;; Registers used:
  8484 ;;		wreg, fsr0l, fsr0h, fsr1l, fsr1h, status,2, status,0, pclath, cstack
  8485 ;; Tracked objects:
  8486 ;;		On entry : 1F/0
  8487 ;;		On exit  : 1F/0
  8488 ;;		Unchanged: 0/0
  8489 ;; Data sizes:     COMMON   BANK0   BANK1   BANK2   BANK3   BANK4   BANK5   BANK6   BANK7   BANK8   BANK9  BANK10  BANK1
      +1  BANK12
  8490 ;;      Params:         0       0       0       0       0       0       0       0       0       0       0       0       
      +0       0
  8491 ;;      Locals:         0       2       0       0       0       0       0       0       0       0       0       0       
      +0       0
  8492 ;;      Temps:          0       0       0       0       0       0       0       0       0       0       0       0       
      +0       0
  8493 ;;      Totals:         0       2       0       0       0       0       0       0       0       0       0       0       
      +0       0
  8494 ;;Total ram usage:        2 bytes
  8495 ;; Hardware stack levels used:    1
  8496 ;; Hardware stack levels required when called:    3
  8497 ;; This function calls:
  8498 ;;		_Delay_100ms
  8499 ;;		_UART_Frame_Received
  8500 ;;		_UART_RX_Buffers_Init
  8501 ;;		_UART_Transmit_one_char
  8502 ;;		_UART_Transmit_string
  8503 ;;		___bmul
  8504 ;;		_chaine_Init
  8505 ;; This function is called by:
  8506 ;;		_Processing_Temperature
  8507 ;; This function uses a non-reentrant model
  8508 ;;
  8509                           
  8510                           
  8511                           ;psect for function _Recuperer_Temp
  8512  119B                     _Recuperer_Temp:	
  8513                           
  8514                           ;modem.c: 248: unsigned char cpt_timeout;
  8515                           ;modem.c: 249: signed char temp;
  8516                           ;modem.c: 272: TRISC4=0; APFCON0bits.TXCKSEL=0; APFCON0bits.RXDTSEL=0; TXSTAbits.TXEN=0b
      +                          1; RCSTAbits.CREN=0b1;
  8517                           
  8518                           ;incstack = 0
  8519                           ; Regs used in _Recuperer_Temp: [wreg-fsr1h+status,2+status,0+pclath+cstack]
  8520  119B  0021               	movlb	1	; select bank1
  8521  119C  120E               	bcf	14,4	;volatile
  8522  119D  0022               	movlb	2	; select bank2
  8523  119E  111D               	bcf	29,2	;volatile
  8524  119F  139D               	bcf	29,7	;volatile
  8525  11A0  0023               	movlb	3	; select bank3
  8526  11A1  169E               	bsf	30,5	;volatile
  8527  11A2  161D               	bsf	29,4	;volatile
  8528                           
  8529                           ;modem.c: 273: UART_RX_Buffers_Init();
  8530  11A3  249F               	fcall	_UART_RX_Buffers_Init
  8531                           
  8532                           ;modem.c: 274: chaine_Init();
  8533  11A4  3185  259A  3190   	fcall	_chaine_Init
  8534                           
  8535                           ;modem.c: 275: UART_Transmit_string("ATI26");
  8536  11A7  3001               	movlw	low (STR_7| (0+32768))
  8537  11A8  00F2               	movwf	UART_Transmit_string@tx
  8538  11A9  3099               	movlw	high (STR_7| (0+32768))
  8539  11AA  00F3               	movwf	UART_Transmit_string@tx+1
  8540  11AB  24C5  3190         	fcall	_UART_Transmit_string
  8541                           
  8542                           ;modem.c: 276: UART_Transmit_one_char(0x0D);
  8543  11AD  300D               	movlw	13
  8544  11AE  2498  3190         	fcall	_UART_Transmit_one_char
  8545  11B0                     l406:	
  8546                           ;modem.c: 277: while( TXSTAbits.TRMT == 0);;
  8547                           
  8548  11B0  1C9E               	btfss	30,1	;volatile
  8549  11B1  29B0               	goto	l406
  8550                           
  8551                           ;modem.c: 279: cpt_timeout=0;
  8552  11B2  0020               	movlb	0	; select bank0
  8553  11B3  01A1               	clrf	Recuperer_Temp@cpt_timeout
  8554                           
  8555                           ;modem.c: 280: while(cpt_timeout<10){
  8556  11B4  29DC               	goto	l5761
  8557  11B5                     l5751:	
  8558                           
  8559                           ;modem.c: 284: else if(chaine[1]==0x0D)temp=chaine[0]-0x30;
  8560  11B5  30C8               	movlw	200
  8561  11B6  0086               	movwf	6
  8562  11B7  3022               	movlw	34
  8563  11B8  0087               	movwf	7
  8564  11B9  300D               	movlw	13
  8565  11BA  3141               	addfsr 1,1
  8566  11BB  0601               	xorwf	1,w
  8567  11BC  30C8               	movlw	200
  8568  11BD  0086               	movwf	6
  8569  11BE  3022               	movlw	34
  8570  11BF  0087               	movwf	7
  8571  11C0  1D03               	btfss	3,2
  8572  11C1  29C5               	goto	L21
  8573  11C2  0801               	movf	1,w
  8574  11C3  3ED0               	addlw	-48
  8575  11C4  29D1               	goto	L20
  8576  11C5                     L21:	
  8577                           ;modem.c: 285: else temp= 10*(chaine[0]-0x30)+(chaine[1]-0x30);
  8578                           
  8579  11C5  300A               	movlw	10
  8580  11C6  3141               	addfsr 1,1
  8581  11C7  00F2               	movwf	___bmul@multiplicand
  8582  11C8  30C8               	movlw	200
  8583  11C9  0084               	movwf	4
  8584  11CA  3022               	movlw	34
  8585  11CB  0085               	movwf	5
  8586  11CC  0800               	movf	0,w
  8587  11CD  2716  3190         	fcall	___bmul
  8588  11CF  0701               	addwf	1,w
  8589  11D0  3EF0               	addlw	-16
  8590  11D1                     L20:	
  8591  11D1  0020               	movlb	0	; select bank0
  8592  11D2  00A0               	movwf	Recuperer_Temp@temp
  8593  11D3  29F6               	goto	l5763
  8594  11D4                     l5757:	
  8595                           
  8596                           ;modem.c: 287: }
  8597                           ;modem.c: 288: }
  8598                           ;modem.c: 289: Delay_100ms(2);
  8599  11D4  3002               	movlw	2
  8600  11D5  00F2               	movwf	Delay_100ms@duree
  8601  11D6  01F3               	clrf	Delay_100ms@duree+1
  8602  11D7  3184  24E0  3190   	fcall	_Delay_100ms
  8603                           
  8604                           ;modem.c: 291: cpt_timeout++;
  8605  11DA  0020               	movlb	0	; select bank0
  8606  11DB  0AA1               	incf	Recuperer_Temp@cpt_timeout,f
  8607  11DC                     l5761:	
  8608  11DC  300A               	movlw	10
  8609  11DD  0221               	subwf	Recuperer_Temp@cpt_timeout,w
  8610  11DE  1803               	btfsc	3,0
  8611  11DF  29F6               	goto	l5763
  8612                           
  8613                           ;modem.c: 281: if (UART_Frame_Received()!=0b0) {
  8614  11E0  3185  252F  3190   	fcall	_UART_Frame_Received
  8615  11E3  3A00               	xorlw	0
  8616  11E4  1903               	skipnz
  8617  11E5  29D4               	goto	l5757
  8618                           
  8619                           ;modem.c: 282: if (UART_Frame_Received()!=0b0) {
  8620  11E6  3185  252F  3190   	fcall	_UART_Frame_Received
  8621  11E9  3A00               	xorlw	0
  8622  11EA  1903               	skipnz
  8623  11EB  29D4               	goto	l5757
  8624                           
  8625                           ;modem.c: 283: if(chaine[0]==0x30)temp=0;
  8626  11EC  30C8               	movlw	200
  8627  11ED  0086               	movwf	6
  8628  11EE  3022               	movlw	34
  8629  11EF  0087               	movwf	7
  8630  11F0  3030               	movlw	48
  8631  11F1  0601               	xorwf	1,w
  8632  11F2  1D03               	btfss	3,2
  8633  11F3  29B5               	goto	l5751
  8634  11F4  0020               	movlb	0	; select bank0
  8635  11F5  01A0               	clrf	Recuperer_Temp@temp
  8636  11F6                     l5763:	
  8637                           
  8638                           ;modem.c: 292: }
  8639                           ;modem.c: 293: chaine_Init();
  8640  11F6  3185  259A  3190   	fcall	_chaine_Init
  8641                           
  8642                           ;modem.c: 294: TXSTAbits.TXEN=0b0; RCSTAbits.CREN=0b0; TRISC4=1; UART_RX_Buffers_Init();
  8643  11F9  27A3  3190         	fcall	PL102	;call to abstracted procedure
  8644  11FB  249F  3190         	fcall	_UART_RX_Buffers_Init
  8645                           
  8646                           ;modem.c: 297: if(cpt_timeout<10)return temp;
  8647  11FD  300A               	movlw	10
  8648  11FE  0020               	movlb	0	; select bank0
  8649  11FF  0221               	subwf	Recuperer_Temp@cpt_timeout,w
  8650  1200  1803               	skipnc
  8651  1201  34FF               	retlw	255
  8652  1202  0820               	movf	Recuperer_Temp@temp,w
  8653  1203  0008               	return
  8654  1204                     __end_of_Recuperer_Temp:	
  8655                           ;modem.c: 298: else return 0xFF;
  8656                           
  8657  1204                     __ptext20:	
  8658 ;; *************** function _configure_GPS *****************
  8659 ;; Defined at:
  8660 ;;		line 142 in file "../Sources/gps.c"
  8661 ;; Parameters:    Size  Location     Type
  8662 ;;		None
  8663 ;; Auto vars:     Size  Location     Type
  8664 ;;		None
  8665 ;; Return value:  Size  Location     Type
  8666 ;;                  1    wreg      void 
  8667 ;; Registers used:
  8668 ;;		wreg, fsr0l, fsr0h, status,2, status,0, pclath, cstack
  8669 ;; Tracked objects:
  8670 ;;		On entry : 0/2
  8671 ;;		On exit  : 1F/3
  8672 ;;		Unchanged: 0/0
  8673 ;; Data sizes:     COMMON   BANK0   BANK1   BANK2   BANK3   BANK4   BANK5   BANK6   BANK7   BANK8   BANK9  BANK10  BANK1
      +1  BANK12
  8674 ;;      Params:         0       0       0       0       0       0       0       0       0       0       0       0       
      +0       0
  8675 ;;      Locals:         0       0       0       0       0       0       0       0       0       0       0       0       
      +0       0
  8676 ;;      Temps:          0       0       0       0       0       0       0       0       0       0       0       0       
      +0       0
  8677 ;;      Totals:         0       0       0       0       0       0       0       0       0       0       0       0       
      +0       0
  8678 ;;Total ram usage:        0 bytes
  8679 ;; Hardware stack levels used:    1
  8680 ;; Hardware stack levels required when called:    2
  8681 ;; This function calls:
  8682 ;;		_Delay_100ms
  8683 ;;		_UART_Transmit_string
  8684 ;; This function is called by:
  8685 ;;		_main
  8686 ;; This function uses a non-reentrant model
  8687 ;;
  8688                           
  8689                           
  8690                           ;psect for function _configure_GPS
  8691  1204                     _configure_GPS:	
  8692                           
  8693                           ;gps.c: 143: Delay_100ms(5);
  8694                           
  8695                           ;incstack = 0
  8696                           ; Regs used in _configure_GPS: [wreg-fsr0h+status,2+status,0+pclath+cstack]
  8697  1204  3005               	movlw	5
  8698  1205  00F2               	movwf	Delay_100ms@duree
  8699  1206  01F3               	clrf	Delay_100ms@duree+1
  8700  1207  3184  24E0  3190   	fcall	_Delay_100ms
  8701                           
  8702                           ;gps.c: 144: UART_Transmit_string(GGL);
  8703  120A  3000               	movlw	low (_GGL| (0+32768))
  8704  120B  00F2               	movwf	UART_Transmit_string@tx
  8705  120C  3098               	movlw	high (_GGL| (0+32768))
  8706  120D  00F3               	movwf	UART_Transmit_string@tx+1
  8707  120E  24C5  3190         	fcall	_UART_Transmit_string
  8708                           
  8709                           ;gps.c: 145: UART_Transmit_string(GSA);
  8710  1210  30CB               	movlw	low (_GSA| (0+32768))
  8711  1211  00F2               	movwf	UART_Transmit_string@tx
  8712  1212  3098               	movlw	high (_GSA| (0+32768))
  8713  1213  00F3               	movwf	UART_Transmit_string@tx+1
  8714  1214  24C5  3190         	fcall	_UART_Transmit_string
  8715                           
  8716                           ;gps.c: 146: UART_Transmit_string(GSV);
  8717  1216  30B1               	movlw	low (_GSV| (0+32768))
  8718  1217  00F2               	movwf	UART_Transmit_string@tx
  8719  1218  3098               	movlw	high (_GSV| (0+32768))
  8720  1219  00F3               	movwf	UART_Transmit_string@tx+1
  8721  121A  24C5  3190         	fcall	_UART_Transmit_string
  8722                           
  8723                           ;gps.c: 147: UART_Transmit_string(RMC);
  8724  121C  3097               	movlw	low (_RMC| (0+32768))
  8725  121D  00F2               	movwf	UART_Transmit_string@tx
  8726  121E  3098               	movlw	high (_RMC| (0+32768))
  8727  121F  00F3               	movwf	UART_Transmit_string@tx+1
  8728  1220  24C5  3190         	fcall	_UART_Transmit_string
  8729                           
  8730                           ;gps.c: 148: UART_Transmit_string(GGA_ON);
  8731  1222  3063               	movlw	low (_GGA_ON| (0+32768))
  8732  1223  00F2               	movwf	UART_Transmit_string@tx
  8733  1224  3098               	movlw	high (_GGA_ON| (0+32768))
  8734  1225  00F3               	movwf	UART_Transmit_string@tx+1
  8735  1226  24C5  3190         	fcall	_UART_Transmit_string
  8736                           
  8737                           ;gps.c: 149: UART_Transmit_string(VTG_OFF);
  8738  1228  3049               	movlw	low (_VTG_OFF| (0+32768))
  8739  1229  00F2               	movwf	UART_Transmit_string@tx
  8740  122A  3098               	movlw	high (_VTG_OFF| (0+32768))
  8741  122B  00F3               	movwf	UART_Transmit_string@tx+1
  8742  122C  24C5  3190         	fcall	_UART_Transmit_string
  8743  122E                     l520:	
  8744                           ;gps.c: 150: while( TXSTAbits.TRMT == 0);;
  8745                           
  8746  122E  0023               	movlb	3	; select bank3
  8747  122F  189E               	btfsc	30,1	;volatile
  8748  1230  0008               	return
  8749  1231  2A2E               	goto	l520
  8750  1232                     __end_of_configure_GPS:	
  8751  1232                     __ptext36:	
  8752 ;; *************** function _Envoi_message_Erreur *****************
  8753 ;; Defined at:
  8754 ;;		line 87 in file "../Sources/modem.c"
  8755 ;; Parameters:    Size  Location     Type
  8756 ;;  Vsolar          2   58[BANK0 ] unsigned short 
  8757 ;;  Vbackup         2   60[BANK0 ] unsigned short 
  8758 ;;  day_status      1   62[BANK0 ] unsigned char 
  8759 ;;  raison          1   63[BANK0 ] unsigned char 
  8760 ;; Auto vars:     Size  Location     Type
  8761 ;;  i               1   10[COMMON] unsigned char 
  8762 ;;  i2              1    0        unsigned char 
  8763 ;; Return value:  Size  Location     Type
  8764 ;;                  1    wreg      void 
  8765 ;; Registers used:
  8766 ;;		wreg, fsr0l, fsr0h, fsr1l, fsr1h, status,2, status,0, pclath, cstack
  8767 ;; Tracked objects:
  8768 ;;		On entry : 1F/0
  8769 ;;		On exit  : 0/0
  8770 ;;		Unchanged: 0/0
  8771 ;; Data sizes:     COMMON   BANK0   BANK1   BANK2   BANK3   BANK4   BANK5   BANK6   BANK7   BANK8   BANK9  BANK10  BANK1
      +1  BANK12
  8772 ;;      Params:         0       6       0       0       0       0       0       0       0       0       0       0       
      +0       0
  8773 ;;      Locals:         1       0       0       0       0       0       0       0       0       0       0       0       
      +0       0
  8774 ;;      Temps:          0       0       0       0       0       0       0       0       0       0       0       0       
      +0       0
  8775 ;;      Totals:         1       6       0       0       0       0       0       0       0       0       0       0       
      +0       0
  8776 ;;Total ram usage:        7 bytes
  8777 ;; Hardware stack levels used:    1
  8778 ;; Hardware stack levels required when called:    3
  8779 ;; This function calls:
  8780 ;;		_Delay_100ms
  8781 ;;		_UART_RX_Buffers_Init
  8782 ;;		_UART_Transmit_one_char
  8783 ;;		_UART_Transmit_string
  8784 ;;		___ftdiv
  8785 ;;		___fttol
  8786 ;;		___lwtoft
  8787 ;;		_hex_to_ascii
  8788 ;; This function is called by:
  8789 ;;		_main
  8790 ;; This function uses a non-reentrant model
  8791 ;;
  8792                           
  8793                           
  8794                           ;psect for function _Envoi_message_Erreur
  8795  1232                     _Envoi_message_Erreur:	
  8796                           
  8797                           ;modem.c: 89: unsigned char i,i2;
  8798                           ;modem.c: 90: UART_RX_Buffers_Init();
  8799                           
  8800                           ;incstack = 0
  8801                           ; Regs used in _Envoi_message_Erreur: [wreg-fsr1h+status,2+status,0+pclath+cstack]
  8802  1232  249F  3190         	fcall	_UART_RX_Buffers_Init
  8803                           
  8804                           ;modem.c: 92: TRISC4=0; APFCON0bits.TXCKSEL=0; APFCON0bits.RXDTSEL=0; TXSTAbits.TXEN=0b1
      +                          ; RCSTAbits.CREN=0b1;
  8805                           
  8806                           ;modem.c: 94: UART_Transmit_string("AT$SF=");
  8807  1234  2722  3190         	fcall	PL32	;call to abstracted procedure
  8808  1236  24C5  3190         	fcall	_UART_Transmit_string
  8809                           
  8810                           ;modem.c: 97: hex_to_ascii(0xE0);
  8811  1238  30E0               	movlw	224
  8812  1239  241E  3190         	fcall	_hex_to_ascii
  8813                           
  8814                           ;modem.c: 98: hex_to_ascii(raison);
  8815  123B  0020               	movlb	0	; select bank0
  8816  123C  085F               	movf	Envoi_message_Erreur@raison,w
  8817  123D  241E  3190         	fcall	_hex_to_ascii
  8818                           
  8819                           ;modem.c: 101: i = ((day_status << 3)& 0x08);
  8820  123F  0020               	movlb	0	; select bank0
  8821  1240  085E               	movf	Envoi_message_Erreur@day_status,w
  8822  1241  0709               	addwf	9,w
  8823  1242  0709               	addwf	9,w
  8824  1243  0709               	addwf	9,w
  8825  1244  00FA               	movwf	Envoi_message_Erreur@i
  8826  1245  3008               	movlw	8
  8827  1246  05FA               	andwf	Envoi_message_Erreur@i,f
  8828                           
  8829                           ;modem.c: 102: i = i | ((compteur_trames) &0x07);
  8830  1247  0022               	movlb	2	; select bank2
  8831  1248  0843               	movf	_compteur_trames^(0+256),w
  8832  1249  3907               	andlw	7
  8833  124A  04FA               	iorwf	Envoi_message_Erreur@i,f
  8834                           
  8835                           ;modem.c: 103: if (compteur_trames <7) compteur_trames++;
  8836  124B  3007               	movlw	7
  8837  124C  0243               	subwf	_compteur_trames^(0+256),w
  8838  124D  1803               	skipnc
  8839  124E  2A51               	goto	l6165
  8840  124F  0AC3               	incf	_compteur_trames^(0+256),f
  8841  1250  2A52               	goto	l6167
  8842  1251                     l6165:	
  8843                           
  8844                           ;modem.c: 104: else compteur_trames=0;
  8845  1251  01C3               	clrf	_compteur_trames^(0+256)
  8846  1252                     l6167:	
  8847                           
  8848                           ;modem.c: 105: hex_to_ascii(i);
  8849  1252  087A               	movf	Envoi_message_Erreur@i,w
  8850  1253  241E  3190         	fcall	_hex_to_ascii
  8851                           
  8852                           ;modem.c: 107: i=(unsigned char)((float)Vsolar/(float)20.0);
  8853  1255  0020               	movlb	0	; select bank0
  8854  1256  085B               	movf	Envoi_message_Erreur@Vsolar+1,w
  8855  1257  00A1               	movwf	___lwtoft@c+1
  8856  1258  085A               	movf	Envoi_message_Erreur@Vsolar,w
  8857  1259  00A0               	movwf	___lwtoft@c
  8858  125A  24B5  3190         	fcall	___lwtoft
  8859  125C  2771  3190         	fcall	PL76	;call to abstracted procedure
  8860  125E  2752  3190         	fcall	PL68	;call to abstracted procedure
  8861  1260  243C  3190         	fcall	___ftdiv
  8862  1262  2777               	fcall	PL80	;call to abstracted procedure
  8863  1263  3184  245F  3190   	fcall	___fttol
  8864  1266  084D               	movf	?___fttol,w
  8865  1267  00FA               	movwf	Envoi_message_Erreur@i
  8866                           
  8867                           ;modem.c: 108: hex_to_ascii(i);
  8868  1268  241E  3190         	fcall	_hex_to_ascii
  8869                           
  8870                           ;modem.c: 110: i=(unsigned char)((float)Vbackup/20.0);
  8871  126A  0020               	movlb	0	; select bank0
  8872  126B  085D               	movf	Envoi_message_Erreur@Vbackup+1,w
  8873  126C  00A1               	movwf	___lwtoft@c+1
  8874  126D  085C               	movf	Envoi_message_Erreur@Vbackup,w
  8875  126E  00A0               	movwf	___lwtoft@c
  8876  126F  24B5  3190         	fcall	___lwtoft
  8877  1271  2771  3190         	fcall	PL76	;call to abstracted procedure
  8878  1273  2752  3190         	fcall	PL68	;call to abstracted procedure
  8879  1275  243C  3190         	fcall	___ftdiv
  8880  1277  2777               	fcall	PL80	;call to abstracted procedure
  8881  1278  3184  245F  3190   	fcall	___fttol
  8882  127B  084D               	movf	?___fttol,w
  8883  127C  00FA               	movwf	Envoi_message_Erreur@i
  8884                           
  8885                           ;modem.c: 111: hex_to_ascii(i);
  8886  127D  087A               	movf	Envoi_message_Erreur@i,w
  8887  127E  241E  3190         	fcall	_hex_to_ascii
  8888                           
  8889                           ;modem.c: 115: UART_Transmit_one_char(0x0D);
  8890  1280  300D               	movlw	13
  8891  1281  2498  3190         	fcall	_UART_Transmit_one_char
  8892  1283                     l357:	
  8893                           ;modem.c: 116: while( TXSTAbits.TRMT == 0);;
  8894                           
  8895  1283  1C9E               	btfss	30,1	;volatile
  8896  1284  2A83               	goto	l357
  8897                           
  8898                           ;modem.c: 117: Delay_100ms(10);
  8899  1285  300A               	movlw	10
  8900  1286  00F2               	movwf	Delay_100ms@duree
  8901  1287  01F3               	clrf	Delay_100ms@duree+1
  8902  1288  3184  24E0  3190   	fcall	_Delay_100ms
  8903                           
  8904                           ;modem.c: 121: Delay_100ms(90);
  8905  128B  305A               	movlw	90
  8906  128C  00F2               	movwf	Delay_100ms@duree
  8907  128D  01F3               	clrf	Delay_100ms@duree+1
  8908  128E  3184  24E0  3190   	fcall	_Delay_100ms
  8909                           
  8910                           ;modem.c: 122: TXSTAbits.TXEN=0b0; RCSTAbits.CREN=0b0; TRISC4=1; UART_RX_Buffers_Init();
  8911  1291  27A3  3190         	fcall	PL102	;call to abstracted procedure
  8912  1293  2C9F               	ljmp	l5443
  8913  1294                     __end_of_Envoi_message_Erreur:	
  8914  1294                     __ptext34:	
  8915 ;; *************** function _Envoi_message_service *****************
  8916 ;; Defined at:
  8917 ;;		line 126 in file "../Sources/modem.c"
  8918 ;; Parameters:    Size  Location     Type
  8919 ;;  nb_slot_prot    1    wreg     PTR unsigned short 
  8920 ;;		 -> main@nb_slot_protec(2), 
  8921 ;;  actual_temp     1   58[BANK0 ] char 
  8922 ;;  temp_min        1   59[BANK0 ] PTR char 
  8923 ;;		 -> main@temp_min(1), 
  8924 ;;  temp_max        1   60[BANK0 ] PTR char 
  8925 ;;		 -> main@temp_max(1), 
  8926 ;;  temp_moy        1   61[BANK0 ] char 
  8927 ;;  sw_version      1   62[BANK0 ] unsigned char 
  8928 ;;  VBackup_min     1   63[BANK0 ] PTR float 
  8929 ;;		 -> main@VBackup_min(3), 
  8930 ;;  VBackup_max     1   64[BANK0 ] PTR float 
  8931 ;;		 -> main@VBackup_max(3), 
  8932 ;; Auto vars:     Size  Location     Type
  8933 ;;  nb_slot_prot    1   68[BANK0 ] PTR unsigned short 
  8934 ;;		 -> main@nb_slot_protec(2), 
  8935 ;;  i               1   69[BANK0 ] unsigned char 
  8936 ;;  i2              1   67[BANK0 ] unsigned char 
  8937 ;; Return value:  Size  Location     Type
  8938 ;;                  1    wreg      void 
  8939 ;; Registers used:
  8940 ;;		wreg, fsr0l, fsr0h, fsr1l, fsr1h, status,2, status,0, pclath, cstack
  8941 ;; Tracked objects:
  8942 ;;		On entry : 1F/0
  8943 ;;		On exit  : 0/0
  8944 ;;		Unchanged: 0/0
  8945 ;; Data sizes:     COMMON   BANK0   BANK1   BANK2   BANK3   BANK4   BANK5   BANK6   BANK7   BANK8   BANK9  BANK10  BANK1
      +1  BANK12
  8946 ;;      Params:         0       7       0       0       0       0       0       0       0       0       0       0       
      +0       0
  8947 ;;      Locals:         0       3       0       0       0       0       0       0       0       0       0       0       
      +0       0
  8948 ;;      Temps:          0       2       0       0       0       0       0       0       0       0       0       0       
      +0       0
  8949 ;;      Totals:         0      12       0       0       0       0       0       0       0       0       0       0       
      +0       0
  8950 ;;Total ram usage:       12 bytes
  8951 ;; Hardware stack levels used:    1
  8952 ;; Hardware stack levels required when called:    3
  8953 ;; This function calls:
  8954 ;;		_Delay_100ms
  8955 ;;		_UART_RX_Buffers_Init
  8956 ;;		_UART_Transmit_one_char
  8957 ;;		_UART_Transmit_string
  8958 ;;		___ftdiv
  8959 ;;		___fttol
  8960 ;;		___lwdiv
  8961 ;;		_hex_to_ascii
  8962 ;; This function is called by:
  8963 ;;		_main
  8964 ;; This function uses a non-reentrant model
  8965 ;;
  8966                           
  8967                           
  8968                           ;psect for function _Envoi_message_service
  8969  1294                     _Envoi_message_service:	
  8970                           
  8971                           ;incstack = 0
  8972                           ; Regs used in _Envoi_message_service: [wreg-fsr1h+status,2+status,0+pclath+cstack]
  8973                           ;Envoi_message_service@nb_slot_protec stored from wreg
  8974  1294  00E4               	movwf	Envoi_message_service@nb_slot_protec
  8975                           
  8976                           ;modem.c: 127: unsigned char i,i2;
  8977                           ;modem.c: 128: UART_RX_Buffers_Init();
  8978  1295  249F  3190         	fcall	_UART_RX_Buffers_Init
  8979                           
  8980                           ;modem.c: 129: TRISC4=0; APFCON0bits.TXCKSEL=0; APFCON0bits.RXDTSEL=0; TXSTAbits.TXEN=0b
      +                          1; RCSTAbits.CREN=0b1;
  8981                           
  8982                           ;modem.c: 130: UART_Transmit_string("AT$SF=");
  8983  1297  2722  3190         	fcall	PL32	;call to abstracted procedure
  8984  1299  24C5  3190         	fcall	_UART_Transmit_string
  8985                           
  8986                           ;modem.c: 132: i=0x60;
  8987  129B  3060               	movlw	96
  8988  129C  0020               	movlb	0	; select bank0
  8989  129D  00E5               	movwf	Envoi_message_service@i
  8990                           
  8991                           ;modem.c: 133: i = i | ((compteur_trames) &0x07);
  8992  129E  0022               	movlb	2	; select bank2
  8993  129F  0843               	movf	_compteur_trames^(0+256),w
  8994  12A0  3907               	andlw	7
  8995  12A1  0020               	movlb	0	; select bank0
  8996  12A2  04E5               	iorwf	Envoi_message_service@i,f
  8997                           
  8998                           ;modem.c: 134: if (compteur_trames <7) compteur_trames++;
  8999  12A3  3007               	movlw	7
  9000  12A4  0022               	movlb	2	; select bank2
  9001  12A5  0243               	subwf	_compteur_trames^(0+256),w
  9002  12A6  1803               	skipnc
  9003  12A7  2AAA               	goto	l6211
  9004  12A8  0AC3               	incf	_compteur_trames^(0+256),f
  9005  12A9  2AAB               	goto	l6213
  9006  12AA                     l6211:	
  9007                           
  9008                           ;modem.c: 135: else compteur_trames=0;
  9009  12AA  01C3               	clrf	_compteur_trames^(0+256)
  9010  12AB                     l6213:	
  9011                           
  9012                           ;modem.c: 137: hex_to_ascii(i);
  9013  12AB  0020               	movlb	0	; select bank0
  9014  12AC  0865               	movf	Envoi_message_service@i,w
  9015  12AD  241E  3190         	fcall	_hex_to_ascii
  9016                           
  9017                           ;modem.c: 139: hex_to_ascii(actual_temp);
  9018  12AF  0020               	movlb	0	; select bank0
  9019  12B0  085A               	movf	Envoi_message_service@actual_temp,w
  9020  12B1  241E  3190         	fcall	_hex_to_ascii
  9021                           
  9022                           ;modem.c: 140: hex_to_ascii(temp_moy);
  9023  12B3  0020               	movlb	0	; select bank0
  9024  12B4  085D               	movf	Envoi_message_service@temp_moy,w
  9025  12B5  241E  3190         	fcall	_hex_to_ascii
  9026                           
  9027                           ;modem.c: 141: hex_to_ascii(*temp_min);
  9028  12B7  27E2  3190         	fcall	PL152	;call to abstracted procedure
  9029  12B9  0801               	movf	1,w
  9030  12BA  241E  3190         	fcall	_hex_to_ascii
  9031                           
  9032                           ;modem.c: 142: *temp_min=actual_temp;
  9033  12BC  27E2  3190         	fcall	PL152	;call to abstracted procedure
  9034  12BE  085A               	movf	Envoi_message_service@actual_temp,w
  9035  12BF  0081               	movwf	1
  9036                           
  9037                           ;modem.c: 143: hex_to_ascii(*temp_max);
  9038  12C0  085C               	movf	Envoi_message_service@temp_max,w
  9039  12C1  0086               	movwf	6
  9040  12C2  0801               	movf	1,w
  9041  12C3  241E               	fcall	_hex_to_ascii
  9042                           
  9043                           ;modem.c: 144: *temp_max=actual_temp;
  9044  12C4  0020               	movlb	0	; select bank0
  9045  12C5  085C               	movf	Envoi_message_service@temp_max,w
  9046  12C6  0086               	movwf	6
  9047  12C7  3001               	movlw	1	; select bank2/3
  9048  12C8  0087               	movwf	7
  9049  12C9  085A               	movf	Envoi_message_service@actual_temp,w
  9050  12CA  0081               	movwf	1
  9051                           
  9052                           ;modem.c: 146: *nb_slot_protec = *nb_slot_protec / 20;
  9053  12CB  3014               	movlw	20
  9054  12CC  00F2               	movwf	___lwdiv@divisor
  9055  12CD  01F3               	clrf	___lwdiv@divisor+1
  9056  12CE  0864               	movf	Envoi_message_service@nb_slot_protec,w
  9057  12CF  0086               	movwf	6
  9058  12D0  0187               	clrf	7
  9059  12D1  3F40               	moviw [0]fsr1
  9060  12D2  00F4               	movwf	___lwdiv@dividend
  9061  12D3  3F41               	moviw [1]fsr1
  9062  12D4  00F5               	movwf	___lwdiv@dividend+1
  9063  12D5  3185  250A  3190   	fcall	___lwdiv
  9064  12D8  0020               	movlb	0	; select bank0
  9065  12D9  0864               	movf	Envoi_message_service@nb_slot_protec,w
  9066  12DA  0086               	movwf	6
  9067  12DB  0187               	clrf	7
  9068  12DC  0872               	movf	?___lwdiv,w
  9069  12DD  3FC0               	movwi [0]fsr1
  9070  12DE  0873               	movf	?___lwdiv+1,w
  9071  12DF  3FC1               	movwi [1]fsr1
  9072                           
  9073                           ;modem.c: 147: if(*nb_slot_protec > 63) *nb_slot_protec=63;
  9074  12E0  0864               	movf	Envoi_message_service@nb_slot_protec,w
  9075  12E1  0086               	movwf	6
  9076  12E2  3F40               	moviw [0]fsr1
  9077  12E3  00E1               	movwf	??_Envoi_message_service
  9078  12E4  3F41               	moviw [1]fsr1
  9079  12E5  00E2               	movwf	??_Envoi_message_service+1
  9080  12E6  3000               	movlw	0
  9081  12E7  0262               	subwf	??_Envoi_message_service+1,w
  9082  12E8  3040               	movlw	64
  9083  12E9  1903               	skipnz
  9084  12EA  0261               	subwf	??_Envoi_message_service,w
  9085  12EB  0864               	movf	Envoi_message_service@nb_slot_protec,w
  9086  12EC  0086               	movwf	6
  9087  12ED  1C03               	skipc
  9088  12EE  2AF5               	goto	L25
  9089  12EF  303F               	movlw	63
  9090  12F0  3FC0               	movwi [0]fsr1
  9091  12F1  3000               	movlw	0
  9092  12F2  3FC1               	movwi [1]fsr1
  9093                           
  9094                           ;modem.c: 148: i = (char) (*nb_slot_protec << 2);
  9095  12F3  0864               	movf	Envoi_message_service@nb_slot_protec,w
  9096  12F4  0086               	movwf	6
  9097  12F5                     L25:	
  9098  12F5  0187               	clrf	7
  9099  12F6  0801               	movf	1,w
  9100  12F7  0709               	addwf	9,w
  9101  12F8  0709               	addwf	9,w
  9102  12F9  00E5               	movwf	Envoi_message_service@i
  9103                           
  9104                           ;modem.c: 149: *nb_slot_protec=0;
  9105  12FA  0864               	movf	Envoi_message_service@nb_slot_protec,w
  9106  12FB  0086               	movwf	6
  9107  12FC  3000               	movlw	0
  9108  12FD  3FC0               	movwi [0]fsr1
  9109  12FE  3FC1               	movwi [1]fsr1
  9110                           
  9111                           ;modem.c: 151: if(nb_ko_modem<4) i2=nb_ko_modem;
  9112  12FF  3004               	movlw	4
  9113  1300  0022               	movlb	2	; select bank2
  9114  1301  0242               	subwf	_nb_ko_modem^(0+256),w
  9115  1302  1803               	skipnc
  9116  1303  2B06               	goto	l6239
  9117  1304  0842               	movf	_nb_ko_modem^(0+256),w
  9118  1305  2B07               	goto	L24
  9119  1306                     l6239:	
  9120                           
  9121                           ;modem.c: 152: else i2=3;
  9122  1306  3003               	movlw	3
  9123  1307                     L24:	
  9124  1307  0020               	movlb	0	; select bank0
  9125  1308  00E3               	movwf	Envoi_message_service@i2
  9126                           
  9127                           ;modem.c: 153: i= i | i2;
  9128  1309  04E5               	iorwf	Envoi_message_service@i,f
  9129                           
  9130                           ;modem.c: 154: hex_to_ascii(i);
  9131  130A  0865               	movf	Envoi_message_service@i,w
  9132  130B  241E  3190         	fcall	_hex_to_ascii
  9133                           
  9134                           ;modem.c: 156: i= sw_version << 4;
  9135  130D  0020               	movlb	0	; select bank0
  9136  130E  0E5E               	swapf	Envoi_message_service@sw_version,w
  9137  130F  39F0               	andlw	240
  9138  1310  00E5               	movwf	Envoi_message_service@i
  9139                           
  9140                           ;modem.c: 157: i = i & 0xF0;
  9141  1311  30F0               	movlw	240
  9142  1312  05E5               	andwf	Envoi_message_service@i,f
  9143                           
  9144                           ;modem.c: 158: hex_to_ascii(i);
  9145  1313  0865               	movf	Envoi_message_service@i,w
  9146  1314  241E  3190         	fcall	_hex_to_ascii
  9147                           
  9148                           ;modem.c: 160: i=(unsigned char)((float)*VBackup_min/(float)20.0);
  9149  1316  0020               	movlb	0	; select bank0
  9150  1317  085F               	movf	Envoi_message_service@VBackup_min,w
  9151  1318  2743  3190         	fcall	PL56	;call to abstracted procedure
  9152  131A  243C  3190         	fcall	___ftdiv
  9153  131C  2777               	fcall	PL80	;call to abstracted procedure
  9154  131D  3184  245F  3190   	fcall	___fttol
  9155  1320  084D               	movf	?___fttol,w
  9156  1321  00E5               	movwf	Envoi_message_service@i
  9157                           
  9158                           ;modem.c: 161: hex_to_ascii(i);
  9159  1322  241E  3190         	fcall	_hex_to_ascii
  9160                           
  9161                           ;modem.c: 162: i=(unsigned char)((float)*VBackup_max/(float)20.0);
  9162  1324  0020               	movlb	0	; select bank0
  9163  1325  0860               	movf	Envoi_message_service@VBackup_max,w
  9164  1326  2743  3190         	fcall	PL56	;call to abstracted procedure
  9165  1328  243C  3190         	fcall	___ftdiv
  9166  132A  2777               	fcall	PL80	;call to abstracted procedure
  9167  132B  3184  245F  3190   	fcall	___fttol
  9168  132E  084D               	movf	?___fttol,w
  9169  132F  00E5               	movwf	Envoi_message_service@i
  9170                           
  9171                           ;modem.c: 163: hex_to_ascii(i);
  9172  1330  241E  3190         	fcall	_hex_to_ascii
  9173                           
  9174                           ;modem.c: 164: *VBackup_min=9999;
  9175  1332  0020               	movlb	0	; select bank0
  9176  1333  085F               	movf	Envoi_message_service@VBackup_min,w
  9177  1334  0086               	movwf	6
  9178  1335  3001               	movlw	1	; select bank2/3
  9179  1336  0087               	movwf	7
  9180  1337  303C               	movlw	60
  9181  1338  3FC0               	movwi [0]fsr1
  9182  1339  301C               	movlw	28
  9183  133A  3FC1               	movwi [1]fsr1
  9184  133B  3046               	movlw	70
  9185  133C  3FC2               	movwi [2]fsr1
  9186                           
  9187                           ;modem.c: 165: *VBackup_max=-9999;
  9188  133D  0860               	movf	Envoi_message_service@VBackup_max,w
  9189  133E  0086               	movwf	6
  9190  133F  303C               	movlw	60
  9191  1340  3FC0               	movwi [0]fsr1
  9192  1341  301C               	movlw	28
  9193  1342  3FC1               	movwi [1]fsr1
  9194  1343  30C6               	movlw	198
  9195  1344  3FC2               	movwi [2]fsr1
  9196                           
  9197                           ;modem.c: 167: UART_Transmit_one_char(0x0D);
  9198  1345  300D               	movlw	13
  9199  1346  2498  3190         	fcall	_UART_Transmit_one_char
  9200  1348                     l368:	
  9201                           ;modem.c: 168: while( TXSTAbits.TRMT == 0);;
  9202                           
  9203  1348  1C9E               	btfss	30,1	;volatile
  9204  1349  2B48               	goto	l368
  9205                           
  9206                           ;modem.c: 169: Delay_100ms(10);
  9207  134A  300A               	movlw	10
  9208  134B  00F2               	movwf	Delay_100ms@duree
  9209  134C  01F3               	clrf	Delay_100ms@duree+1
  9210  134D  3184  24E0  3190   	fcall	_Delay_100ms
  9211                           
  9212                           ;modem.c: 173: Delay_100ms(90);
  9213  1350  305A               	movlw	90
  9214  1351  00F2               	movwf	Delay_100ms@duree
  9215  1352  01F3               	clrf	Delay_100ms@duree+1
  9216  1353  3184  24E0  3190   	fcall	_Delay_100ms
  9217                           
  9218                           ;modem.c: 174: TXSTAbits.TXEN=0b0; RCSTAbits.CREN=0b0; TRISC4=1; UART_RX_Buffers_Init();
  9219  1356  27A3  3190         	fcall	PL102	;call to abstracted procedure
  9220  1358  2C9F               	ljmp	l5443
  9221  1359                     __end_of_Envoi_message_service:	
  9222  1359                     __ptext37:	
  9223 ;; *************** function _Envoi_message *****************
  9224 ;; Defined at:
  9225 ;;		line 28 in file "../Sources/modem.c"
  9226 ;; Parameters:    Size  Location     Type
  9227 ;;  Longitude       4   58[BANK0 ] unsigned long 
  9228 ;;  Latitude        4   62[BANK0 ] unsigned long 
  9229 ;;  dop             1   66[BANK0 ] unsigned char 
  9230 ;;  Vsolar          2   67[BANK0 ] unsigned short 
  9231 ;;  Vbackup         2   69[BANK0 ] unsigned short 
  9232 ;;  day_status      1   71[BANK0 ] unsigned char 
  9233 ;;  timeout         1   72[BANK0 ] unsigned char 
  9234 ;;  vitesse         1   73[BANK0 ] unsigned char 
  9235 ;;  cap             1   74[BANK0 ] unsigned char 
  9236 ;; Auto vars:     Size  Location     Type
  9237 ;;  i               1   76[BANK0 ] unsigned char 
  9238 ;;  i2              1   75[BANK0 ] unsigned char 
  9239 ;; Return value:  Size  Location     Type
  9240 ;;                  1    wreg      void 
  9241 ;; Registers used:
  9242 ;;		wreg, fsr0l, fsr0h, fsr1l, fsr1h, status,2, status,0, pclath, cstack
  9243 ;; Tracked objects:
  9244 ;;		On entry : 1F/0
  9245 ;;		On exit  : 0/0
  9246 ;;		Unchanged: 0/0
  9247 ;; Data sizes:     COMMON   BANK0   BANK1   BANK2   BANK3   BANK4   BANK5   BANK6   BANK7   BANK8   BANK9  BANK10  BANK1
      +1  BANK12
  9248 ;;      Params:         0      17       0       0       0       0       0       0       0       0       0       0       
      +0       0
  9249 ;;      Locals:         0       2       0       0       0       0       0       0       0       0       0       0       
      +0       0
  9250 ;;      Temps:          1       0       0       0       0       0       0       0       0       0       0       0       
      +0       0
  9251 ;;      Totals:         1      19       0       0       0       0       0       0       0       0       0       0       
      +0       0
  9252 ;;Total ram usage:       20 bytes
  9253 ;; Hardware stack levels used:    1
  9254 ;; Hardware stack levels required when called:    3
  9255 ;; This function calls:
  9256 ;;		_Delay_100ms
  9257 ;;		_UART_RX_Buffers_Init
  9258 ;;		_UART_Transmit_one_char
  9259 ;;		_UART_Transmit_string
  9260 ;;		___ftadd
  9261 ;;		___ftdiv
  9262 ;;		___fttol
  9263 ;;		___lwtoft
  9264 ;;		_hex_to_ascii
  9265 ;; This function is called by:
  9266 ;;		_main
  9267 ;; This function uses a non-reentrant model
  9268 ;;
  9269                           
  9270                           
  9271                           ;psect for function _Envoi_message
  9272  1359                     _Envoi_message:	
  9273                           
  9274                           ;modem.c: 32: unsigned char i,i2;
  9275                           ;modem.c: 33: UART_RX_Buffers_Init();
  9276                           
  9277                           ;incstack = 0
  9278                           ; Regs used in _Envoi_message: [wreg-fsr1h+status,2+status,0+pclath+cstack]
  9279  1359  249F  3190         	fcall	_UART_RX_Buffers_Init
  9280                           
  9281                           ;modem.c: 35: TRISC4=0; APFCON0bits.TXCKSEL=0; APFCON0bits.RXDTSEL=0; TXSTAbits.TXEN=0b1
      +                          ; RCSTAbits.CREN=0b1;
  9282                           
  9283                           ;modem.c: 37: UART_Transmit_string("AT$SF=");
  9284  135B  2722  3190         	fcall	PL32	;call to abstracted procedure
  9285  135D  24C5  3190         	fcall	_UART_Transmit_string
  9286                           
  9287                           ;modem.c: 40: hex_to_ascii((Latitude >> 24) & 0xFF);
  9288  135F  0020               	movlb	0	; select bank0
  9289  1360  0861               	movf	Envoi_message@Latitude+3,w
  9290  1361  241E  3190         	fcall	_hex_to_ascii
  9291                           
  9292                           ;modem.c: 41: hex_to_ascii((Latitude >> 16) & 0xFF);
  9293  1363  0020               	movlb	0	; select bank0
  9294  1364  0860               	movf	Envoi_message@Latitude+2,w
  9295  1365  241E  3190         	fcall	_hex_to_ascii
  9296                           
  9297                           ;modem.c: 42: hex_to_ascii((Latitude >> 8) & 0xFF);
  9298  1367  0020               	movlb	0	; select bank0
  9299  1368  085F               	movf	Envoi_message@Latitude+1,w
  9300  1369  241E  3190         	fcall	_hex_to_ascii
  9301                           
  9302                           ;modem.c: 43: hex_to_ascii((Latitude) & 0xFF);
  9303  136B  0020               	movlb	0	; select bank0
  9304  136C  085E               	movf	Envoi_message@Latitude,w
  9305  136D  241E  3190         	fcall	_hex_to_ascii
  9306                           
  9307                           ;modem.c: 45: hex_to_ascii((Longitude >> 24) & 0xFF);
  9308  136F  0020               	movlb	0	; select bank0
  9309  1370  085D               	movf	Envoi_message@Longitude+3,w
  9310  1371  241E  3190         	fcall	_hex_to_ascii
  9311                           
  9312                           ;modem.c: 46: hex_to_ascii((Longitude >> 16) & 0xFF);
  9313  1373  0020               	movlb	0	; select bank0
  9314  1374  085C               	movf	Envoi_message@Longitude+2,w
  9315  1375  241E  3190         	fcall	_hex_to_ascii
  9316                           
  9317                           ;modem.c: 47: hex_to_ascii((Longitude >> 8) & 0xFF);
  9318  1377  0020               	movlb	0	; select bank0
  9319  1378  085B               	movf	Envoi_message@Longitude+1,w
  9320  1379  241E  3190         	fcall	_hex_to_ascii
  9321                           
  9322                           ;modem.c: 48: hex_to_ascii((Longitude) & 0xFF);
  9323  137B  0020               	movlb	0	; select bank0
  9324  137C  085A               	movf	Envoi_message@Longitude,w
  9325  137D  241E  3190         	fcall	_hex_to_ascii
  9326                           
  9327                           ;modem.c: 51: i = dop | ((day_status << 3)& 0x08);
  9328  137F  0020               	movlb	0	; select bank0
  9329  1380  0867               	movf	Envoi_message@day_status,w
  9330  1381  0709               	addwf	9,w
  9331  1382  0709               	addwf	9,w
  9332  1383  0709               	addwf	9,w
  9333  1384  3908               	andlw	8
  9334  1385  0462               	iorwf	Envoi_message@dop,w
  9335  1386  00EC               	movwf	Envoi_message@i
  9336                           
  9337                           ;modem.c: 52: i = i | ((compteur_trames) &0x07);
  9338  1387  0022               	movlb	2	; select bank2
  9339  1388  0843               	movf	_compteur_trames^(0+256),w
  9340  1389  3907               	andlw	7
  9341  138A  0020               	movlb	0	; select bank0
  9342  138B  04EC               	iorwf	Envoi_message@i,f
  9343                           
  9344                           ;modem.c: 53: if (compteur_trames <7) compteur_trames++;
  9345  138C  3007               	movlw	7
  9346  138D  0022               	movlb	2	; select bank2
  9347  138E  0243               	subwf	_compteur_trames^(0+256),w
  9348  138F  1803               	skipnc
  9349  1390  2B93               	goto	l6589
  9350  1391  0AC3               	incf	_compteur_trames^(0+256),f
  9351  1392  2B94               	goto	l6591
  9352  1393                     l6589:	
  9353                           
  9354                           ;modem.c: 54: else compteur_trames=0;
  9355  1393  01C3               	clrf	_compteur_trames^(0+256)
  9356  1394                     l6591:	
  9357                           
  9358                           ;modem.c: 55: hex_to_ascii(i);
  9359  1394  0020               	movlb	0	; select bank0
  9360  1395  086C               	movf	Envoi_message@i,w
  9361  1396  241E  3190         	fcall	_hex_to_ascii
  9362                           
  9363                           ;modem.c: 57: i= (timeout<<4);
  9364  1398  0020               	movlb	0	; select bank0
  9365  1399  0E68               	swapf	Envoi_message@timeout,w
  9366  139A  39F0               	andlw	240
  9367  139B  00EC               	movwf	Envoi_message@i
  9368                           
  9369                           ;modem.c: 58: i= i | (vitesse >>1);
  9370  139C  3669               	lsrf	Envoi_message@vitesse,w
  9371  139D  04EC               	iorwf	Envoi_message@i,f
  9372                           
  9373                           ;modem.c: 59: hex_to_ascii(i);
  9374  139E  086C               	movf	Envoi_message@i,w
  9375  139F  241E  3190         	fcall	_hex_to_ascii
  9376                           
  9377                           ;modem.c: 61: i= (vitesse & 0x01) << 7;
  9378  13A1  0020               	movlb	0	; select bank0
  9379  13A2  0869               	movf	Envoi_message@vitesse,w
  9380  13A3  3901               	andlw	1
  9381  13A4  00FA               	movwf	??_Envoi_message
  9382  13A5  3006               	movlw	6
  9383  13A6                     u7045:	
  9384  13A6  35FA               	lslf	??_Envoi_message,f
  9385  13A7  3EFF               	addlw	-1
  9386  13A8  1D03               	skipz
  9387  13A9  2BA6               	goto	u7045
  9388  13AA  357A               	lslf	??_Envoi_message,w
  9389  13AB  00EC               	movwf	Envoi_message@i
  9390                           
  9391                           ;modem.c: 62: i= i | ((cap & 0b01111100) <<2);
  9392  13AC  086A               	movf	Envoi_message@cap,w
  9393  13AD  397C               	andlw	124
  9394  13AE  0709               	addwf	9,w
  9395  13AF  0709               	addwf	9,w
  9396  13B0  04EC               	iorwf	Envoi_message@i,f
  9397                           
  9398                           ;modem.c: 63: if(Vsolar>=(31*(unsigned short)100.0)) i2=0x1F;
  9399  13B1  300C               	movlw	12
  9400  13B2  0264               	subwf	Envoi_message@Vsolar+1,w
  9401  13B3  301C               	movlw	28
  9402  13B4  1903               	skipnz
  9403  13B5  0263               	subwf	Envoi_message@Vsolar,w
  9404  13B6  1C03               	skipc
  9405  13B7  2BBA               	goto	l6607
  9406  13B8  301F               	movlw	31
  9407  13B9  2BD1               	goto	L27
  9408  13BA                     l6607:	
  9409                           
  9410                           ;modem.c: 64: else i2= (unsigned char)(((float)Vsolar / (float)100.0)+0.5);
  9411  13BA  0864               	movf	Envoi_message@Vsolar+1,w
  9412  13BB  00A1               	movwf	___lwtoft@c+1
  9413  13BC  0863               	movf	Envoi_message@Vsolar,w
  9414  13BD  00A0               	movwf	___lwtoft@c
  9415  13BE  24B5  3190         	fcall	___lwtoft
  9416  13C0  2771  3190         	fcall	PL76	;call to abstracted procedure
  9417  13C2  00B7               	movwf	___ftdiv@f1+2
  9418  13C3  30C8               	movlw	200
  9419  13C4  27F7  3190         	fcall	PL178	;call to abstracted procedure
  9420  13C6  243C  3190         	fcall	___ftdiv
  9421  13C8  2791  3190         	fcall	PL88	;call to abstracted procedure
  9422  13CA  24D4  3190         	fcall	___ftadd
  9423  13CC  27C6               	fcall	PL134	;call to abstracted procedure
  9424  13CD  3184  245F  3190   	fcall	___fttol
  9425  13D0  084D               	movf	?___fttol,w
  9426  13D1                     L27:	
  9427  13D1  00EB               	movwf	Envoi_message@i2
  9428                           
  9429                           ;modem.c: 65: i = i | (i2 >> 3);
  9430  13D2  00FA               	movwf	??_Envoi_message
  9431  13D3  36FA               	lsrf	??_Envoi_message,f
  9432  13D4  36FA               	lsrf	??_Envoi_message,f
  9433  13D5  36FA               	lsrf	??_Envoi_message,f
  9434  13D6  087A               	movf	??_Envoi_message,w
  9435  13D7  04EC               	iorwf	Envoi_message@i,f
  9436                           
  9437                           ;modem.c: 66: hex_to_ascii(i);
  9438  13D8  086C               	movf	Envoi_message@i,w
  9439  13D9  241E  3190         	fcall	_hex_to_ascii
  9440                           
  9441                           ;modem.c: 68: i= i2 << 5;
  9442  13DB  0020               	movlb	0	; select bank0
  9443  13DC  086B               	movf	Envoi_message@i2,w
  9444  13DD  00FA               	movwf	??_Envoi_message
  9445  13DE  3004               	movlw	4
  9446  13DF                     u7065:	
  9447  13DF  35FA               	lslf	??_Envoi_message,f
  9448  13E0  3EFF               	addlw	-1
  9449  13E1  1D03               	skipz
  9450  13E2  2BDF               	goto	u7065
  9451  13E3  357A               	lslf	??_Envoi_message,w
  9452  13E4  00EC               	movwf	Envoi_message@i
  9453                           
  9454                           ;modem.c: 69: if(Vbackup>=(31*(unsigned short)90.0)) i2=0x1F;
  9455  13E5  300A               	movlw	10
  9456  13E6  0266               	subwf	Envoi_message@Vbackup+1,w
  9457  13E7  30E6               	movlw	230
  9458  13E8  1903               	skipnz
  9459  13E9  0265               	subwf	Envoi_message@Vbackup,w
  9460  13EA  1C03               	skipc
  9461  13EB  2BEE               	goto	l6617
  9462  13EC  301F               	movlw	31
  9463  13ED  2C05               	goto	L28
  9464  13EE                     l6617:	
  9465                           
  9466                           ;modem.c: 70: else i2= (unsigned char)(((float)Vbackup / (float)90.0)+0.5);
  9467  13EE  0866               	movf	Envoi_message@Vbackup+1,w
  9468  13EF  00A1               	movwf	___lwtoft@c+1
  9469  13F0  0865               	movf	Envoi_message@Vbackup,w
  9470  13F1  00A0               	movwf	___lwtoft@c
  9471  13F2  24B5  3190         	fcall	___lwtoft
  9472  13F4  2771  3190         	fcall	PL76	;call to abstracted procedure
  9473  13F6  00B7               	movwf	___ftdiv@f1+2
  9474  13F7  30B4               	movlw	180
  9475  13F8  27F7  3190         	fcall	PL178	;call to abstracted procedure
  9476  13FA  243C  3190         	fcall	___ftdiv
  9477  13FC  2791  3190         	fcall	PL88	;call to abstracted procedure
  9478  13FE  24D4  3190         	fcall	___ftadd
  9479  1400  27C6               	fcall	PL134	;call to abstracted procedure
  9480  1401  3184  245F  3190   	fcall	___fttol
  9481  1404  084D               	movf	?___fttol,w
  9482  1405                     L28:	
  9483  1405  00EB               	movwf	Envoi_message@i2
  9484                           
  9485                           ;modem.c: 71: i = i | i2 ;
  9486  1406  04EC               	iorwf	Envoi_message@i,f
  9487                           
  9488                           ;modem.c: 72: hex_to_ascii(i);
  9489  1407  086C               	movf	Envoi_message@i,w
  9490  1408  241E  3190         	fcall	_hex_to_ascii
  9491                           
  9492                           ;modem.c: 75: UART_Transmit_one_char(0x0D);
  9493  140A  300D               	movlw	13
  9494  140B  2498  3190         	fcall	_UART_Transmit_one_char
  9495  140D                     l349:	
  9496                           ;modem.c: 76: while( TXSTAbits.TRMT == 0);;
  9497                           
  9498  140D  1C9E               	btfss	30,1	;volatile
  9499  140E  2C0D               	goto	l349
  9500                           
  9501                           ;modem.c: 77: Delay_100ms(10);
  9502  140F  300A               	movlw	10
  9503  1410  00F2               	movwf	Delay_100ms@duree
  9504  1411  01F3               	clrf	Delay_100ms@duree+1
  9505  1412  3184  24E0  3190   	fcall	_Delay_100ms
  9506                           
  9507                           ;modem.c: 81: Delay_100ms(90);
  9508  1415  305A               	movlw	90
  9509  1416  00F2               	movwf	Delay_100ms@duree
  9510  1417  01F3               	clrf	Delay_100ms@duree+1
  9511  1418  3184  24E0  3190   	fcall	_Delay_100ms
  9512                           
  9513                           ;modem.c: 83: TXSTAbits.TXEN=0b0; RCSTAbits.CREN=0b0; TRISC4=1; UART_RX_Buffers_Init();
  9514  141B  27A3  3190         	fcall	PL102	;call to abstracted procedure
  9515  141D  2C9F               	ljmp	l5443
  9516  141E                     __end_of_Envoi_message:	
  9517  141E                     __ptext38:	
  9518 ;; *************** function _hex_to_ascii *****************
  9519 ;; Defined at:
  9520 ;;		line 17 in file "../Sources/modem.c"
  9521 ;; Parameters:    Size  Location     Type
  9522 ;;  hex             1    wreg     unsigned char 
  9523 ;; Auto vars:     Size  Location     Type
  9524 ;;  hex             1    5[COMMON] unsigned char 
  9525 ;;  a               1    7[COMMON] unsigned char 
  9526 ;;  b               1    6[COMMON] unsigned char 
  9527 ;; Return value:  Size  Location     Type
  9528 ;;                  1    wreg      void 
  9529 ;; Registers used:
  9530 ;;		wreg, status,2, status,0, pclath, cstack
  9531 ;; Tracked objects:
  9532 ;;		On entry : 0/0
  9533 ;;		On exit  : 1F/3
  9534 ;;		Unchanged: 0/0
  9535 ;; Data sizes:     COMMON   BANK0   BANK1   BANK2   BANK3   BANK4   BANK5   BANK6   BANK7   BANK8   BANK9  BANK10  BANK1
      +1  BANK12
  9536 ;;      Params:         0       0       0       0       0       0       0       0       0       0       0       0       
      +0       0
  9537 ;;      Locals:         3       0       0       0       0       0       0       0       0       0       0       0       
      +0       0
  9538 ;;      Temps:          0       0       0       0       0       0       0       0       0       0       0       0       
      +0       0
  9539 ;;      Totals:         3       0       0       0       0       0       0       0       0       0       0       0       
      +0       0
  9540 ;;Total ram usage:        3 bytes
  9541 ;; Hardware stack levels used:    1
  9542 ;; Hardware stack levels required when called:    2
  9543 ;; This function calls:
  9544 ;;		_UART_Transmit_one_char
  9545 ;;		___bmul
  9546 ;; This function is called by:
  9547 ;;		_Envoi_message
  9548 ;;		_Envoi_message_Erreur
  9549 ;;		_Envoi_message_service
  9550 ;; This function uses a non-reentrant model
  9551 ;;
  9552                           
  9553                           
  9554                           ;psect for function _hex_to_ascii
  9555  141E                     _hex_to_ascii:	
  9556                           
  9557                           ;incstack = 0
  9558                           ; Regs used in _hex_to_ascii: [wreg+status,2+status,0+pclath+cstack]
  9559                           ;hex_to_ascii@hex stored from wreg
  9560  141E  00F5               	movwf	hex_to_ascii@hex
  9561                           
  9562                           ;modem.c: 18: unsigned char a;
  9563                           ;modem.c: 19: unsigned char b;
  9564                           ;modem.c: 20: a=hex/16;
  9565  141F  0E75               	swapf	hex_to_ascii@hex,w
  9566  1420  390F               	andlw	15
  9567  1421  00F7               	movwf	hex_to_ascii@a
  9568                           
  9569                           ;modem.c: 21: if(a<10) UART_Transmit_one_char(a+48);
  9570  1422  300A               	movlw	10
  9571  1423  0277               	subwf	hex_to_ascii@a,w
  9572  1424  0877               	movf	hex_to_ascii@a,w
  9573  1425  1803               	skipnc
  9574  1426  2C29               	goto	L30
  9575  1427  3E30               	addlw	48
  9576  1428  2C2A               	goto	L29
  9577  1429                     L30:	
  9578                           ;modem.c: 22: else UART_Transmit_one_char(a-10+65);
  9579                           
  9580  1429  3E37               	addlw	55
  9581  142A                     L29:	
  9582  142A  2498  3190         	fcall	_UART_Transmit_one_char
  9583                           
  9584                           ;modem.c: 23: b=hex-a*16;
  9585  142C  30F0               	movlw	240
  9586  142D  00F2               	movwf	___bmul@multiplicand
  9587  142E  0877               	movf	hex_to_ascii@a,w
  9588  142F  2716  3190         	fcall	___bmul
  9589  1431  0775               	addwf	hex_to_ascii@hex,w
  9590  1432  00F6               	movwf	hex_to_ascii@b
  9591                           
  9592                           ;modem.c: 24: if(b<10) UART_Transmit_one_char(b+48);
  9593  1433  300A               	movlw	10
  9594  1434  0276               	subwf	hex_to_ascii@b,w
  9595  1435  0876               	movf	hex_to_ascii@b,w
  9596  1436  1803               	skipnc
  9597  1437  2C3A               	goto	L31
  9598  1438  3E30               	addlw	48
  9599  1439  2C98               	ljmp	_UART_Transmit_one_char
  9600  143A                     L31:	
  9601                           ;modem.c: 25: else UART_Transmit_one_char(b-10+65);
  9602                           
  9603  143A  3E37               	addlw	55
  9604  143B  2C98               	ljmp	_UART_Transmit_one_char
  9605  143C                     __end_of_hex_to_ascii:	
  9606  143C                     __ptext43:	
  9607 ;; *************** function ___ftdiv *****************
  9608 ;; Defined at:
  9609 ;;		line 56 in file "C:\Program Files (x86)\Microchip\xc8\v1.44\sources\common\ftdiv.c"
  9610 ;; Parameters:    Size  Location     Type
  9611 ;;  f2              3   18[BANK0 ] float 
  9612 ;;  f1              3   21[BANK0 ] float 
  9613 ;; Auto vars:     Size  Location     Type
  9614 ;;  f3              3   28[BANK0 ] float 
  9615 ;;  sign            1   32[BANK0 ] unsigned char 
  9616 ;;  exp             1   31[BANK0 ] unsigned char 
  9617 ;;  cntr            1   27[BANK0 ] unsigned char 
  9618 ;; Return value:  Size  Location     Type
  9619 ;;                  3   18[BANK0 ] float 
  9620 ;; Registers used:
  9621 ;;		wreg, status,2, status,0, pclath, cstack
  9622 ;; Tracked objects:
  9623 ;;		On entry : 1F/0
  9624 ;;		On exit  : 1F/0
  9625 ;;		Unchanged: 0/0
  9626 ;; Data sizes:     COMMON   BANK0   BANK1   BANK2   BANK3   BANK4   BANK5   BANK6   BANK7   BANK8   BANK9  BANK10  BANK1
      +1  BANK12
  9627 ;;      Params:         0       6       0       0       0       0       0       0       0       0       0       0       
      +0       0
  9628 ;;      Locals:         0       6       0       0       0       0       0       0       0       0       0       0       
      +0       0
  9629 ;;      Temps:          0       3       0       0       0       0       0       0       0       0       0       0       
      +0       0
  9630 ;;      Totals:         0      15       0       0       0       0       0       0       0       0       0       0       
      +0       0
  9631 ;;Total ram usage:       15 bytes
  9632 ;; Hardware stack levels used:    1
  9633 ;; Hardware stack levels required when called:    2
  9634 ;; This function calls:
  9635 ;;		___ftpack
  9636 ;; This function is called by:
  9637 ;;		_Measure_Vdd_VSolar_VBackup
  9638 ;;		_main
  9639 ;;		_Envoi_message
  9640 ;;		_Envoi_message_Erreur
  9641 ;;		_Envoi_message_service
  9642 ;;		_strtod
  9643 ;; This function uses a non-reentrant model
  9644 ;;
  9645                           
  9646                           
  9647                           ;psect for function ___ftdiv
  9648  143C                     ___ftdiv:	
  9649                           
  9650                           ;incstack = 0
  9651                           ; Regs used in ___ftdiv: [wreg+status,2+status,0+pclath+cstack]
  9652  143C  0835               	movf	___ftdiv@f1,w
  9653  143D  00B8               	movwf	??___ftdiv
  9654  143E  0836               	movf	___ftdiv@f1+1,w
  9655  143F  00B9               	movwf	??___ftdiv+1
  9656  1440  0837               	movf	___ftdiv@f1+2,w
  9657  1441  00BA               	movwf	??___ftdiv+2
  9658  1442  1003               	clrc
  9659  1443  0D39               	rlf	??___ftdiv+1,w
  9660  1444  0D3A               	rlf	??___ftdiv+2,w
  9661  1445  00BF               	movwf	___ftdiv@exp
  9662  1446  083F               	movf	___ftdiv@exp,w
  9663  1447  1D03               	btfss	3,2
  9664  1448  2C4A               	goto	l5279
  9665  1449  2FFC               	ljmp	PL184	;call to abstracted procedure
  9666  144A                     l5279:	
  9667  144A  0832               	movf	___ftdiv@f2,w
  9668  144B  00B8               	movwf	??___ftdiv
  9669  144C  0833               	movf	___ftdiv@f2+1,w
  9670  144D  00B9               	movwf	??___ftdiv+1
  9671  144E  0834               	movf	___ftdiv@f2+2,w
  9672  144F  00BA               	movwf	??___ftdiv+2
  9673  1450  1003               	clrc
  9674  1451  0D39               	rlf	??___ftdiv+1,w
  9675  1452  0D3A               	rlf	??___ftdiv+2,w
  9676  1453  00C0               	movwf	___ftdiv@sign
  9677  1454  0840               	movf	___ftdiv@sign,w
  9678  1455  1D03               	btfss	3,2
  9679  1456  2C58               	goto	l926
  9680  1457  2FFC               	ljmp	PL184	;call to abstracted procedure
  9681  1458                     l926:	
  9682  1458  3089               	movlw	137
  9683  1459  01BC               	clrf	___ftdiv@f3
  9684  145A  01BD               	clrf	___ftdiv@f3+1
  9685  145B  01BE               	clrf	___ftdiv@f3+2
  9686  145C  0740               	addwf	___ftdiv@sign,w
  9687  145D  00B8               	movwf	??___ftdiv
  9688  145E  02BF               	subwf	___ftdiv@exp,f
  9689  145F  0837               	movf	___ftdiv@f1+2,w
  9690  1460  00C0               	movwf	___ftdiv@sign
  9691  1461  0834               	movf	___ftdiv@f2+2,w
  9692  1462  06C0               	xorwf	___ftdiv@sign,f
  9693  1463  3080               	movlw	128
  9694  1464  05C0               	andwf	___ftdiv@sign,f
  9695  1465  3018               	movlw	24
  9696  1466  17B6               	bsf	___ftdiv@f1+1,7
  9697  1467  01B7               	clrf	___ftdiv@f1+2
  9698  1468  17B3               	bsf	___ftdiv@f2+1,7
  9699  1469  01B4               	clrf	___ftdiv@f2+2
  9700  146A  00BB               	movwf	___ftdiv@cntr
  9701  146B                     l5301:	
  9702  146B  35BC               	lslf	___ftdiv@f3,f
  9703  146C  0DBD               	rlf	___ftdiv@f3+1,f
  9704  146D  0DBE               	rlf	___ftdiv@f3+2,f
  9705  146E  0834               	movf	___ftdiv@f2+2,w
  9706  146F  0237               	subwf	___ftdiv@f1+2,w
  9707  1470  1D03               	skipz
  9708  1471  2C78               	goto	u5295
  9709  1472  0833               	movf	___ftdiv@f2+1,w
  9710  1473  0236               	subwf	___ftdiv@f1+1,w
  9711  1474  1D03               	skipz
  9712  1475  2C78               	goto	u5295
  9713  1476  0832               	movf	___ftdiv@f2,w
  9714  1477  0235               	subwf	___ftdiv@f1,w
  9715  1478                     u5295:	
  9716  1478  1C03               	skipc
  9717  1479  2C81               	goto	l5307
  9718  147A  0832               	movf	___ftdiv@f2,w
  9719  147B  02B5               	subwf	___ftdiv@f1,f
  9720  147C  0833               	movf	___ftdiv@f2+1,w
  9721  147D  3BB6               	subwfb	___ftdiv@f1+1,f
  9722  147E  0834               	movf	___ftdiv@f2+2,w
  9723  147F  3BB7               	subwfb	___ftdiv@f1+2,f
  9724  1480  143C               	bsf	___ftdiv@f3,0
  9725  1481                     l5307:	
  9726  1481  35B5               	lslf	___ftdiv@f1,f
  9727  1482  0DB6               	rlf	___ftdiv@f1+1,f
  9728  1483  0DB7               	rlf	___ftdiv@f1+2,f
  9729  1484  0BBB               	decfsz	___ftdiv@cntr,f
  9730  1485  2C6B               	goto	l5301
  9731  1486  083C               	movf	___ftdiv@f3,w
  9732  1487  00F2               	movwf	___ftpack@arg
  9733  1488  083D               	movf	___ftdiv@f3+1,w
  9734  1489  00F3               	movwf	___ftpack@arg+1
  9735  148A  083E               	movf	___ftdiv@f3+2,w
  9736  148B  00F4               	movwf	___ftpack@arg+2
  9737  148C  083F               	movf	___ftdiv@exp,w
  9738  148D  00F5               	movwf	___ftpack@exp
  9739  148E  0840               	movf	___ftdiv@sign,w
  9740  148F  00F6               	movwf	___ftpack@sign
  9741  1490  26D8               	fcall	___ftpack
  9742  1491  0872               	movf	?___ftpack,w
  9743  1492  00B2               	movwf	?___ftdiv
  9744  1493  0873               	movf	?___ftpack+1,w
  9745  1494  00B3               	movwf	?___ftdiv+1
  9746  1495  0874               	movf	?___ftpack+2,w
  9747  1496  00B4               	movwf	?___ftdiv+2
  9748  1497  0008               	return
  9749  1498                     __end_of___ftdiv:	
  9750  1498                     __ptext40:	
  9751 ;; *************** function _UART_Transmit_one_char *****************
  9752 ;; Defined at:
  9753 ;;		line 33 in file "../Sources/serial.c"
  9754 ;; Parameters:    Size  Location     Type
  9755 ;;  tx              1    wreg     unsigned char 
  9756 ;; Auto vars:     Size  Location     Type
  9757 ;;  tx              1    2[COMMON] unsigned char 
  9758 ;; Return value:  Size  Location     Type
  9759 ;;                  1    wreg      void 
  9760 ;; Registers used:
  9761 ;;		wreg
  9762 ;; Tracked objects:
  9763 ;;		On entry : 0/3
  9764 ;;		On exit  : 1F/3
  9765 ;;		Unchanged: 0/0
  9766 ;; Data sizes:     COMMON   BANK0   BANK1   BANK2   BANK3   BANK4   BANK5   BANK6   BANK7   BANK8   BANK9  BANK10  BANK1
      +1  BANK12
  9767 ;;      Params:         0       0       0       0       0       0       0       0       0       0       0       0       
      +0       0
  9768 ;;      Locals:         1       0       0       0       0       0       0       0       0       0       0       0       
      +0       0
  9769 ;;      Temps:          0       0       0       0       0       0       0       0       0       0       0       0       
      +0       0
  9770 ;;      Totals:         1       0       0       0       0       0       0       0       0       0       0       0       
      +0       0
  9771 ;;Total ram usage:        1 bytes
  9772 ;; Hardware stack levels used:    1
  9773 ;; Hardware stack levels required when called:    1
  9774 ;; This function calls:
  9775 ;;		Nothing
  9776 ;; This function is called by:
  9777 ;;		_hex_to_ascii
  9778 ;;		_Envoi_message
  9779 ;;		_Envoi_message_Erreur
  9780 ;;		_Envoi_message_service
  9781 ;;		_Recuperer_Temp
  9782 ;; This function uses a non-reentrant model
  9783 ;;
  9784                           
  9785                           
  9786                           ;psect for function _UART_Transmit_one_char
  9787  1498                     _UART_Transmit_one_char:	
  9788                           
  9789                           ;incstack = 0
  9790                           ; Regs used in _UART_Transmit_one_char: [wreg]
  9791                           ;UART_Transmit_one_char@tx stored from wreg
  9792  1498  00F2               	movwf	UART_Transmit_one_char@tx
  9793  1499                     l254:	
  9794                           ;serial.c: 35: while( TXSTAbits.TRMT == 0);
  9795                           
  9796  1499  0023               	movlb	3	; select bank3
  9797  149A  1C9E               	btfss	30,1	;volatile
  9798  149B  2C99               	goto	l254
  9799                           
  9800                           ;serial.c: 36: TXREG = tx;
  9801  149C  0872               	movf	UART_Transmit_one_char@tx,w
  9802  149D  009A               	movwf	26	;volatile
  9803  149E  0008               	return
  9804  149F                     __end_of_UART_Transmit_one_char:	
  9805  149F                     __ptext47:	
  9806 ;; *************** function _UART_RX_Buffers_Init *****************
  9807 ;; Defined at:
  9808 ;;		line 26 in file "../Sources/serial.c"
  9809 ;; Parameters:    Size  Location     Type
  9810 ;;		None
  9811 ;; Auto vars:     Size  Location     Type
  9812 ;;  i               1    4[COMMON] unsigned char 
  9813 ;; Return value:  Size  Location     Type
  9814 ;;                  1    wreg      void 
  9815 ;; Registers used:
  9816 ;;		wreg, fsr1l, fsr1h, status,2, status,0
  9817 ;; Tracked objects:
  9818 ;;		On entry : 0/3
  9819 ;;		On exit  : 0/0
  9820 ;;		Unchanged: 0/0
  9821 ;; Data sizes:     COMMON   BANK0   BANK1   BANK2   BANK3   BANK4   BANK5   BANK6   BANK7   BANK8   BANK9  BANK10  BANK1
      +1  BANK12
  9822 ;;      Params:         0       0       0       0       0       0       0       0       0       0       0       0       
      +0       0
  9823 ;;      Locals:         1       0       0       0       0       0       0       0       0       0       0       0       
      +0       0
  9824 ;;      Temps:          2       0       0       0       0       0       0       0       0       0       0       0       
      +0       0
  9825 ;;      Totals:         3       0       0       0       0       0       0       0       0       0       0       0       
      +0       0
  9826 ;;Total ram usage:        3 bytes
  9827 ;; Hardware stack levels used:    1
  9828 ;; Hardware stack levels required when called:    1
  9829 ;; This function calls:
  9830 ;;		Nothing
  9831 ;; This function is called by:
  9832 ;;		_main
  9833 ;;		_Envoi_message
  9834 ;;		_Envoi_message_Erreur
  9835 ;;		_Envoi_message_service
  9836 ;;		_Recuperer_Temp
  9837 ;;		_configure_GPS_VTG
  9838 ;; This function uses a non-reentrant model
  9839 ;;
  9840                           
  9841                           
  9842                           ;psect for function _UART_RX_Buffers_Init
  9843  149F                     _UART_RX_Buffers_Init:	
  9844  149F                     l5443:	
  9845                           ;incstack = 0
  9846                           ; Regs used in _UART_RX_Buffers_Init: [wreg+fsr1l+fsr1h+status,2+status,0]
  9847                           
  9848                           
  9849                           ;serial.c: 27: unsigned char i;
  9850                           ;serial.c: 28: UART_RX_WR_ptr=0;
  9851  149F  01FB               	clrf	_UART_RX_WR_ptr	;volatile
  9852                           
  9853                           ;serial.c: 29: UART_RX_RD_ptr=0;
  9854  14A0  0022               	movlb	2	; select bank2
  9855  14A1  01C4               	clrf	_UART_RX_RD_ptr^(0+256)
  9856                           
  9857                           ;serial.c: 30: for(i=0;i<100;i++)UART_buffer_RX[i]='0';
  9858  14A2  01F4               	clrf	UART_RX_Buffers_Init@i
  9859  14A3                     l5449:	
  9860  14A3  0874               	movf	UART_RX_Buffers_Init@i,w
  9861  14A4  3E2C               	addlw	44
  9862  14A5  00F2               	movwf	??_UART_RX_Buffers_Init
  9863  14A6  3023               	movlw	35
  9864  14A7  01F3               	clrf	??_UART_RX_Buffers_Init+1
  9865  14A8  3DF3               	addwfc	??_UART_RX_Buffers_Init+1,f
  9866  14A9  0872               	movf	??_UART_RX_Buffers_Init,w
  9867  14AA  0086               	movwf	6
  9868  14AB  0873               	movf	??_UART_RX_Buffers_Init+1,w
  9869  14AC  0087               	movwf	7
  9870  14AD  3030               	movlw	48
  9871  14AE  0081               	movwf	1
  9872  14AF  3064               	movlw	100
  9873  14B0  0AF4               	incf	UART_RX_Buffers_Init@i,f
  9874  14B1  0274               	subwf	UART_RX_Buffers_Init@i,w
  9875  14B2  1803               	btfsc	3,0
  9876  14B3  0008               	return
  9877  14B4  2CA3               	goto	l5449
  9878  14B5                     __end_of_UART_RX_Buffers_Init:	
  9879  14B5                     __ptext41:	
  9880 ;; *************** function ___lwtoft *****************
  9881 ;; Defined at:
  9882 ;;		line 28 in file "C:\Program Files (x86)\Microchip\xc8\v1.44\sources\common\lwtoft.c"
  9883 ;; Parameters:    Size  Location     Type
  9884 ;;  c               2    0[BANK0 ] unsigned int 
  9885 ;; Auto vars:     Size  Location     Type
  9886 ;;		None
  9887 ;; Return value:  Size  Location     Type
  9888 ;;                  3    0[BANK0 ] float 
  9889 ;; Registers used:
  9890 ;;		wreg, status,2, status,0, pclath, cstack
  9891 ;; Tracked objects:
  9892 ;;		On entry : 1F/0
  9893 ;;		On exit  : 1F/0
  9894 ;;		Unchanged: 0/0
  9895 ;; Data sizes:     COMMON   BANK0   BANK1   BANK2   BANK3   BANK4   BANK5   BANK6   BANK7   BANK8   BANK9  BANK10  BANK1
      +1  BANK12
  9896 ;;      Params:         0       3       0       0       0       0       0       0       0       0       0       0       
      +0       0
  9897 ;;      Locals:         0       0       0       0       0       0       0       0       0       0       0       0       
      +0       0
  9898 ;;      Temps:          0       0       0       0       0       0       0       0       0       0       0       0       
      +0       0
  9899 ;;      Totals:         0       3       0       0       0       0       0       0       0       0       0       0       
      +0       0
  9900 ;;Total ram usage:        3 bytes
  9901 ;; Hardware stack levels used:    1
  9902 ;; Hardware stack levels required when called:    2
  9903 ;; This function calls:
  9904 ;;		___ftpack
  9905 ;; This function is called by:
  9906 ;;		_Measure_Vdd_VSolar_VBackup
  9907 ;;		_Envoi_message
  9908 ;;		_Envoi_message_Erreur
  9909 ;; This function uses a non-reentrant model
  9910 ;;
  9911                           
  9912                           
  9913                           ;psect for function ___lwtoft
  9914  14B5                     ___lwtoft:	
  9915                           
  9916                           ;incstack = 0
  9917                           ; Regs used in ___lwtoft: [wreg+status,2+status,0+pclath+cstack]
  9918  14B5  0820               	movf	___lwtoft@c,w
  9919  14B6  00F2               	movwf	___ftpack@arg
  9920  14B7  0821               	movf	___lwtoft@c+1,w
  9921  14B8  00F3               	movwf	___ftpack@arg+1
  9922  14B9  308E               	movlw	142
  9923  14BA  01F4               	clrf	___ftpack@arg+2
  9924  14BB  00F5               	movwf	___ftpack@exp
  9925  14BC  01F6               	clrf	___ftpack@sign
  9926  14BD  26D8               	fcall	___ftpack
  9927  14BE  0872               	movf	?___ftpack,w
  9928  14BF  00A0               	movwf	?___lwtoft
  9929  14C0  0873               	movf	?___ftpack+1,w
  9930  14C1  00A1               	movwf	?___lwtoft+1
  9931  14C2  0874               	movf	?___ftpack+2,w
  9932  14C3  00A2               	movwf	?___lwtoft+2
  9933  14C4  0008               	return
  9934  14C5                     __end_of___lwtoft:	
  9935  14C5                     __ptext46:	
  9936 ;; *************** function _UART_Transmit_string *****************
  9937 ;; Defined at:
  9938 ;;		line 39 in file "../Sources/serial.c"
  9939 ;; Parameters:    Size  Location     Type
  9940 ;;  tx              2    2[COMMON] PTR const unsigned char 
  9941 ;;		 -> VTG_ON(26), GGA_OFF(26), VTG_OFF(26), GGA_ON(26), 
  9942 ;;		 -> RMC(26), GSV(26), GSA(26), GGL(26), 
  9943 ;;		 -> STR_8(21), STR_7(6), STR_6(7), STR_5(5), 
  9944 ;;		 -> STR_3(7), STR_2(7), STR_1(7), 
  9945 ;; Auto vars:     Size  Location     Type
  9946 ;;  a               1    7[COMMON] unsigned char 
  9947 ;; Return value:  Size  Location     Type
  9948 ;;                  1    wreg      void 
  9949 ;; Registers used:
  9950 ;;		wreg, fsr0l, fsr0h, status,2, status,0, pclath
  9951 ;; Tracked objects:
  9952 ;;		On entry : 0/1
  9953 ;;		On exit  : 0/0
  9954 ;;		Unchanged: 0/0
  9955 ;; Data sizes:     COMMON   BANK0   BANK1   BANK2   BANK3   BANK4   BANK5   BANK6   BANK7   BANK8   BANK9  BANK10  BANK1
      +1  BANK12
  9956 ;;      Params:         2       0       0       0       0       0       0       0       0       0       0       0       
      +0       0
  9957 ;;      Locals:         1       0       0       0       0       0       0       0       0       0       0       0       
      +0       0
  9958 ;;      Temps:          3       0       0       0       0       0       0       0       0       0       0       0       
      +0       0
  9959 ;;      Totals:         6       0       0       0       0       0       0       0       0       0       0       0       
      +0       0
  9960 ;;Total ram usage:        6 bytes
  9961 ;; Hardware stack levels used:    1
  9962 ;; Hardware stack levels required when called:    1
  9963 ;; This function calls:
  9964 ;;		Nothing
  9965 ;; This function is called by:
  9966 ;;		_Envoi_message
  9967 ;;		_Envoi_message_Erreur
  9968 ;;		_Envoi_message_service
  9969 ;;		_Recuperer_Temp
  9970 ;;		_configure_GPS
  9971 ;;		_configure_GPS_VTG
  9972 ;; This function uses a non-reentrant model
  9973 ;;
  9974                           
  9975                           
  9976                           ;psect for function _UART_Transmit_string
  9977  14C5                     _UART_Transmit_string:	
  9978                           
  9979                           ;serial.c: 41: unsigned char a;
  9980                           ;serial.c: 42: a=0;
  9981                           
  9982                           ;incstack = 0
  9983                           ; Regs used in _UART_Transmit_string: [wreg-fsr0h+status,2+status,0+pclath]
  9984  14C5  01F7               	clrf	UART_Transmit_string@a
  9985  14C6                     l5511:	
  9986                           ;serial.c: 43: while(tx[a] != '\0'){
  9987                           
  9988  14C6  2765  3190         	fcall	PL72	;call to abstracted procedure
  9989  14C8  0012               	moviw fsr0++
  9990  14C9  1903               	btfsc	3,2
  9991  14CA  0008               	return
  9992  14CB                     l262:	
  9993  14CB  0023               	movlb	3	; select bank3
  9994  14CC  1C9E               	btfss	30,1	;volatile
  9995  14CD  2CCB               	goto	l262
  9996                           
  9997                           ;serial.c: 45: TXREG = tx[a++];
  9998  14CE  2765  3190         	fcall	PL72	;call to abstracted procedure
  9999  14D0  0800               	movf	0,w	;code access
 10000  14D1  009A               	movwf	26	;volatile
 10001  14D2  0AF7               	incf	UART_Transmit_string@a,f
 10002  14D3  2CC6               	goto	l5511
 10003  14D4                     __end_of_UART_Transmit_string:	
 10004  14D4                     __ptext44:	
 10005 ;; *************** function ___ftadd *****************
 10006 ;; Defined at:
 10007 ;;		line 86 in file "C:\Program Files (x86)\Microchip\xc8\v1.44\sources\common\ftadd.c"
 10008 ;; Parameters:    Size  Location     Type
 10009 ;;  f1              3   33[BANK0 ] float 
 10010 ;;  f2              3   36[BANK0 ] float 
 10011 ;; Auto vars:     Size  Location     Type
 10012 ;;  exp1            1   44[BANK0 ] unsigned char 
 10013 ;;  exp2            1   43[BANK0 ] unsigned char 
 10014 ;;  sign            1   42[BANK0 ] unsigned char 
 10015 ;; Return value:  Size  Location     Type
 10016 ;;                  3   33[BANK0 ] float 
 10017 ;; Registers used:
 10018 ;;		wreg, status,2, status,0, pclath, cstack
 10019 ;; Tracked objects:
 10020 ;;		On entry : 1F/0
 10021 ;;		On exit  : 1F/0
 10022 ;;		Unchanged: 0/0
 10023 ;; Data sizes:     COMMON   BANK0   BANK1   BANK2   BANK3   BANK4   BANK5   BANK6   BANK7   BANK8   BANK9  BANK10  BANK1
      +1  BANK12
 10024 ;;      Params:         0       6       0       0       0       0       0       0       0       0       0       0       
      +0       0
 10025 ;;      Locals:         0       3       0       0       0       0       0       0       0       0       0       0       
      +0       0
 10026 ;;      Temps:          0       3       0       0       0       0       0       0       0       0       0       0       
      +0       0
 10027 ;;      Totals:         0      12       0       0       0       0       0       0       0       0       0       0       
      +0       0
 10028 ;;Total ram usage:       12 bytes
 10029 ;; Hardware stack levels used:    1
 10030 ;; Hardware stack levels required when called:    2
 10031 ;; This function calls:
 10032 ;;		___ftpack
 10033 ;; This function is called by:
 10034 ;;		_Envoi_message
 10035 ;; This function uses a non-reentrant model
 10036 ;;
 10037                           
 10038                           
 10039                           ;psect for function ___ftadd
 10040  14D4                     ___ftadd:	
 10041                           
 10042                           ;incstack = 0
 10043                           ; Regs used in ___ftadd: [wreg+status,2+status,0+pclath+cstack]
 10044  14D4  0841               	movf	___ftadd@f1,w
 10045  14D5  00C7               	movwf	??___ftadd
 10046  14D6  0842               	movf	___ftadd@f1+1,w
 10047  14D7  00C8               	movwf	??___ftadd+1
 10048  14D8  0843               	movf	___ftadd@f1+2,w
 10049  14D9  00C9               	movwf	??___ftadd+2
 10050  14DA  1003               	clrc
 10051  14DB  0D48               	rlf	??___ftadd+1,w
 10052  14DC  0D49               	rlf	??___ftadd+2,w
 10053  14DD  00CC               	movwf	___ftadd@exp1
 10054  14DE  0844               	movf	___ftadd@f2,w
 10055  14DF  00C7               	movwf	??___ftadd
 10056  14E0  0845               	movf	___ftadd@f2+1,w
 10057  14E1  00C8               	movwf	??___ftadd+1
 10058  14E2  0846               	movf	___ftadd@f2+2,w
 10059  14E3  00C9               	movwf	??___ftadd+2
 10060  14E4  1003               	clrc
 10061  14E5  0D48               	rlf	??___ftadd+1,w
 10062  14E6  0D49               	rlf	??___ftadd+2,w
 10063  14E7  00CB               	movwf	___ftadd@exp2
 10064  14E8  084C               	movf	___ftadd@exp1,w
 10065  14E9  1903               	btfsc	3,2
 10066  14EA  2CF7               	goto	l5939
 10067  14EB  084B               	movf	___ftadd@exp2,w
 10068  14EC  024C               	subwf	___ftadd@exp1,w
 10069  14ED  084B               	movf	___ftadd@exp2,w
 10070  14EE  1803               	skipnc
 10071  14EF  2CFF               	goto	L32
 10072  14F0  00C7               	movwf	??___ftadd
 10073  14F1  084C               	movf	___ftadd@exp1,w
 10074  14F2  02C7               	subwf	??___ftadd,f
 10075  14F3  3019               	movlw	25
 10076  14F4  0247               	subwf	??___ftadd,w
 10077  14F5  1C03               	skipc
 10078  14F6  2CFE               	goto	l5943
 10079  14F7                     l5939:	
 10080  14F7  0844               	movf	___ftadd@f2,w
 10081  14F8  00C1               	movwf	?___ftadd
 10082  14F9  0845               	movf	___ftadd@f2+1,w
 10083  14FA  00C2               	movwf	?___ftadd+1
 10084  14FB  0846               	movf	___ftadd@f2+2,w
 10085  14FC  00C3               	movwf	?___ftadd+2
 10086  14FD  0008               	return
 10087  14FE                     l5943:	
 10088  14FE  084B               	movf	___ftadd@exp2,w
 10089  14FF                     L32:	
 10090  14FF  1903               	btfsc	3,2
 10091  1500  0008               	return
 10092  1501  084C               	movf	___ftadd@exp1,w
 10093  1502  024B               	subwf	___ftadd@exp2,w
 10094  1503  1803               	skipnc
 10095  1504  2D0D               	goto	l5949
 10096  1505  084C               	movf	___ftadd@exp1,w
 10097  1506  00C7               	movwf	??___ftadd
 10098  1507  084B               	movf	___ftadd@exp2,w
 10099  1508  02C7               	subwf	??___ftadd,f
 10100  1509  3019               	movlw	25
 10101  150A  0247               	subwf	??___ftadd,w
 10102  150B  1803               	btfsc	3,0
 10103  150C  0008               	return
 10104  150D                     l5949:	
 10105  150D  3006               	movlw	6
 10106  150E  00CA               	movwf	___ftadd@sign
 10107  150F  1BC3               	btfsc	___ftadd@f1+2,7
 10108  1510  17CA               	bsf	___ftadd@sign,7
 10109  1511  1BC6               	btfsc	___ftadd@f2+2,7
 10110  1512  174A               	bsf	___ftadd@sign,6
 10111  1513  17C2               	bsf	___ftadd@f1+1,7
 10112  1514  01C3               	clrf	___ftadd@f1+2
 10113  1515  17C5               	bsf	___ftadd@f2+1,7
 10114  1516  01C6               	clrf	___ftadd@f2+2
 10115  1517  084B               	movf	___ftadd@exp2,w
 10116  1518  024C               	subwf	___ftadd@exp1,w
 10117  1519  1803               	skipnc
 10118  151A  2D32               	goto	l5971
 10119  151B                     l5961:	
 10120  151B  35C4               	lslf	___ftadd@f2,f
 10121  151C  0DC5               	rlf	___ftadd@f2+1,f
 10122  151D  0DC6               	rlf	___ftadd@f2+2,f
 10123  151E  03CB               	decf	___ftadd@exp2,f
 10124  151F  084B               	movf	___ftadd@exp2,w
 10125  1520  064C               	xorwf	___ftadd@exp1,w
 10126  1521  1903               	skipnz
 10127  1522  2D2D               	goto	l5969
 10128  1523  03CA               	decf	___ftadd@sign,f
 10129  1524  084A               	movf	___ftadd@sign,w
 10130  1525  3907               	andlw	7
 10131  1526  1903               	btfsc	3,2
 10132  1527  2D2D               	goto	l5969
 10133  1528  2D1B               	goto	l5961
 10134  1529                     l5967:	
 10135  1529  36C3               	lsrf	___ftadd@f1+2,f
 10136  152A  0CC2               	rrf	___ftadd@f1+1,f
 10137  152B  0CC1               	rrf	___ftadd@f1,f
 10138  152C  0ACC               	incf	___ftadd@exp1,f
 10139  152D                     l5969:	
 10140  152D  084C               	movf	___ftadd@exp1,w
 10141  152E  064B               	xorwf	___ftadd@exp2,w
 10142  152F  1903               	btfsc	3,2
 10143  1530  2D4C               	goto	l908
 10144  1531  2D29               	goto	l5967
 10145  1532                     l5971:	
 10146  1532  084C               	movf	___ftadd@exp1,w
 10147  1533  024B               	subwf	___ftadd@exp2,w
 10148  1534  1803               	skipnc
 10149  1535  2D4C               	goto	l908
 10150  1536                     l5973:	
 10151  1536  35C1               	lslf	___ftadd@f1,f
 10152  1537  0DC2               	rlf	___ftadd@f1+1,f
 10153  1538  0DC3               	rlf	___ftadd@f1+2,f
 10154  1539  03CC               	decf	___ftadd@exp1,f
 10155  153A  084B               	movf	___ftadd@exp2,w
 10156  153B  064C               	xorwf	___ftadd@exp1,w
 10157  153C  1903               	skipnz
 10158  153D  2D48               	goto	l5981
 10159  153E  03CA               	decf	___ftadd@sign,f
 10160  153F  084A               	movf	___ftadd@sign,w
 10161  1540  3907               	andlw	7
 10162  1541  1903               	btfsc	3,2
 10163  1542  2D48               	goto	l5981
 10164  1543  2D36               	goto	l5973
 10165  1544                     l5979:	
 10166  1544  36C6               	lsrf	___ftadd@f2+2,f
 10167  1545  0CC5               	rrf	___ftadd@f2+1,f
 10168  1546  0CC4               	rrf	___ftadd@f2,f
 10169  1547  0ACB               	incf	___ftadd@exp2,f
 10170  1548                     l5981:	
 10171  1548  084C               	movf	___ftadd@exp1,w
 10172  1549  064B               	xorwf	___ftadd@exp2,w
 10173  154A  1D03               	skipz
 10174  154B  2D44               	goto	l5979
 10175  154C                     l908:	
 10176  154C  1FCA               	btfss	___ftadd@sign,7
 10177  154D  2D57               	goto	l5987
 10178  154E  30FF               	movlw	255
 10179  154F  06C1               	xorwf	___ftadd@f1,f
 10180  1550  06C2               	xorwf	___ftadd@f1+1,f
 10181  1551  06C3               	xorwf	___ftadd@f1+2,f
 10182  1552  0AC1               	incf	___ftadd@f1,f
 10183  1553  1903               	skipnz
 10184  1554  0AC2               	incf	___ftadd@f1+1,f
 10185  1555  1903               	skipnz
 10186  1556  0AC3               	incf	___ftadd@f1+2,f
 10187  1557                     l5987:	
 10188  1557  1F4A               	btfss	___ftadd@sign,6
 10189  1558  2D5F               	goto	l5993
 10190  1559  27E8  3190         	fcall	PL160	;call to abstracted procedure
 10191  155B  1903               	skipnz
 10192  155C  0AC5               	incf	___ftadd@f2+1,f
 10193  155D  1903               	skipnz
 10194  155E  0AC6               	incf	___ftadd@f2+2,f
 10195  155F                     l5993:	
 10196  155F  01CA               	clrf	___ftadd@sign
 10197  1560  0841               	movf	___ftadd@f1,w
 10198  1561  07C4               	addwf	___ftadd@f2,f
 10199  1562  0842               	movf	___ftadd@f1+1,w
 10200  1563  3DC5               	addwfc	___ftadd@f2+1,f
 10201  1564  0843               	movf	___ftadd@f1+2,w
 10202  1565  3DC6               	addwfc	___ftadd@f2+2,f
 10203  1566  1FC6               	btfss	___ftadd@f2+2,7
 10204  1567  2D70               	goto	l6005
 10205  1568  27E8  3190         	fcall	PL160	;call to abstracted procedure
 10206  156A  1903               	skipnz
 10207  156B  0AC5               	incf	___ftadd@f2+1,f
 10208  156C  1903               	skipnz
 10209  156D  0AC6               	incf	___ftadd@f2+2,f
 10210  156E  01CA               	clrf	___ftadd@sign
 10211  156F  0ACA               	incf	___ftadd@sign,f
 10212  1570                     l6005:	
 10213  1570  0844               	movf	___ftadd@f2,w
 10214  1571  00F2               	movwf	___ftpack@arg
 10215  1572  0845               	movf	___ftadd@f2+1,w
 10216  1573  00F3               	movwf	___ftpack@arg+1
 10217  1574  0846               	movf	___ftadd@f2+2,w
 10218  1575  00F4               	movwf	___ftpack@arg+2
 10219  1576  084C               	movf	___ftadd@exp1,w
 10220  1577  00F5               	movwf	___ftpack@exp
 10221  1578  084A               	movf	___ftadd@sign,w
 10222  1579  00F6               	movwf	___ftpack@sign
 10223  157A  26D8               	fcall	___ftpack
 10224  157B  0872               	movf	?___ftpack,w
 10225  157C  00C1               	movwf	?___ftadd
 10226  157D  0873               	movf	?___ftpack+1,w
 10227  157E  00C2               	movwf	?___ftadd+1
 10228  157F  0874               	movf	?___ftpack+2,w
 10229  1580  00C3               	movwf	?___ftadd+2
 10230  1581  0008               	return
 10231  1582                     __end_of___ftadd:	
 10232  1582                     __ptext30:	
 10233 ;; *************** function _Measure_Vdd_VSolar_VBackup *****************
 10234 ;; Defined at:
 10235 ;;		line 114 in file "../Sources/main.c"
 10236 ;; Parameters:    Size  Location     Type
 10237 ;;  Vdd             1    wreg     PTR float 
 10238 ;;		 -> main@Vdd(3), 
 10239 ;;  VSolar          1   33[BANK0 ] PTR float 
 10240 ;;		 -> main@VSolar(3), 
 10241 ;;  VBackup         1   34[BANK0 ] PTR float 
 10242 ;;		 -> main@VBackup(3), 
 10243 ;;  VBackup_min     1   35[BANK0 ] PTR float 
 10244 ;;		 -> main@VBackup_min(3), 
 10245 ;;  VBackup_max     1   36[BANK0 ] PTR float 
 10246 ;;		 -> main@VBackup_max(3), 
 10247 ;; Auto vars:     Size  Location     Type
 10248 ;;  Vdd             1   46[BANK0 ] PTR float 
 10249 ;;		 -> main@Vdd(3), 
 10250 ;;  ADC_data        2   44[BANK0 ] unsigned short 
 10251 ;;  ADC_data2       2   42[BANK0 ] unsigned short 
 10252 ;;  ADC_data1       2   40[BANK0 ] unsigned short 
 10253 ;; Return value:  Size  Location     Type
 10254 ;;                  1    wreg      void 
 10255 ;; Registers used:
 10256 ;;		wreg, fsr1l, fsr1h, status,2, status,0, pclath, cstack
 10257 ;; Tracked objects:
 10258 ;;		On entry : 1F/0
 10259 ;;		On exit  : 1D/0
 10260 ;;		Unchanged: 0/0
 10261 ;; Data sizes:     COMMON   BANK0   BANK1   BANK2   BANK3   BANK4   BANK5   BANK6   BANK7   BANK8   BANK9  BANK10  BANK1
      +1  BANK12
 10262 ;;      Params:         0       4       0       0       0       0       0       0       0       0       0       0       
      +0       0
 10263 ;;      Locals:         0       7       0       0       0       0       0       0       0       0       0       0       
      +0       0
 10264 ;;      Temps:          0       3       0       0       0       0       0       0       0       0       0       0       
      +0       0
 10265 ;;      Totals:         0      14       0       0       0       0       0       0       0       0       0       0       
      +0       0
 10266 ;;Total ram usage:       14 bytes
 10267 ;; Hardware stack levels used:    1
 10268 ;; Hardware stack levels required when called:    3
 10269 ;; This function calls:
 10270 ;;		_ADC_Read
 10271 ;;		___ftdiv
 10272 ;;		___ftge
 10273 ;;		___ftmul
 10274 ;;		___lwtoft
 10275 ;; This function is called by:
 10276 ;;		_main
 10277 ;; This function uses a non-reentrant model
 10278 ;;
 10279                           
 10280                           
 10281                           ;psect for function _Measure_Vdd_VSolar_VBackup
 10282  1582                     _Measure_Vdd_VSolar_VBackup:	
 10283                           
 10284                           ;incstack = 0
 10285                           ; Regs used in _Measure_Vdd_VSolar_VBackup: [wreg+fsr1l+fsr1h+status,2+status,0+pclath+c
      +                          stack]
 10286                           ;Measure_Vdd_VSolar_VBackup@Vdd stored from wreg
 10287  1582  00CE               	movwf	Measure_Vdd_VSolar_VBackup@Vdd
 10288                           
 10289                           ;main.c: 115: unsigned short ADC_data,ADC_data1,ADC_data2 ;
 10290                           ;main.c: 118: ADC_data = ADC_Read(0b01111101);
 10291  1583  307D               	movlw	125
 10292  1584  268D  3190         	fcall	_ADC_Read
 10293  1586  0873               	movf	?_ADC_Read+1,w
 10294  1587  0020               	movlb	0	; select bank0
 10295  1588  00CD               	movwf	Measure_Vdd_VSolar_VBackup@ADC_data+1
 10296  1589  0872               	movf	?_ADC_Read,w
 10297  158A  00CC               	movwf	Measure_Vdd_VSolar_VBackup@ADC_data
 10298                           
 10299                           ;main.c: 121: ADC_data2 = ADC_Read(0b00011101);
 10300  158B  301D               	movlw	29
 10301  158C  268D  3190         	fcall	_ADC_Read
 10302  158E  0873               	movf	?_ADC_Read+1,w
 10303  158F  0020               	movlb	0	; select bank0
 10304  1590  00CB               	movwf	Measure_Vdd_VSolar_VBackup@ADC_data2+1
 10305  1591  0872               	movf	?_ADC_Read,w
 10306  1592  00CA               	movwf	Measure_Vdd_VSolar_VBackup@ADC_data2
 10307                           
 10308                           ;main.c: 122: *VSolar= ((float)ADC_data2 * 4.096) /(float)ADC_data;
 10309  1593  27EE  3190         	fcall	PL166	;call to abstracted procedure
 10310  1595  24B5  3190         	fcall	___lwtoft
 10311  1597  0820               	movf	?___lwtoft,w
 10312  1598  00B2               	movwf	___ftdiv@f2
 10313  1599  2786  3190         	fcall	PL86	;call to abstracted procedure
 10314  159B  084B               	movf	Measure_Vdd_VSolar_VBackup@ADC_data2+1,w
 10315  159C  00A1               	movwf	___lwtoft@c+1
 10316  159D  084A               	movf	Measure_Vdd_VSolar_VBackup@ADC_data2,w
 10317  159E  00A0               	movwf	___lwtoft@c
 10318  159F  24B5  3190         	fcall	___lwtoft
 10319  15A1  27BF  3190         	fcall	PL126	;call to abstracted procedure
 10320  15A3  2631  3190         	fcall	___ftmul
 10321  15A5  27CD  3190         	fcall	PL136	;call to abstracted procedure
 10322  15A7  243C  3190         	fcall	___ftdiv
 10323  15A9  0841               	movf	Measure_Vdd_VSolar_VBackup@VSolar,w
 10324  15AA  2739  3190         	fcall	PL50	;call to abstracted procedure
 10325                           
 10326                           ;main.c: 125: TRISC0=0;
 10327  15AC  0021               	movlb	1	; select bank1
 10328  15AD  100E               	bcf	14,0	;volatile
 10329                           
 10330                           ;main.c: 126: _delay((unsigned long)((2)*(16000000/4000.0)));
 10331  15AE  300B               	movlw	11
 10332  15AF  0020               	movlb	0	; select bank0
 10333  15B0  00C5               	movwf	??_Measure_Vdd_VSolar_VBackup
 10334  15B1  3062               	movlw	98
 10335  15B2                     u7577:	
 10336  15B2  0B89               	decfsz	9,f
 10337  15B3  2DB2               	goto	u7577
 10338  15B4  0BC5               	decfsz	??_Measure_Vdd_VSolar_VBackup,f
 10339  15B5  2DB2               	goto	u7577
 10340  15B6  0000               	nop
 10341                           
 10342                           ;main.c: 128: ADC_data1 = ADC_Read(0b00011001);
 10343  15B7  3019               	movlw	25
 10344  15B8  268D  3190         	fcall	_ADC_Read
 10345  15BA  0873               	movf	?_ADC_Read+1,w
 10346  15BB  0020               	movlb	0	; select bank0
 10347  15BC  00C9               	movwf	Measure_Vdd_VSolar_VBackup@ADC_data1+1
 10348  15BD  0872               	movf	?_ADC_Read,w
 10349  15BE  00C8               	movwf	Measure_Vdd_VSolar_VBackup@ADC_data1
 10350                           
 10351                           ;main.c: 129: *VBackup= ((float)ADC_data1 * 4.096) /(float)ADC_data;
 10352  15BF  27EE  3190         	fcall	PL166	;call to abstracted procedure
 10353  15C1  24B5  3190         	fcall	___lwtoft
 10354  15C3  0820               	movf	?___lwtoft,w
 10355  15C4  00B2               	movwf	___ftdiv@f2
 10356  15C5  2786  3190         	fcall	PL86	;call to abstracted procedure
 10357  15C7  0849               	movf	Measure_Vdd_VSolar_VBackup@ADC_data1+1,w
 10358  15C8  00A1               	movwf	___lwtoft@c+1
 10359  15C9  0848               	movf	Measure_Vdd_VSolar_VBackup@ADC_data1,w
 10360  15CA  00A0               	movwf	___lwtoft@c
 10361  15CB  24B5  3190         	fcall	___lwtoft
 10362  15CD  27BF  3190         	fcall	PL126	;call to abstracted procedure
 10363  15CF  2631  3190         	fcall	___ftmul
 10364  15D1  27CD  3190         	fcall	PL136	;call to abstracted procedure
 10365  15D3  243C  3190         	fcall	___ftdiv
 10366  15D5  0842               	movf	Measure_Vdd_VSolar_VBackup@VBackup,w
 10367  15D6  2739  3190         	fcall	PL50	;call to abstracted procedure
 10368                           
 10369                           ;main.c: 130: TRISC0=1;
 10370  15D8  0021               	movlb	1	; select bank1
 10371  15D9  140E               	bsf	14,0	;volatile
 10372                           
 10373                           ;main.c: 132: *Vdd =2095.104 / (float)ADC_data;
 10374  15DA  0020               	movlb	0	; select bank0
 10375  15DB  27EE  3190         	fcall	PL166	;call to abstracted procedure
 10376  15DD  24B5  3190         	fcall	___lwtoft
 10377  15DF  0820               	movf	?___lwtoft,w
 10378  15E0  00B2               	movwf	___ftdiv@f2
 10379  15E1  0821               	movf	?___lwtoft+1,w
 10380  15E2  00B3               	movwf	___ftdiv@f2+1
 10381  15E3  0822               	movf	?___lwtoft+2,w
 10382  15E4  00B4               	movwf	___ftdiv@f2+2
 10383  15E5  30F2               	movlw	242
 10384  15E6  00B5               	movwf	___ftdiv@f1
 10385  15E7  3002               	movlw	2
 10386  15E8  00B6               	movwf	___ftdiv@f1+1
 10387  15E9  3045               	movlw	69
 10388  15EA  00B7               	movwf	___ftdiv@f1+2
 10389  15EB  243C  3190         	fcall	___ftdiv
 10390  15ED  084E               	movf	Measure_Vdd_VSolar_VBackup@Vdd,w
 10391  15EE  2739  3190         	fcall	PL50	;call to abstracted procedure
 10392                           
 10393                           ;main.c: 133: *Vdd=(*Vdd)*1000;
 10394  15F0  27B9  3190         	fcall	PL122	;call to abstracted procedure
 10395  15F2  084E               	movf	Measure_Vdd_VSolar_VBackup@Vdd,w
 10396  15F3  277E  3190         	fcall	PL84	;call to abstracted procedure
 10397  15F5  2631  3190         	fcall	___ftmul
 10398  15F7  084E               	movf	Measure_Vdd_VSolar_VBackup@Vdd,w
 10399  15F8  272F  3190         	fcall	PL48	;call to abstracted procedure
 10400                           
 10401                           ;main.c: 134: *VSolar=(*VSolar)*1000;
 10402  15FA  27B9  3190         	fcall	PL122	;call to abstracted procedure
 10403  15FC  0841               	movf	Measure_Vdd_VSolar_VBackup@VSolar,w
 10404  15FD  277E  3190         	fcall	PL84	;call to abstracted procedure
 10405  15FF  2631  3190         	fcall	___ftmul
 10406  1601  0841               	movf	Measure_Vdd_VSolar_VBackup@VSolar,w
 10407  1602  272F  3190         	fcall	PL48	;call to abstracted procedure
 10408                           
 10409                           ;main.c: 135: *VBackup=(*VBackup)*1000;
 10410  1604  27B9  3190         	fcall	PL122	;call to abstracted procedure
 10411  1606  0842               	movf	Measure_Vdd_VSolar_VBackup@VBackup,w
 10412  1607  277E  3190         	fcall	PL84	;call to abstracted procedure
 10413  1609  2631  3190         	fcall	___ftmul
 10414  160B  0842               	movf	Measure_Vdd_VSolar_VBackup@VBackup,w
 10415  160C  272F  3190         	fcall	PL48	;call to abstracted procedure
 10416                           
 10417                           ;main.c: 137: if(*VBackup<*VBackup_min) *VBackup_min=*VBackup;
 10418  160E  0842               	movf	Measure_Vdd_VSolar_VBackup@VBackup,w
 10419  160F  0086               	movwf	6
 10420  1610  27D4  3190         	fcall	PL140	;call to abstracted procedure
 10421  1612  0843               	movf	Measure_Vdd_VSolar_VBackup@VBackup_min,w
 10422  1613  27B1               	fcall	PL120	;call to abstracted procedure
 10423  1614  3184  24B4  3190   	fcall	___ftge
 10424  1617  1803               	btfsc	3,0
 10425  1618  2E1E               	goto	l6131
 10426  1619  2759  3190         	fcall	PL70	;call to abstracted procedure
 10427  161B  0843               	movf	Measure_Vdd_VSolar_VBackup@VBackup_min,w
 10428  161C  27A9  3190         	fcall	PL112	;call to abstracted procedure
 10429  161E                     l6131:	
 10430                           
 10431                           ;main.c: 138: if(*VBackup>*VBackup_max) *VBackup_max=*VBackup;
 10432  161E  0020               	movlb	0	; select bank0
 10433  161F  0844               	movf	Measure_Vdd_VSolar_VBackup@VBackup_max,w
 10434  1620  0086               	movwf	6
 10435  1621  3001               	movlw	1	; select bank2/3
 10436  1622  0087               	movwf	7
 10437  1623  27D4  3190         	fcall	PL140	;call to abstracted procedure
 10438  1625  0842               	movf	Measure_Vdd_VSolar_VBackup@VBackup,w
 10439  1626  27B1               	fcall	PL120	;call to abstracted procedure
 10440  1627  3184  24B4  3190   	fcall	___ftge
 10441  162A  1803               	btfsc	3,0
 10442  162B  0008               	return
 10443  162C  2759  3190         	fcall	PL70	;call to abstracted procedure
 10444  162E  0844               	movf	Measure_Vdd_VSolar_VBackup@VBackup_max,w
 10445  162F  27A9               	fcall	PL112	;call to abstracted procedure
 10446  1630  0008               	return
 10447  1631                     __end_of_Measure_Vdd_VSolar_VBackup:	
 10448  1631                     __ptext31:	
 10449 ;; *************** function ___ftmul *****************
 10450 ;; Defined at:
 10451 ;;		line 62 in file "C:\Program Files (x86)\Microchip\xc8\v1.44\sources\common\ftmul.c"
 10452 ;; Parameters:    Size  Location     Type
 10453 ;;  f1              3    3[BANK0 ] float 
 10454 ;;  f2              3    6[BANK0 ] float 
 10455 ;; Auto vars:     Size  Location     Type
 10456 ;;  f3_as_produc    3   13[BANK0 ] unsigned um
 10457 ;;  sign            1   17[BANK0 ] unsigned char 
 10458 ;;  cntr            1   16[BANK0 ] unsigned char 
 10459 ;;  exp             1   12[BANK0 ] unsigned char 
 10460 ;; Return value:  Size  Location     Type
 10461 ;;                  3    3[BANK0 ] float 
 10462 ;; Registers used:
 10463 ;;		wreg, status,2, status,0, pclath, cstack
 10464 ;; Tracked objects:
 10465 ;;		On entry : 1F/0
 10466 ;;		On exit  : 1F/0
 10467 ;;		Unchanged: 0/0
 10468 ;; Data sizes:     COMMON   BANK0   BANK1   BANK2   BANK3   BANK4   BANK5   BANK6   BANK7   BANK8   BANK9  BANK10  BANK1
      +1  BANK12
 10469 ;;      Params:         0       6       0       0       0       0       0       0       0       0       0       0       
      +0       0
 10470 ;;      Locals:         0       6       0       0       0       0       0       0       0       0       0       0       
      +0       0
 10471 ;;      Temps:          0       3       0       0       0       0       0       0       0       0       0       0       
      +0       0
 10472 ;;      Totals:         0      15       0       0       0       0       0       0       0       0       0       0       
      +0       0
 10473 ;;Total ram usage:       15 bytes
 10474 ;; Hardware stack levels used:    1
 10475 ;; Hardware stack levels required when called:    2
 10476 ;; This function calls:
 10477 ;;		___ftpack
 10478 ;; This function is called by:
 10479 ;;		_Measure_Vdd_VSolar_VBackup
 10480 ;;		_strtod
 10481 ;; This function uses a non-reentrant model
 10482 ;;
 10483                           
 10484                           
 10485                           ;psect for function ___ftmul
 10486  1631                     ___ftmul:	
 10487                           
 10488                           ;incstack = 0
 10489                           ; Regs used in ___ftmul: [wreg+status,2+status,0+pclath+cstack]
 10490  1631  0823               	movf	___ftmul@f1,w
 10491  1632  00A9               	movwf	??___ftmul
 10492  1633  0824               	movf	___ftmul@f1+1,w
 10493  1634  00AA               	movwf	??___ftmul+1
 10494  1635  0825               	movf	___ftmul@f1+2,w
 10495  1636  00AB               	movwf	??___ftmul+2
 10496  1637  1003               	clrc
 10497  1638  0D2A               	rlf	??___ftmul+1,w
 10498  1639  0D2B               	rlf	??___ftmul+2,w
 10499  163A  00AC               	movwf	___ftmul@exp
 10500  163B  082C               	movf	___ftmul@exp,w
 10501  163C  1D03               	btfss	3,2
 10502  163D  2E3F               	goto	l5339
 10503  163E  2FF3               	ljmp	PL172	;call to abstracted procedure
 10504  163F                     l5339:	
 10505  163F  0826               	movf	___ftmul@f2,w
 10506  1640  00A9               	movwf	??___ftmul
 10507  1641  0827               	movf	___ftmul@f2+1,w
 10508  1642  00AA               	movwf	??___ftmul+1
 10509  1643  0828               	movf	___ftmul@f2+2,w
 10510  1644  00AB               	movwf	??___ftmul+2
 10511  1645  1003               	clrc
 10512  1646  0D2A               	rlf	??___ftmul+1,w
 10513  1647  0D2B               	rlf	??___ftmul+2,w
 10514  1648  00B1               	movwf	___ftmul@sign
 10515  1649  0831               	movf	___ftmul@sign,w
 10516  164A  1D03               	btfss	3,2
 10517  164B  2E4D               	goto	l5343
 10518  164C  2FF3               	ljmp	PL172	;call to abstracted procedure
 10519  164D                     l5343:	
 10520  164D  0831               	movf	___ftmul@sign,w
 10521  164E  3E7B               	addlw	123
 10522  164F  07AC               	addwf	___ftmul@exp,f
 10523  1650  0825               	movf	___ftmul@f1+2,w
 10524  1651  00B1               	movwf	___ftmul@sign
 10525  1652  0828               	movf	___ftmul@f2+2,w
 10526  1653  06B1               	xorwf	___ftmul@sign,f
 10527  1654  3080               	movlw	128
 10528  1655  05B1               	andwf	___ftmul@sign,f
 10529  1656  30FF               	movlw	255
 10530  1657  17A4               	bsf	___ftmul@f1+1,7
 10531  1658  17A7               	bsf	___ftmul@f2+1,7
 10532  1659  05A6               	andwf	___ftmul@f2,f
 10533  165A  05A7               	andwf	___ftmul@f2+1,f
 10534  165B  3007               	movlw	7
 10535  165C  01A8               	clrf	___ftmul@f2+2
 10536  165D  01AD               	clrf	___ftmul@f3_as_product
 10537  165E  01AE               	clrf	___ftmul@f3_as_product+1
 10538  165F  01AF               	clrf	___ftmul@f3_as_product+2
 10539  1660  00B0               	movwf	___ftmul@cntr
 10540  1661                     l5361:	
 10541  1661  1C23               	btfss	___ftmul@f1,0
 10542  1662  2E65               	goto	l5365
 10543  1663  27DB  3190         	fcall	PL142	;call to abstracted procedure
 10544  1665                     l5365:	
 10545  1665  36A5               	lsrf	___ftmul@f1+2,f
 10546  1666  0CA4               	rrf	___ftmul@f1+1,f
 10547  1667  0CA3               	rrf	___ftmul@f1,f
 10548  1668  35A6               	lslf	___ftmul@f2,f
 10549  1669  0DA7               	rlf	___ftmul@f2+1,f
 10550  166A  0DA8               	rlf	___ftmul@f2+2,f
 10551  166B  0BB0               	decfsz	___ftmul@cntr,f
 10552  166C  2E61               	goto	l5361
 10553  166D  3009               	movlw	9
 10554  166E  00B0               	movwf	___ftmul@cntr
 10555  166F                     l5373:	
 10556  166F  1C23               	btfss	___ftmul@f1,0
 10557  1670  2E73               	goto	l5377
 10558  1671  27DB  3190         	fcall	PL142	;call to abstracted procedure
 10559  1673                     l5377:	
 10560  1673  36A5               	lsrf	___ftmul@f1+2,f
 10561  1674  0CA4               	rrf	___ftmul@f1+1,f
 10562  1675  0CA3               	rrf	___ftmul@f1,f
 10563  1676  36AF               	lsrf	___ftmul@f3_as_product+2,f
 10564  1677  0CAE               	rrf	___ftmul@f3_as_product+1,f
 10565  1678  0CAD               	rrf	___ftmul@f3_as_product,f
 10566  1679  0BB0               	decfsz	___ftmul@cntr,f
 10567  167A  2E6F               	goto	l5373
 10568  167B  082D               	movf	___ftmul@f3_as_product,w
 10569  167C  00F2               	movwf	___ftpack@arg
 10570  167D  082E               	movf	___ftmul@f3_as_product+1,w
 10571  167E  00F3               	movwf	___ftpack@arg+1
 10572  167F  082F               	movf	___ftmul@f3_as_product+2,w
 10573  1680  00F4               	movwf	___ftpack@arg+2
 10574  1681  082C               	movf	___ftmul@exp,w
 10575  1682  00F5               	movwf	___ftpack@exp
 10576  1683  0831               	movf	___ftmul@sign,w
 10577  1684  00F6               	movwf	___ftpack@sign
 10578  1685  26D8               	fcall	___ftpack
 10579  1686  0872               	movf	?___ftpack,w
 10580  1687  00A3               	movwf	?___ftmul
 10581  1688  0873               	movf	?___ftpack+1,w
 10582  1689  00A4               	movwf	?___ftmul+1
 10583  168A  0874               	movf	?___ftpack+2,w
 10584  168B  00A5               	movwf	?___ftmul+2
 10585  168C  0008               	return
 10586  168D                     __end_of___ftmul:	
 10587  168D                     __ptext33:	
 10588 ;; *************** function _ADC_Read *****************
 10589 ;; Defined at:
 10590 ;;		line 12 in file "../Sources/adc.c"
 10591 ;; Parameters:    Size  Location     Type
 10592 ;;  channel         1    wreg     unsigned char 
 10593 ;; Auto vars:     Size  Location     Type
 10594 ;;  channel         1    6[COMMON] unsigned char 
 10595 ;;  adc_value       2    9[COMMON] unsigned short 
 10596 ;;  i               2    7[COMMON] int 
 10597 ;; Return value:  Size  Location     Type
 10598 ;;                  2    2[COMMON] unsigned short 
 10599 ;; Registers used:
 10600 ;;		wreg, status,2, status,0
 10601 ;; Tracked objects:
 10602 ;;		On entry : 0/0
 10603 ;;		On exit  : 1F/1
 10604 ;;		Unchanged: 0/0
 10605 ;; Data sizes:     COMMON   BANK0   BANK1   BANK2   BANK3   BANK4   BANK5   BANK6   BANK7   BANK8   BANK9  BANK10  BANK1
      +1  BANK12
 10606 ;;      Params:         2       0       0       0       0       0       0       0       0       0       0       0       
      +0       0
 10607 ;;      Locals:         5       0       0       0       0       0       0       0       0       0       0       0       
      +0       0
 10608 ;;      Temps:          2       0       0       0       0       0       0       0       0       0       0       0       
      +0       0
 10609 ;;      Totals:         9       0       0       0       0       0       0       0       0       0       0       0       
      +0       0
 10610 ;;Total ram usage:        9 bytes
 10611 ;; Hardware stack levels used:    1
 10612 ;; Hardware stack levels required when called:    1
 10613 ;; This function calls:
 10614 ;;		Nothing
 10615 ;; This function is called by:
 10616 ;;		_Measure_Vdd_VSolar_VBackup
 10617 ;; This function uses a non-reentrant model
 10618 ;;
 10619                           
 10620                           
 10621                           ;psect for function _ADC_Read
 10622  168D                     _ADC_Read:	
 10623                           
 10624                           ;incstack = 0
 10625                           ; Regs used in _ADC_Read: [wreg+status,2+status,0]
 10626                           ;ADC_Read@channel stored from wreg
 10627  168D  00F6               	movwf	ADC_Read@channel
 10628  168E  3075               	movlw	117
 10629                           
 10630                           ;adc.c: 13: unsigned short adc_value;
 10631                           ;adc.c: 14: int i;
 10632                           ;adc.c: 15: adc_value=0x0000;
 10633  168F  01F9               	clrf	ADC_Read@adc_value
 10634  1690  01FA               	clrf	ADC_Read@adc_value+1
 10635                           
 10636                           ;adc.c: 17: if (channel == 0b01110101)
 10637  1691  0676               	xorwf	ADC_Read@channel,w
 10638  1692  1D03               	btfss	3,2
 10639  1693  2E96               	goto	l5789
 10640                           
 10641                           ;adc.c: 18: {
 10642                           ;adc.c: 21: FVRCON = 0b11100000;
 10643  1694  30E0               	movlw	224
 10644  1695  2E97               	goto	L23
 10645  1696                     l5789:	
 10646                           ;adc.c: 23: }
 10647                           
 10648                           
 10649                           ;adc.c: 24: else{
 10650                           ;adc.c: 28: FVRCON = 0b11000010;
 10651  1696  30C2               	movlw	194
 10652  1697                     L23:	
 10653  1697  0022               	movlb	2	; select bank2
 10654  1698  0097               	movwf	23	;volatile
 10655                           
 10656                           ;adc.c: 29: }
 10657                           ;adc.c: 32: ADCON0=channel;
 10658  1699  0876               	movf	ADC_Read@channel,w
 10659  169A  0021               	movlb	1	; select bank1
 10660  169B  009D               	movwf	29	;volatile
 10661                           
 10662                           ;adc.c: 34: ADCON1 = 0b11010000;
 10663  169C  30D0               	movlw	208
 10664  169D  009E               	movwf	30	;volatile
 10665                           
 10666                           ;adc.c: 37: for(i=0;i<4;i++)
 10667  169E  01F7               	clrf	ADC_Read@i
 10668  169F  01F8               	clrf	ADC_Read@i+1
 10669  16A0                     l5797:	
 10670                           
 10671                           ;adc.c: 38: {
 10672                           ;adc.c: 39: _delay((unsigned long)((300)*(16000000/4000000.0)));
 10673  16A0  30F0               	movlw	240
 10674  16A1                     u7587:	
 10675  16A1  3200               	nop2
 10676  16A2  0B89               	decfsz	9,f
 10677  16A3  2EA1               	goto	u7587
 10678                           
 10679                           ;adc.c: 41: ADCON0bits.ADGO=1;
 10680  16A4  0021               	movlb	1	; select bank1
 10681  16A5  149D               	bsf	29,1	;volatile
 10682                           
 10683                           ;adc.c: 44: _delay(43);
 10684  16A6  300E               	movlw	14
 10685  16A7                     u7597:	
 10686  16A7  0B89               	decfsz	9,f
 10687  16A8  2EA7               	goto	u7597
 10688  16A9  0000               	nop
 10689                           
 10690                           ;adc.c: 45: ADCON0bits.ADGO=0;
 10691  16AA  0021               	movlb	1	; select bank1
 10692  16AB  109D               	bcf	29,1	;volatile
 10693                           
 10694                           ;adc.c: 47: adc_value += ((ADRESH&0x03)<<8) |ADRESL;
 10695  16AC  3003               	movlw	3
 10696  16AD  051C               	andwf	28,w	;volatile
 10697  16AE  00F4               	movwf	??_ADC_Read
 10698  16AF  081B               	movf	27,w	;volatile
 10699  16B0  07F9               	addwf	ADC_Read@adc_value,f
 10700  16B1  0874               	movf	??_ADC_Read,w
 10701  16B2  3DFA               	addwfc	ADC_Read@adc_value+1,f
 10702  16B3  0AF7               	incf	ADC_Read@i,f
 10703  16B4  1903               	skipnz
 10704  16B5  0AF8               	incf	ADC_Read@i+1,f
 10705  16B6  0878               	movf	ADC_Read@i+1,w
 10706  16B7  3A80               	xorlw	128
 10707  16B8  00F4               	movwf	??_ADC_Read
 10708  16B9  3080               	movlw	128
 10709  16BA  0274               	subwf	??_ADC_Read,w
 10710  16BB  1D03               	skipz
 10711  16BC  2EBF               	goto	u6115
 10712  16BD  3004               	movlw	4
 10713  16BE  0277               	subwf	ADC_Read@i,w
 10714  16BF                     u6115:	
 10715  16BF  1C03               	skipc
 10716  16C0  2EA0               	goto	l5797
 10717                           
 10718                           ;adc.c: 48: }
 10719                           ;adc.c: 49: adc_value = adc_value/4;
 10720  16C1  087A               	movf	ADC_Read@adc_value+1,w
 10721  16C2  00F5               	movwf	??_ADC_Read+1
 10722  16C3  0879               	movf	ADC_Read@adc_value,w
 10723  16C4  00F4               	movwf	??_ADC_Read
 10724  16C5  36F5               	lsrf	??_ADC_Read+1,f
 10725  16C6  0CF4               	rrf	??_ADC_Read,f
 10726  16C7  36F5               	lsrf	??_ADC_Read+1,f
 10727  16C8  0CF4               	rrf	??_ADC_Read,f
 10728  16C9  0874               	movf	??_ADC_Read,w
 10729  16CA  00F9               	movwf	ADC_Read@adc_value
 10730  16CB  0875               	movf	??_ADC_Read+1,w
 10731  16CC  00FA               	movwf	ADC_Read@adc_value+1
 10732                           
 10733                           ;adc.c: 52: FVRCON=0x0;
 10734  16CD  0022               	movlb	2	; select bank2
 10735  16CE  0197               	clrf	23	;volatile
 10736                           
 10737                           ;adc.c: 53: ADCON0=0x0;
 10738  16CF  0021               	movlb	1	; select bank1
 10739  16D0  019D               	clrf	29	;volatile
 10740                           
 10741                           ;adc.c: 54: ADCON1=0x0;
 10742  16D1  019E               	clrf	30	;volatile
 10743                           
 10744                           ;adc.c: 55: return (adc_value&0x3FF);
 10745  16D2  0879               	movf	ADC_Read@adc_value,w
 10746  16D3  00F2               	movwf	?_ADC_Read
 10747  16D4  3003               	movlw	3
 10748  16D5  057A               	andwf	ADC_Read@adc_value+1,w
 10749  16D6  00F3               	movwf	?_ADC_Read+1
 10750  16D7  0008               	return
 10751  16D8                     __end_of_ADC_Read:	
 10752  16D8                     __ptext45:	
 10753 ;; *************** function ___ftpack *****************
 10754 ;; Defined at:
 10755 ;;		line 62 in file "C:\Program Files (x86)\Microchip\xc8\v1.44\sources\common\float.c"
 10756 ;; Parameters:    Size  Location     Type
 10757 ;;  arg             3    2[COMMON] unsigned um
 10758 ;;  exp             1    5[COMMON] unsigned char 
 10759 ;;  sign            1    6[COMMON] unsigned char 
 10760 ;; Auto vars:     Size  Location     Type
 10761 ;;		None
 10762 ;; Return value:  Size  Location     Type
 10763 ;;                  3    2[COMMON] float 
 10764 ;; Registers used:
 10765 ;;		wreg, status,2, status,0
 10766 ;; Tracked objects:
 10767 ;;		On entry : 1F/0
 10768 ;;		On exit  : 1F/0
 10769 ;;		Unchanged: 1F/0
 10770 ;; Data sizes:     COMMON   BANK0   BANK1   BANK2   BANK3   BANK4   BANK5   BANK6   BANK7   BANK8   BANK9  BANK10  BANK1
      +1  BANK12
 10771 ;;      Params:         5       0       0       0       0       0       0       0       0       0       0       0       
      +0       0
 10772 ;;      Locals:         0       0       0       0       0       0       0       0       0       0       0       0       
      +0       0
 10773 ;;      Temps:          3       0       0       0       0       0       0       0       0       0       0       0       
      +0       0
 10774 ;;      Totals:         8       0       0       0       0       0       0       0       0       0       0       0       
      +0       0
 10775 ;;Total ram usage:        8 bytes
 10776 ;; Hardware stack levels used:    1
 10777 ;; Hardware stack levels required when called:    1
 10778 ;; This function calls:
 10779 ;;		Nothing
 10780 ;; This function is called by:
 10781 ;;		___altoft
 10782 ;;		___ftadd
 10783 ;;		___ftdiv
 10784 ;;		___ftmul
 10785 ;;		___lwtoft
 10786 ;; This function uses a non-reentrant model
 10787 ;;
 10788                           
 10789                           
 10790                           ;psect for function ___ftpack
 10791  16D8                     ___ftpack:	
 10792                           
 10793                           ;incstack = 0
 10794                           ; Regs used in ___ftpack: [wreg+status,2+status,0]
 10795  16D8  0875               	movf	___ftpack@exp,w
 10796  16D9  1903               	btfsc	3,2
 10797  16DA  2EE0               	goto	l872
 10798  16DB  0874               	movf	___ftpack@arg+2,w
 10799  16DC  0473               	iorwf	___ftpack@arg+1,w
 10800  16DD  0472               	iorwf	___ftpack@arg,w
 10801  16DE  1D03               	skipz
 10802  16DF  2EE8               	goto	l5177
 10803  16E0                     l872:	
 10804  16E0  01F2               	clrf	?___ftpack
 10805  16E1  01F3               	clrf	?___ftpack+1
 10806  16E2  01F4               	clrf	?___ftpack+2
 10807  16E3  0008               	return
 10808  16E4                     l5175:	
 10809  16E4  0AF5               	incf	___ftpack@exp,f
 10810  16E5  36F4               	lsrf	___ftpack@arg+2,f
 10811  16E6  0CF3               	rrf	___ftpack@arg+1,f
 10812  16E7  0CF2               	rrf	___ftpack@arg,f
 10813  16E8                     l5177:	
 10814  16E8  30FE               	movlw	254
 10815  16E9  0574               	andwf	___ftpack@arg+2,w
 10816  16EA  1903               	btfsc	3,2
 10817  16EB  2EF6               	goto	l5181
 10818  16EC  2EE4               	goto	l5175
 10819  16ED                     l5179:	
 10820  16ED  0AF5               	incf	___ftpack@exp,f
 10821  16EE  0AF2               	incf	___ftpack@arg,f
 10822  16EF  1903               	skipnz
 10823  16F0  0AF3               	incf	___ftpack@arg+1,f
 10824  16F1  1903               	skipnz
 10825  16F2  0AF4               	incf	___ftpack@arg+2,f
 10826  16F3  36F4               	lsrf	___ftpack@arg+2,f
 10827  16F4  0CF3               	rrf	___ftpack@arg+1,f
 10828  16F5  0CF2               	rrf	___ftpack@arg,f
 10829  16F6                     l5181:	
 10830  16F6  30FF               	movlw	255
 10831  16F7  0574               	andwf	___ftpack@arg+2,w
 10832  16F8  1903               	btfsc	3,2
 10833  16F9  2F03               	goto	l5185
 10834  16FA  2EED               	goto	l5179
 10835  16FB                     l5187:	
 10836  16FB  3002               	movlw	2
 10837  16FC  0275               	subwf	___ftpack@exp,w
 10838  16FD  1C03               	btfss	3,0
 10839  16FE  2F05               	goto	l884
 10840  16FF  03F5               	decf	___ftpack@exp,f
 10841  1700  35F2               	lslf	___ftpack@arg,f
 10842  1701  0DF3               	rlf	___ftpack@arg+1,f
 10843  1702  0DF4               	rlf	___ftpack@arg+2,f
 10844  1703                     l5185:	
 10845  1703  1FF3               	btfss	___ftpack@arg+1,7
 10846  1704  2EFB               	goto	l5187
 10847  1705                     l884:	
 10848  1705  1C75               	btfss	___ftpack@exp,0
 10849  1706  13F3               	bcf	___ftpack@arg+1,7
 10850  1707  36F5               	lsrf	___ftpack@exp,f
 10851  1708  0875               	movf	___ftpack@exp,w
 10852  1709  00F9               	movwf	??___ftpack+2
 10853  170A  01F8               	clrf	??___ftpack+1
 10854  170B  01F7               	clrf	??___ftpack
 10855  170C  0877               	movf	??___ftpack,w
 10856  170D  04F2               	iorwf	___ftpack@arg,f
 10857  170E  0878               	movf	??___ftpack+1,w
 10858  170F  04F3               	iorwf	___ftpack@arg+1,f
 10859  1710  0879               	movf	??___ftpack+2,w
 10860  1711  04F4               	iorwf	___ftpack@arg+2,f
 10861  1712  0876               	movf	___ftpack@sign,w
 10862  1713  1D03               	btfss	3,2
 10863  1714  17F4               	bsf	___ftpack@arg+2,7
 10864  1715  0008               	return
 10865  1716                     __end_of___ftpack:	
 10866  1716                     __ptext39:	
 10867 ;; *************** function ___bmul *****************
 10868 ;; Defined at:
 10869 ;;		line 4 in file "C:\Program Files (x86)\Microchip\xc8\v1.44\sources\common\Umul8.c"
 10870 ;; Parameters:    Size  Location     Type
 10871 ;;  multiplier      1    wreg     unsigned char 
 10872 ;;  multiplicand    1    2[COMMON] unsigned char 
 10873 ;; Auto vars:     Size  Location     Type
 10874 ;;  multiplier      1    4[COMMON] unsigned char 
 10875 ;;  product         1    3[COMMON] unsigned char 
 10876 ;; Return value:  Size  Location     Type
 10877 ;;                  1    wreg      unsigned char 
 10878 ;; Registers used:
 10879 ;;		wreg, status,2, status,0
 10880 ;; Tracked objects:
 10881 ;;		On entry : 0/0
 10882 ;;		On exit  : 0/0
 10883 ;;		Unchanged: 0/0
 10884 ;; Data sizes:     COMMON   BANK0   BANK1   BANK2   BANK3   BANK4   BANK5   BANK6   BANK7   BANK8   BANK9  BANK10  BANK1
      +1  BANK12
 10885 ;;      Params:         1       0       0       0       0       0       0       0       0       0       0       0       
      +0       0
 10886 ;;      Locals:         2       0       0       0       0       0       0       0       0       0       0       0       
      +0       0
 10887 ;;      Temps:          0       0       0       0       0       0       0       0       0       0       0       0       
      +0       0
 10888 ;;      Totals:         3       0       0       0       0       0       0       0       0       0       0       0       
      +0       0
 10889 ;;Total ram usage:        3 bytes
 10890 ;; Hardware stack levels used:    1
 10891 ;; Hardware stack levels required when called:    1
 10892 ;; This function calls:
 10893 ;;		Nothing
 10894 ;; This function is called by:
 10895 ;;		_hex_to_ascii
 10896 ;;		_Recuperer_Temp
 10897 ;;		_strtod
 10898 ;; This function uses a non-reentrant model
 10899 ;;
 10900                           
 10901                           
 10902                           ;psect for function ___bmul
 10903  1716                     ___bmul:	
 10904                           
 10905                           ;incstack = 0
 10906                           ; Regs used in ___bmul: [wreg+status,2+status,0]
 10907                           ;___bmul@multiplier stored from wreg
 10908  1716  00F4               	movwf	___bmul@multiplier
 10909  1717  01F3               	clrf	___bmul@product
 10910  1718                     l5233:	
 10911  1718  0872               	movf	___bmul@multiplicand,w
 10912  1719  1874               	btfsc	___bmul@multiplier,0
 10913  171A  07F3               	addwf	___bmul@product,f
 10914  171B  35F2               	lslf	___bmul@multiplicand,f
 10915  171C  36F4               	lsrf	___bmul@multiplier,f
 10916  171D  0874               	movf	___bmul@multiplier,w
 10917  171E  1D03               	btfss	3,2
 10918  171F  2F18               	goto	l5233
 10919  1720  0873               	movf	___bmul@product,w
 10920  1721  0008               	return
 10921  1722                     __end_of___bmul:	
 10922  1722                     PL32:	
 10923  1722  0021               	movlb	1	; select bank1
 10924  1723  120E               	bcf	14,4	;volatile
 10925  1724  0022               	movlb	2	; select bank2
 10926  1725  111D               	bcf	29,2	;volatile
 10927  1726  139D               	bcf	29,7	;volatile
 10928  1727  0023               	movlb	3	; select bank3
 10929  1728  169E               	bsf	30,5	;volatile
 10930  1729  161D               	bsf	29,4	;volatile
 10931  172A  30FA               	movlw	low (STR_1| (0+32768))
 10932  172B  00F2               	movwf	UART_Transmit_string@tx
 10933  172C  3098               	movlw	high (STR_1| (0+32768))
 10934  172D  00F3               	movwf	UART_Transmit_string@tx+1
 10935  172E  0008               	return
 10936  172F                     __end_ofPL32:	
 10937  172F                     PL48:	
 10938  172F  0086               	movwf	6
 10939  1730  3001               	movlw	1	; select bank2/3
 10940  1731  0087               	movwf	7
 10941  1732  0823               	movf	?___ftmul,w
 10942  1733  3FC0               	movwi [0]fsr1
 10943  1734  0824               	movf	?___ftmul+1,w
 10944  1735  3FC1               	movwi [1]fsr1
 10945  1736  0825               	movf	?___ftmul+2,w
 10946  1737  3FC2               	movwi [2]fsr1
 10947  1738  0008               	return
 10948  1739                     __end_ofPL48:	
 10949  1739                     PL50:	
 10950  1739  0086               	movwf	6
 10951  173A  3001               	movlw	1	; select bank2/3
 10952  173B  0087               	movwf	7
 10953  173C  0832               	movf	?___ftdiv,w
 10954  173D  3FC0               	movwi [0]fsr1
 10955  173E  0833               	movf	?___ftdiv+1,w
 10956  173F  3FC1               	movwi [1]fsr1
 10957  1740  0834               	movf	?___ftdiv+2,w
 10958  1741  3FC2               	movwi [2]fsr1
 10959  1742  0008               	return
 10960  1743                     __end_ofPL50:	
 10961  1743                     PL56:	
 10962  1743  0086               	movwf	6
 10963  1744  3001               	movlw	1	; select bank2/3
 10964  1745  0087               	movwf	7
 10965  1746  3F40               	moviw [0]fsr1
 10966  1747  00B5               	movwf	___ftdiv@f1
 10967  1748  3F41               	moviw [1]fsr1
 10968  1749  00B6               	movwf	___ftdiv@f1+1
 10969  174A  3F42               	moviw [2]fsr1
 10970  174B  00B7               	movwf	___ftdiv@f1+2
 10971  174C  30A0               	movlw	160
 10972  174D  01B2               	clrf	___ftdiv@f2
 10973  174E  00B3               	movwf	___ftdiv@f2+1
 10974  174F  3041               	movlw	65
 10975  1750  00B4               	movwf	___ftdiv@f2+2
 10976  1751  0008               	return
 10977  1752                     __end_ofPL56:	
 10978  1752                     PL68:	
 10979  1752  00B7               	movwf	___ftdiv@f1+2
 10980  1753  30A0               	movlw	160
 10981  1754  01B2               	clrf	___ftdiv@f2
 10982  1755  00B3               	movwf	___ftdiv@f2+1
 10983  1756  3041               	movlw	65
 10984  1757  00B4               	movwf	___ftdiv@f2+2
 10985  1758  0008               	return
 10986  1759                     __end_ofPL68:	
 10987  1759                     PL70:	
 10988  1759  0020               	movlb	0	; select bank0
 10989  175A  0842               	movf	Measure_Vdd_VSolar_VBackup@VBackup,w
 10990  175B  0086               	movwf	6
 10991  175C  3001               	movlw	1	; select bank2/3
 10992  175D  0087               	movwf	7
 10993  175E  3F40               	moviw [0]fsr1
 10994  175F  00C5               	movwf	??_Measure_Vdd_VSolar_VBackup
 10995  1760  3F41               	moviw [1]fsr1
 10996  1761  00C6               	movwf	??_Measure_Vdd_VSolar_VBackup+1
 10997  1762  3F42               	moviw [2]fsr1
 10998  1763  00C7               	movwf	??_Measure_Vdd_VSolar_VBackup+2
 10999  1764  0008               	return
 11000  1765                     __end_ofPL70:	
 11001  1765                     PL72:	
 11002  1765  0873               	movf	UART_Transmit_string@tx+1,w
 11003  1766  00F5               	movwf	??_UART_Transmit_string+1
 11004  1767  0872               	movf	UART_Transmit_string@tx,w
 11005  1768  00F4               	movwf	??_UART_Transmit_string
 11006  1769  0877               	movf	UART_Transmit_string@a,w
 11007  176A  0774               	addwf	??_UART_Transmit_string,w
 11008  176B  0084               	movwf	4
 11009  176C  0875               	movf	??_UART_Transmit_string+1,w
 11010  176D  1803               	skipnc
 11011  176E  0A75               	incf	??_UART_Transmit_string+1,w
 11012  176F  0085               	movwf	5
 11013  1770  0008               	return
 11014  1771                     __end_ofPL72:	
 11015  1771                     PL76:	
 11016  1771  0820               	movf	?___lwtoft,w
 11017  1772  00B5               	movwf	___ftdiv@f1
 11018  1773  0821               	movf	?___lwtoft+1,w
 11019  1774  00B6               	movwf	___ftdiv@f1+1
 11020  1775  0822               	movf	?___lwtoft+2,w
 11021  1776  0008               	return
 11022  1777                     __end_ofPL76:	
 11023  1777                     PL80:	
 11024  1777  0832               	movf	?___ftdiv,w
 11025  1778  00CD               	movwf	___fttol@f1
 11026  1779  0833               	movf	?___ftdiv+1,w
 11027  177A  00CE               	movwf	___fttol@f1+1
 11028  177B  0834               	movf	?___ftdiv+2,w
 11029  177C  00CF               	movwf	___fttol@f1+2
 11030  177D  0008               	return
 11031  177E                     __end_ofPL80:	
 11032  177E                     PL84:	
 11033  177E  0086               	movwf	6
 11034  177F  3F40               	moviw [0]fsr1
 11035  1780  00A6               	movwf	___ftmul@f2
 11036  1781  3F41               	moviw [1]fsr1
 11037  1782  00A7               	movwf	___ftmul@f2+1
 11038  1783  3F42               	moviw [2]fsr1
 11039  1784  00A8               	movwf	___ftmul@f2+2
 11040  1785  0008               	return
 11041  1786                     __end_ofPL84:	
 11042  1786                     PL86:	
 11043  1786  0821               	movf	?___lwtoft+1,w
 11044  1787  00B3               	movwf	___ftdiv@f2+1
 11045  1788  0822               	movf	?___lwtoft+2,w
 11046  1789  00B4               	movwf	___ftdiv@f2+2
 11047  178A  3012               	movlw	18
 11048  178B  00A3               	movwf	___ftmul@f1
 11049  178C  3083               	movlw	131
 11050  178D  00A4               	movwf	___ftmul@f1+1
 11051  178E  3040               	movlw	64
 11052  178F  00A5               	movwf	___ftmul@f1+2
 11053  1790  0008               	return
 11054  1791                     __end_ofPL86:	
 11055  1791                     PL88:	
 11056  1791  0832               	movf	?___ftdiv,w
 11057  1792  00C4               	movwf	___ftadd@f2
 11058  1793  0833               	movf	?___ftdiv+1,w
 11059  1794  00C5               	movwf	___ftadd@f2+1
 11060  1795  0834               	movf	?___ftdiv+2,w
 11061  1796  00C6               	movwf	___ftadd@f2+2
 11062  1797  303F               	movlw	63
 11063  1798  01C1               	clrf	___ftadd@f1
 11064  1799  01C2               	clrf	___ftadd@f1+1
 11065  179A  00C3               	movwf	___ftadd@f1+2
 11066  179B  0008               	return
 11067  179C                     __end_ofPL88:	
 11068  179C                     PL96:	
 11069  179C  082E               	movf	Processing_Temperature@actual_temp,w
 11070  179D  0084               	movwf	4
 11071  179E  3001               	movlw	1	; select bank2/3
 11072  179F  0085               	movwf	5
 11073  17A0  0800               	movf	0,w
 11074  17A1  0081               	movwf	1
 11075  17A2  0008               	return
 11076  17A3                     __end_ofPL96:	
 11077  17A3                     PL102:	
 11078  17A3  0023               	movlb	3	; select bank3
 11079  17A4  129E               	bcf	30,5	;volatile
 11080  17A5  121D               	bcf	29,4	;volatile
 11081  17A6  0021               	movlb	1	; select bank1
 11082  17A7  160E               	bsf	14,4	;volatile
 11083  17A8  0008               	return
 11084  17A9                     __end_ofPL102:	
 11085  17A9                     PL112:	
 11086  17A9  0086               	movwf	6
 11087  17AA  0845               	movf	??_Measure_Vdd_VSolar_VBackup,w
 11088  17AB  3FC0               	movwi [0]fsr1
 11089  17AC  0846               	movf	??_Measure_Vdd_VSolar_VBackup+1,w
 11090  17AD  3FC1               	movwi [1]fsr1
 11091  17AE  0847               	movf	??_Measure_Vdd_VSolar_VBackup+2,w
 11092  17AF  3FC2               	movwi [2]fsr1
 11093  17B0  0008               	return
 11094  17B1                     __end_ofPL112:	
 11095  17B1                     PL120:	
 11096  17B1  0086               	movwf	6
 11097  17B2  3F40               	moviw [0]fsr1
 11098  17B3  00F5               	movwf	___ftge@ff2
 11099  17B4  3F41               	moviw [1]fsr1
 11100  17B5  00F6               	movwf	___ftge@ff2+1
 11101  17B6  3F42               	moviw [2]fsr1
 11102  17B7  00F7               	movwf	___ftge@ff2+2
 11103  17B8  0008               	return
 11104  17B9                     __end_ofPL120:	
 11105  17B9                     PL122:	
 11106  17B9  307A               	movlw	122
 11107  17BA  01A3               	clrf	___ftmul@f1
 11108  17BB  00A4               	movwf	___ftmul@f1+1
 11109  17BC  3044               	movlw	68
 11110  17BD  00A5               	movwf	___ftmul@f1+2
 11111  17BE  0008               	return
 11112  17BF                     __end_ofPL122:	
 11113  17BF                     PL126:	
 11114  17BF  0820               	movf	?___lwtoft,w
 11115  17C0  00A6               	movwf	___ftmul@f2
 11116  17C1  0821               	movf	?___lwtoft+1,w
 11117  17C2  00A7               	movwf	___ftmul@f2+1
 11118  17C3  0822               	movf	?___lwtoft+2,w
 11119  17C4  00A8               	movwf	___ftmul@f2+2
 11120  17C5  0008               	return
 11121  17C6                     __end_ofPL126:	
 11122  17C6                     PL134:	
 11123  17C6  0841               	movf	?___ftadd,w
 11124  17C7  00CD               	movwf	___fttol@f1
 11125  17C8  0842               	movf	?___ftadd+1,w
 11126  17C9  00CE               	movwf	___fttol@f1+1
 11127  17CA  0843               	movf	?___ftadd+2,w
 11128  17CB  00CF               	movwf	___fttol@f1+2
 11129  17CC  0008               	return
 11130  17CD                     __end_ofPL134:	
 11131  17CD                     PL136:	
 11132  17CD  0823               	movf	?___ftmul,w
 11133  17CE  00B5               	movwf	___ftdiv@f1
 11134  17CF  0824               	movf	?___ftmul+1,w
 11135  17D0  00B6               	movwf	___ftdiv@f1+1
 11136  17D1  0825               	movf	?___ftmul+2,w
 11137  17D2  00B7               	movwf	___ftdiv@f1+2
 11138  17D3  0008               	return
 11139  17D4                     __end_ofPL136:	
 11140  17D4                     PL140:	
 11141  17D4  3F40               	moviw [0]fsr1
 11142  17D5  00F2               	movwf	___ftge@ff1
 11143  17D6  3F41               	moviw [1]fsr1
 11144  17D7  00F3               	movwf	___ftge@ff1+1
 11145  17D8  3F42               	moviw [2]fsr1
 11146  17D9  00F4               	movwf	___ftge@ff1+2
 11147  17DA  0008               	return
 11148  17DB                     __end_ofPL140:	
 11149  17DB                     PL142:	
 11150  17DB  0826               	movf	___ftmul@f2,w
 11151  17DC  07AD               	addwf	___ftmul@f3_as_product,f
 11152  17DD  0827               	movf	___ftmul@f2+1,w
 11153  17DE  3DAE               	addwfc	___ftmul@f3_as_product+1,f
 11154  17DF  0828               	movf	___ftmul@f2+2,w
 11155  17E0  3DAF               	addwfc	___ftmul@f3_as_product+2,f
 11156  17E1  0008               	return
 11157  17E2                     __end_ofPL142:	
 11158  17E2                     PL152:	
 11159  17E2  0020               	movlb	0	; select bank0
 11160  17E3  085B               	movf	Envoi_message_service@temp_min,w
 11161  17E4  0086               	movwf	6
 11162  17E5  3001               	movlw	1	; select bank2/3
 11163  17E6  0087               	movwf	7
 11164  17E7  0008               	return
 11165  17E8                     __end_ofPL152:	
 11166  17E8                     PL160:	
 11167  17E8  30FF               	movlw	255
 11168  17E9  06C4               	xorwf	___ftadd@f2,f
 11169  17EA  06C5               	xorwf	___ftadd@f2+1,f
 11170  17EB  06C6               	xorwf	___ftadd@f2+2,f
 11171  17EC  0AC4               	incf	___ftadd@f2,f
 11172  17ED  0008               	return
 11173  17EE                     __end_ofPL160:	
 11174  17EE                     PL166:	
 11175  17EE  084D               	movf	Measure_Vdd_VSolar_VBackup@ADC_data+1,w
 11176  17EF  00A1               	movwf	___lwtoft@c+1
 11177  17F0  084C               	movf	Measure_Vdd_VSolar_VBackup@ADC_data,w
 11178  17F1  00A0               	movwf	___lwtoft@c
 11179  17F2  0008               	return
 11180  17F3                     __end_ofPL166:	
 11181  17F3                     PL172:	
 11182  17F3  01A3               	clrf	?___ftmul
 11183  17F4  01A4               	clrf	?___ftmul+1
 11184  17F5  01A5               	clrf	?___ftmul+2
 11185  17F6  0008               	return
 11186  17F7                     __end_ofPL172:	
 11187  17F7                     PL178:	
 11188  17F7  01B2               	clrf	___ftdiv@f2
 11189  17F8  00B3               	movwf	___ftdiv@f2+1
 11190  17F9  3042               	movlw	66
 11191  17FA  00B4               	movwf	___ftdiv@f2+2
 11192  17FB  0008               	return
 11193  17FC                     __end_ofPL178:	
 11194  17FC                     PL184:	
 11195  17FC  01B2               	clrf	?___ftdiv
 11196  17FD  01B3               	clrf	?___ftdiv+1
 11197  17FE  01B4               	clrf	?___ftdiv+2
 11198  17FF  0008               	return
 11199  1800                     __end_ofPL184:	
 11200                           
 11201                           	psect	intentry
 11202  0004                     __pintentry:	
 11203 ;; *************** function _isr *****************
 11204 ;; Defined at:
 11205 ;;		line 7 in file "../Sources/interrupts.c"
 11206 ;; Parameters:    Size  Location     Type
 11207 ;;		None
 11208 ;; Auto vars:     Size  Location     Type
 11209 ;;		None
 11210 ;; Return value:  Size  Location     Type
 11211 ;;                  1    wreg      void 
 11212 ;; Registers used:
 11213 ;;		wreg, fsr1l, fsr1h, status,2, status,0
 11214 ;; Tracked objects:
 11215 ;;		On entry : 0/0
 11216 ;;		On exit  : 1F/0
 11217 ;;		Unchanged: 0/0
 11218 ;; Data sizes:     COMMON   BANK0   BANK1   BANK2   BANK3   BANK4   BANK5   BANK6   BANK7   BANK8   BANK9  BANK10  BANK1
      +1  BANK12
 11219 ;;      Params:         0       0       0       0       0       0       0       0       0       0       0       0       
      +0       0
 11220 ;;      Locals:         0       0       0       0       0       0       0       0       0       0       0       0       
      +0       0
 11221 ;;      Temps:          2       0       0       0       0       0       0       0       0       0       0       0       
      +0       0
 11222 ;;      Totals:         2       0       0       0       0       0       0       0       0       0       0       0       
      +0       0
 11223 ;;Total ram usage:        2 bytes
 11224 ;; Hardware stack levels used:    1
 11225 ;; This function calls:
 11226 ;;		Nothing
 11227 ;; This function is called by:
 11228 ;;		Interrupt level 1
 11229 ;; This function uses a non-reentrant model
 11230 ;;
 11231                           
 11232  0004                     _isr:	
 11233                           
 11234                           ;incstack = 0
 11235  0004  147E               	bsf	126,0	;set compiler interrupt flag (level 1)
 11236                           
 11237                           ; Regs used in _isr: [wreg+fsr1l+fsr1h+status,2+status,0]
 11238  0005  3180               	pagesel	$
 11239  0006                     i1l4731:	
 11240                           ;interrupts.c: 9: while(RCIF){
 11241                           
 11242  0006  0020               	movlb	0	; select bank0
 11243  0007  1E91               	btfss	17,5	;volatile
 11244  0008  2823               	goto	i1l32
 11245  0009                     i1l25:	
 11246  0009  0023               	movlb	3	; select bank3
 11247  000A  189F               	btfsc	31,1	;volatile
 11248  000B  2809               	goto	i1l25
 11249                           
 11250                           ;interrupts.c: 11: if(RCSTAbits.FERR!=1){
 11251  000C  191D               	btfsc	29,2	;volatile
 11252  000D  2821               	goto	i1l4729
 11253                           
 11254                           ;interrupts.c: 12: UART_buffer_RX[UART_RX_WR_ptr]=RCREG;
 11255  000E  087B               	movf	_UART_RX_WR_ptr,w	;volatile
 11256  000F  3E2C               	addlw	44
 11257  0010  00F0               	movwf	??_isr
 11258  0011  3023               	movlw	35
 11259  0012  01F1               	clrf	??_isr+1
 11260  0013  3DF1               	addwfc	??_isr+1,f
 11261  0014  0870               	movf	??_isr,w
 11262  0015  0086               	movwf	6
 11263  0016  0871               	movf	??_isr+1,w
 11264  0017  0087               	movwf	7
 11265  0018  0819               	movf	25,w	;volatile
 11266  0019  0081               	movwf	1
 11267                           
 11268                           ;interrupts.c: 13: UART_RX_WR_ptr++;
 11269  001A  0AFB               	incf	_UART_RX_WR_ptr,f	;volatile
 11270                           
 11271                           ;interrupts.c: 14: if (UART_RX_WR_ptr == 100) UART_RX_WR_ptr = 0;
 11272  001B  3064               	movlw	100
 11273  001C  067B               	xorwf	_UART_RX_WR_ptr,w	;volatile
 11274  001D  1D03               	btfss	3,2
 11275  001E  2806               	goto	i1l4731
 11276  001F  01FB               	clrf	_UART_RX_WR_ptr	;volatile
 11277  0020  2806               	goto	i1l4731
 11278  0021                     i1l4729:	
 11279                           
 11280                           ;interrupts.c: 16: else (void)RCREG;
 11281  0021  0819               	movf	25,w	;volatile
 11282  0022  2806               	goto	i1l4731
 11283  0023                     i1l32:	
 11284  0023  107E               	bcf	126,0	;clear compiler interrupt flag (level 1)
 11285  0024  0009               	retfie
 11286  0025                     __end_of_isr:	
 11287  007E                     btemp	set	126	;btemp
 11288  007E                     int$flags	set	126
 11289  007E                     wtemp0	set	126


Data Sizes:
    Strings     63
    Constant    208
    Data        0
    BSS         4
    Persistent  0
    Stack       0

Auto Spaces:
    Space          Size  Autos    Used
    COMMON           14     11      12
    BANK0            80     80      80
    BANK1            80     80      80
    BANK2            80     34      37
    BANK3            80      0       0
    BANK4            80      0       0
    BANK5            80      0       0
    BANK6            40      0       0
    BANK7             0      0       0
    BANK8             0      0       0
    BANK9             0      0       0
    BANK10            0      0       0
    BANK11            0      0       0
    BANK12            0      0       0

Pointer List with Targets:

    xtoi@s	PTR const unsigned char  size(1) Largest target is 3
		 -> verifierCRC@crc(BANK0[3]), 

    strncmp@s2	PTR const unsigned char  size(2) Largest target is 7
		 -> STR_10(CODE[7]), STR_9(CODE[7]), STR_4(CODE[3]), 

    strncmp@s1	PTR const unsigned char  size(2) Largest target is 100
		 -> chaine(BIGRAM[100]), 

    atoi@s	PTR const unsigned char  size(2) Largest target is 192
		 -> champsTrameGPSGGA(BIGRAM[192]), 

    atof@s	PTR const unsigned char  size(2) Largest target is 192
		 -> champsTrameGPSVTG(BIGRAM[96]), champsTrameGPSGGA(BIGRAM[192]), 

    strtod@s	PTR const unsigned char  size(2) Largest target is 192
		 -> champsTrameGPSVTG(BIGRAM[96]), champsTrameGPSGGA(BIGRAM[192]), 

    strtod@res	PTR PTR const unsigned char  size(1) Largest target is 0
		 -> NULL(NULL[0]), 

    decodage_Lat_Long@dopBis	PTR unsigned char  size(1) Largest target is 1
		 -> main@dopBis(BANK2[1]), 

    decodage_Lat_Long@Long	PTR unsigned long  size(1) Largest target is 4
		 -> main@Long(BANK2[4]), 

    decodage_Lat_Long@Lat	PTR unsigned long  size(1) Largest target is 4
		 -> main@Lat(BANK2[4]), 

    decodage_VTG@vitesse	PTR float  size(1) Largest target is 3
		 -> main@vitesse(BANK1[3]), 

    decodage_VTG@cap	PTR float  size(1) Largest target is 3
		 -> main@cap(BANK1[3]), 

    verifierCRC@trameGPS	PTR unsigned char  size(2) Largest target is 100
		 -> chaine(BIGRAM[100]), 

    Envoi_message_service@VBackup_max	PTR float  size(1) Largest target is 3
		 -> main@VBackup_max(BANK2[3]), 

    Envoi_message_service@VBackup_min	PTR float  size(1) Largest target is 3
		 -> main@VBackup_min(BANK2[3]), 

    Envoi_message_service@nb_slot_protec	PTR unsigned short  size(1) Largest target is 2
		 -> main@nb_slot_protec(BANK1[2]), 

    Envoi_message_service@temp_max	PTR char  size(1) Largest target is 1
		 -> main@temp_max(BANK2[1]), 

    Envoi_message_service@temp_min	PTR char  size(1) Largest target is 1
		 -> main@temp_min(BANK2[1]), 

    UART_Transmit_string@tx	PTR const unsigned char  size(2) Largest target is 26
		 -> VTG_ON(CODE[26]), GGA_OFF(CODE[26]), VTG_OFF(CODE[26]), GGA_ON(CODE[26]), 
		 -> RMC(CODE[26]), GSV(CODE[26]), GSA(CODE[26]), GGL(CODE[26]), 
		 -> STR_8(CODE[21]), STR_7(CODE[6]), STR_6(CODE[7]), STR_5(CODE[5]), 
		 -> STR_3(CODE[7]), STR_2(CODE[7]), STR_1(CODE[7]), 

    Measure_Vdd_VSolar_VBackup@VBackup_max	PTR float  size(1) Largest target is 3
		 -> main@VBackup_max(BANK2[3]), 

    Measure_Vdd_VSolar_VBackup@VBackup_min	PTR float  size(1) Largest target is 3
		 -> main@VBackup_min(BANK2[3]), 

    Measure_Vdd_VSolar_VBackup@Vdd	PTR float  size(1) Largest target is 3
		 -> main@Vdd(BANK2[3]), 

    Measure_Vdd_VSolar_VBackup@VBackup	PTR float  size(1) Largest target is 3
		 -> main@VBackup(BANK2[3]), 

    Measure_Vdd_VSolar_VBackup@VSolar	PTR float  size(1) Largest target is 3
		 -> main@VSolar(BANK2[3]), 

    Processing_Temperature@index_temp_old	PTR unsigned char  size(1) Largest target is 1
		 -> main@index_temp_old(BANK2[1]), 

    Processing_Temperature@tab_temp	PTR char  size(1) Largest target is 50
		 -> main@tab_temp(BANK1[50]), 

    Processing_Temperature@temp_moy	PTR short  size(1) Largest target is 2
		 -> main@temp_moy(BANK1[2]), 

    Processing_Temperature@temp_max	PTR char  size(1) Largest target is 1
		 -> main@temp_max(BANK2[1]), 

    Processing_Temperature@temp_min	PTR char  size(1) Largest target is 1
		 -> main@temp_min(BANK2[1]), 

    Processing_Temperature@actual_temp	PTR char  size(1) Largest target is 1
		 -> main@actual_temp(BANK2[1]), 


Critical Paths under _main in COMMON

    _main->_Envoi_message
    _main->_Envoi_message_Erreur
    _main->_UART_Frame_Received
    _main->_decodage_VTG
    _verifierCRC->_xtoi
    _xtoi->_isxdigit
    _isxdigit->_isdigit
    _decodage_Lat_Long->___lmul
    _decodage_Lat_Long->_atoi
    _atoi->___wmul
    _strtod->___lmul
    ___altoft->___ftpack
    _configure_GPS_VTG->_UART_Transmit_string
    _configure_GPS->_UART_Transmit_string
    _Reinit_trame_GPS->___wmul
    _Recuperer_Temp->_UART_Frame_Received
    _UART_Frame_Received->_UART_Get_Next_Char
    _Measure_Vdd_VSolar_VBackup->_ADC_Read
    ___ftmul->___ftpack
    _hex_to_ascii->___bmul
    ___lwtoft->___ftpack
    ___ftdiv->___ftpack
    ___ftadd->___ftpack

Critical Paths under _isr in COMMON

    None.

Critical Paths under _main in BANK0

    _main->_Envoi_message
    _decode_trame_GPS->_verifierCRC
    _verifierCRC->_xtoi
    _decodage_VTG->_atof
    _decodage_Lat_Long->_atof
    _atof->_strtod
    _strtod->___ftdiv
    _Processing_Temperature->_Recuperer_Temp
    _Measure_Vdd_VSolar_VBackup->___ftdiv
    ___ftmul->___lwtoft
    _Envoi_message_service->___fttol
    _Envoi_message_Erreur->___fttol
    _Envoi_message->___fttol
    ___fttol->___ftadd
    ___ftdiv->___ftmul
    ___ftadd->___ftdiv

Critical Paths under _isr in BANK0

    None.

Critical Paths under _main in BANK1

    None.

Critical Paths under _isr in BANK1

    None.

Critical Paths under _main in BANK2

    None.

Critical Paths under _isr in BANK2

    None.

Critical Paths under _main in BANK3

    None.

Critical Paths under _isr in BANK3

    None.

Critical Paths under _main in BANK4

    None.

Critical Paths under _isr in BANK4

    None.

Critical Paths under _main in BANK5

    None.

Critical Paths under _isr in BANK5

    None.

Critical Paths under _main in BANK6

    None.

Critical Paths under _isr in BANK6

    None.

Critical Paths under _main in BANK7

    None.

Critical Paths under _isr in BANK7

    None.

Critical Paths under _main in BANK8

    None.

Critical Paths under _isr in BANK8

    None.

Critical Paths under _main in BANK9

    None.

Critical Paths under _isr in BANK9

    None.

Critical Paths under _main in BANK10

    None.

Critical Paths under _isr in BANK10

    None.

Critical Paths under _main in BANK11

    None.

Critical Paths under _isr in BANK11

    None.

Critical Paths under _main in BANK12

    None.

Critical Paths under _isr in BANK12

    None.

Call Graph Tables:

 ---------------------------------------------------------------------------------
 (Depth) Function   	        Calls       Base Space   Used Autos Params    Refs
 ---------------------------------------------------------------------------------
 (0) _main                                               118   118      0  141344
                                             77 BANK0      3     3      0
                                              0 BANK1     80    80      0
                                              0 BANK2     34    34      0
                        _Delay_100ms
                      _Envoi_message
               _Envoi_message_Erreur
              _Envoi_message_service
         _Measure_Vdd_VSolar_VBackup
             _Processing_Temperature
                   _Reinit_trame_GPS
                _UART_Frame_Received
               _UART_RX_Buffers_Init
                            ___awdiv
                            ___ftdiv
                             ___ftge
                            ___fttol
                            ___lwdiv
                            ___lwmod
                        _chaine_Init
                      _configure_GPS
                  _configure_GPS_VTG
                  _decodage_Lat_Long
                       _decodage_VTG
                   _decode_trame_GPS
               _init_compteur_trames
 ---------------------------------------------------------------------------------
 (1) _init_compteur_trames                                 0     0      0       0
 ---------------------------------------------------------------------------------
 (1) _decode_trame_GPS                                    15    15      0    4323
                                             14 BANK0     15    15      0
                             ___wmul
                        _chaine_Init
                            _strncmp
                        _verifierCRC
 ---------------------------------------------------------------------------------
 (2) _verifierCRC                                          9     7      2    2072
                                              5 BANK0      9     7      2
                               _xtoi
 ---------------------------------------------------------------------------------
 (3) _xtoi                                                 9     7      2    1122
                                              6 COMMON     4     2      2
                                              0 BANK0      5     5      0
                            _isdigit
                            _isspace
                            _isupper
                           _isxdigit
                            _tolower
 ---------------------------------------------------------------------------------
 (4) _tolower                                              1     1      0      96
                                              2 COMMON     1     1      0
 ---------------------------------------------------------------------------------
 (4) _isxdigit                                             2     2      0     291
                                              4 COMMON     2     2      0
                            _isdigit
 ---------------------------------------------------------------------------------
 (4) _isupper                                              2     2      0      99
                                              2 COMMON     2     2      0
 ---------------------------------------------------------------------------------
 (2) _strncmp                                              7     1      6     717
                                              2 COMMON     7     1      6
 ---------------------------------------------------------------------------------
 (1) _decodage_VTG                                         2     1      1   18444
                                             10 COMMON     1     1      0
                                             46 BANK0      1     0      1
                               _atof
 ---------------------------------------------------------------------------------
 (1) _decodage_Lat_Long                                   15    13      2   27680
                                             46 BANK0     15    13      2
                             ___ftge
                             ___lmul
                               _atof
                               _atoi
 ---------------------------------------------------------------------------------
 (2) _atoi                                                 9     7      2    1284
                                              8 COMMON     2     0      2
                                              0 BANK0      7     7      0
                             ___wmul
                            _isdigit
 ---------------------------------------------------------------------------------
 (2) _atof                                                 3     0      3   18225
                                             43 BANK0      3     0      3
                             _strtod
 ---------------------------------------------------------------------------------
 (3) _strtod                                              10     7      3   17999
                                             33 BANK0     10     7      3
                           ___altoft
                             ___bmul
                            ___ftdiv
                             ___ftge
                            ___ftmul
                            ___ftneg
                             ___lmul
                            _isdigit
                            _isspace
 ---------------------------------------------------------------------------------
 (4) _isspace                                              2     2      0     130
                                              2 COMMON     2     2      0
 ---------------------------------------------------------------------------------
 (5) _isdigit                                              2     2      0      99
                                              2 COMMON     2     2      0
 ---------------------------------------------------------------------------------
 (4) ___lmul                                              12     4      8    2216
                                              2 COMMON     8     0      8
                                              0 BANK0      4     4      0
 ---------------------------------------------------------------------------------
 (4) ___ftneg                                              3     0      3     130
                                              2 COMMON     3     0      3
 ---------------------------------------------------------------------------------
 (4) ___altoft                                             6     2      4    2397
                                              0 BANK0      6     2      4
                           ___ftpack
 ---------------------------------------------------------------------------------
 (1) _configure_GPS_VTG                                    0     0      0    2757
                        _Delay_100ms
               _UART_RX_Buffers_Init
               _UART_Transmit_string
 ---------------------------------------------------------------------------------
 (1) _configure_GPS                                        0     0      0    2658
                        _Delay_100ms
               _UART_Transmit_string
 ---------------------------------------------------------------------------------
 (1) ___lwmod                                              5     1      4     622
                                              2 COMMON     5     1      4
 ---------------------------------------------------------------------------------
 (1) ___awdiv                                              8     4      4     575
                                              2 COMMON     8     4      4
 ---------------------------------------------------------------------------------
 (1) _Reinit_trame_GPS                                     8     8      0    1157
                                              8 COMMON     2     2      0
                                              0 BANK0      6     6      0
                             ___wmul
                        _chaine_Init
 ---------------------------------------------------------------------------------
 (2) ___wmul                                               6     2      4     786
                                              2 COMMON     6     2      4
 ---------------------------------------------------------------------------------
 (1) _Processing_Temperature                              13     8      5    5191
                                              2 BANK0     13     8      5
                     _Recuperer_Temp
 ---------------------------------------------------------------------------------
 (2) _Recuperer_Temp                                       2     2      0    3703
                                              0 BANK0      2     2      0
                        _Delay_100ms
                _UART_Frame_Received
               _UART_RX_Buffers_Init
             _UART_Transmit_one_char
               _UART_Transmit_string
                             ___bmul
                        _chaine_Init
 ---------------------------------------------------------------------------------
 (2) _chaine_Init                                          1     1      0      99
                                              2 COMMON     1     1      0
 ---------------------------------------------------------------------------------
 (1) _UART_Frame_Received                                  6     6      0     312
                                              5 COMMON     6     6      0
                 _UART_Get_Next_Char
 ---------------------------------------------------------------------------------
 (2) _UART_Get_Next_Char                                   3     3      0      34
                                              2 COMMON     3     3      0
 ---------------------------------------------------------------------------------
 (1) _Measure_Vdd_VSolar_VBackup                          14    10      4   15790
                                             33 BANK0     14    10      4
                           _ADC_Read
                            ___ftdiv
                             ___ftge
                            ___ftmul
                           ___lwtoft
 ---------------------------------------------------------------------------------
 (4) ___ftmul                                             15     9      6    3532
                                              3 BANK0     15     9      6
                           ___ftpack
                           ___lwtoft (ARG)
 ---------------------------------------------------------------------------------
 (4) ___ftge                                               6     0      6    2928
                                              2 COMMON     6     0      6
 ---------------------------------------------------------------------------------
 (2) _ADC_Read                                             9     7      2     201
                                              2 COMMON     9     7      2
 ---------------------------------------------------------------------------------
 (1) _Envoi_message_service                               12     5      7   12017
                                             58 BANK0     12     5      7
                        _Delay_100ms
               _UART_RX_Buffers_Init
             _UART_Transmit_one_char
               _UART_Transmit_string
                            ___ftdiv
                            ___fttol
                            ___lwdiv
                       _hex_to_ascii
 ---------------------------------------------------------------------------------
 (1) ___lwdiv                                              7     3      4     922
                                              2 COMMON     7     3      4
 ---------------------------------------------------------------------------------
 (1) _Envoi_message_Erreur                                 8     2      6   14861
                                             10 COMMON     1     1      0
                                             58 BANK0      6     0      6
                        _Delay_100ms
               _UART_RX_Buffers_Init
             _UART_Transmit_one_char
               _UART_Transmit_string
                            ___ftdiv
                            ___fttol
                           ___lwtoft
                       _hex_to_ascii
 ---------------------------------------------------------------------------------
 (1) _Envoi_message                                       20     3     17   17669
                                             10 COMMON     1     1      0
                                             58 BANK0     19     2     17
                        _Delay_100ms
               _UART_RX_Buffers_Init
             _UART_Transmit_one_char
               _UART_Transmit_string
                            ___ftadd
                            ___ftdiv
                            ___fttol
                           ___lwtoft
                       _hex_to_ascii
 ---------------------------------------------------------------------------------
 (2) _hex_to_ascii                                         3     3      0     712
                                              5 COMMON     3     3      0
             _UART_Transmit_one_char
                             ___bmul
 ---------------------------------------------------------------------------------
 (4) ___bmul                                               3     2      1     396
                                              2 COMMON     3     2      1
 ---------------------------------------------------------------------------------
 (3) _UART_Transmit_one_char                               1     1      0      31
                                              2 COMMON     1     1      0
 ---------------------------------------------------------------------------------
 (2) ___lwtoft                                             3     0      3    2744
                                              0 BANK0      3     0      3
                           ___ftpack
 ---------------------------------------------------------------------------------
 (1) ___fttol                                             13     9      4    2061
                                             45 BANK0     13     9      4
                            ___ftadd (ARG)
                            ___ftdiv (ARG)
                           ___lwtoft (ARG)
 ---------------------------------------------------------------------------------
 (4) ___ftdiv                                             15     9      6    4244
                                             18 BANK0     15     9      6
                            ___ftmul (ARG)
                           ___ftpack
                           ___lwtoft (ARG)
 ---------------------------------------------------------------------------------
 (2) ___ftadd                                             12     6      6    3703
                                             33 BANK0     12     6      6
                            ___ftdiv (ARG)
                           ___ftpack
                           ___lwtoft (ARG)
 ---------------------------------------------------------------------------------
 (5) ___ftpack                                             8     3      5    2128
                                              2 COMMON     8     3      5
 ---------------------------------------------------------------------------------
 (2) _UART_Transmit_string                                 6     4      2    1045
                                              2 COMMON     6     4      2
 ---------------------------------------------------------------------------------
 (2) _UART_RX_Buffers_Init                                 3     3      0      99
                                              2 COMMON     3     3      0
 ---------------------------------------------------------------------------------
 (2) _Delay_100ms                                          5     3      2    1613
                                              2 COMMON     5     3      2
 ---------------------------------------------------------------------------------
 Estimated maximum stack depth 5
 ---------------------------------------------------------------------------------
 (Depth) Function   	        Calls       Base Space   Used Autos Params    Refs
 ---------------------------------------------------------------------------------
 (6) _isr                                                  2     2      0       0
                                              0 COMMON     2     2      0
 ---------------------------------------------------------------------------------
 Estimated maximum stack depth 6
 ---------------------------------------------------------------------------------

 Call Graph Graphs:

 _main (ROOT)
   _Delay_100ms
   _Envoi_message
     _Delay_100ms
     _UART_RX_Buffers_Init
     _UART_Transmit_one_char
     _UART_Transmit_string
     ___ftadd
       ___ftdiv (ARG)
         ___ftmul (ARG)
           ___ftpack
           ___lwtoft (ARG)
             ___ftpack
         ___ftpack (ARG)
         ___lwtoft (ARG)
           ___ftpack
       ___ftpack (ARG)
       ___lwtoft (ARG)
         ___ftpack
     ___ftdiv
       ___ftmul (ARG)
         ___ftpack
         ___lwtoft (ARG)
           ___ftpack
       ___ftpack (ARG)
       ___lwtoft (ARG)
         ___ftpack
     ___fttol
       ___ftadd (ARG)
         ___ftdiv (ARG)
           ___ftmul (ARG)
             ___ftpack
             ___lwtoft (ARG)
               ___ftpack
           ___ftpack (ARG)
           ___lwtoft (ARG)
             ___ftpack
         ___ftpack (ARG)
         ___lwtoft (ARG)
           ___ftpack
       ___ftdiv (ARG)
         ___ftmul (ARG)
           ___ftpack
           ___lwtoft (ARG)
             ___ftpack
         ___ftpack (ARG)
         ___lwtoft (ARG)
           ___ftpack
       ___lwtoft (ARG)
         ___ftpack
     ___lwtoft
       ___ftpack
     _hex_to_ascii
       _UART_Transmit_one_char
       ___bmul
   _Envoi_message_Erreur
     _Delay_100ms
     _UART_RX_Buffers_Init
     _UART_Transmit_one_char
     _UART_Transmit_string
     ___ftdiv
       ___ftmul (ARG)
         ___ftpack
         ___lwtoft (ARG)
           ___ftpack
       ___ftpack (ARG)
       ___lwtoft (ARG)
         ___ftpack
     ___fttol
       ___ftadd (ARG)
         ___ftdiv (ARG)
           ___ftmul (ARG)
             ___ftpack
             ___lwtoft (ARG)
               ___ftpack
           ___ftpack (ARG)
           ___lwtoft (ARG)
             ___ftpack
         ___ftpack (ARG)
         ___lwtoft (ARG)
           ___ftpack
       ___ftdiv (ARG)
         ___ftmul (ARG)
           ___ftpack
           ___lwtoft (ARG)
             ___ftpack
         ___ftpack (ARG)
         ___lwtoft (ARG)
           ___ftpack
       ___lwtoft (ARG)
         ___ftpack
     ___lwtoft
       ___ftpack
     _hex_to_ascii
       _UART_Transmit_one_char
       ___bmul
   _Envoi_message_service
     _Delay_100ms
     _UART_RX_Buffers_Init
     _UART_Transmit_one_char
     _UART_Transmit_string
     ___ftdiv
       ___ftmul (ARG)
         ___ftpack
         ___lwtoft (ARG)
           ___ftpack
       ___ftpack (ARG)
       ___lwtoft (ARG)
         ___ftpack
     ___fttol
       ___ftadd (ARG)
         ___ftdiv (ARG)
           ___ftmul (ARG)
             ___ftpack
             ___lwtoft (ARG)
               ___ftpack
           ___ftpack (ARG)
           ___lwtoft (ARG)
             ___ftpack
         ___ftpack (ARG)
         ___lwtoft (ARG)
           ___ftpack
       ___ftdiv (ARG)
         ___ftmul (ARG)
           ___ftpack
           ___lwtoft (ARG)
             ___ftpack
         ___ftpack (ARG)
         ___lwtoft (ARG)
           ___ftpack
       ___lwtoft (ARG)
         ___ftpack
     ___lwdiv
     _hex_to_ascii
       _UART_Transmit_one_char
       ___bmul
   _Measure_Vdd_VSolar_VBackup
     _ADC_Read
     ___ftdiv
       ___ftmul (ARG)
         ___ftpack
         ___lwtoft (ARG)
           ___ftpack
       ___ftpack (ARG)
       ___lwtoft (ARG)
         ___ftpack
     ___ftge
     ___ftmul
       ___ftpack
       ___lwtoft (ARG)
         ___ftpack
     ___lwtoft
       ___ftpack
   _Processing_Temperature
     _Recuperer_Temp
       _Delay_100ms
       _UART_Frame_Received
         _UART_Get_Next_Char
       _UART_RX_Buffers_Init
       _UART_Transmit_one_char
       _UART_Transmit_string
       ___bmul
       _chaine_Init
   _Reinit_trame_GPS
     ___wmul
     _chaine_Init
   _UART_Frame_Received
     _UART_Get_Next_Char
   _UART_RX_Buffers_Init
   ___awdiv
   ___ftdiv
     ___ftmul (ARG)
       ___ftpack
       ___lwtoft (ARG)
         ___ftpack
     ___ftpack (ARG)
     ___lwtoft (ARG)
       ___ftpack
   ___ftge
   ___fttol
     ___ftadd (ARG)
       ___ftdiv (ARG)
         ___ftmul (ARG)
           ___ftpack
           ___lwtoft (ARG)
             ___ftpack
         ___ftpack (ARG)
         ___lwtoft (ARG)
           ___ftpack
       ___ftpack (ARG)
       ___lwtoft (ARG)
         ___ftpack
     ___ftdiv (ARG)
       ___ftmul (ARG)
         ___ftpack
         ___lwtoft (ARG)
           ___ftpack
       ___ftpack (ARG)
       ___lwtoft (ARG)
         ___ftpack
     ___lwtoft (ARG)
       ___ftpack
   ___lwdiv
   ___lwmod
   _chaine_Init
   _configure_GPS
     _Delay_100ms
     _UART_Transmit_string
   _configure_GPS_VTG
     _Delay_100ms
     _UART_RX_Buffers_Init
     _UART_Transmit_string
   _decodage_Lat_Long
     ___ftge
     ___lmul
     _atof
       _strtod
         ___altoft
           ___ftpack
         ___bmul
         ___ftdiv
           ___ftmul (ARG)
             ___ftpack
             ___lwtoft (ARG)
               ___ftpack
           ___ftpack (ARG)
           ___lwtoft (ARG)
             ___ftpack
         ___ftge
         ___ftmul
           ___ftpack
           ___lwtoft (ARG)
             ___ftpack
         ___ftneg
         ___lmul
         _isdigit
         _isspace
     _atoi
       ___wmul
       _isdigit
   _decodage_VTG
     _atof
       _strtod
         ___altoft
           ___ftpack
         ___bmul
         ___ftdiv
           ___ftmul (ARG)
             ___ftpack
             ___lwtoft (ARG)
               ___ftpack
           ___ftpack (ARG)
           ___lwtoft (ARG)
             ___ftpack
         ___ftge
         ___ftmul
           ___ftpack
           ___lwtoft (ARG)
             ___ftpack
         ___ftneg
         ___lmul
         _isdigit
         _isspace
   _decode_trame_GPS
     ___wmul
     _chaine_Init
     _strncmp
     _verifierCRC
       _xtoi
         _isdigit
         _isspace
         _isupper
         _isxdigit
           _isdigit
         _tolower
   _init_compteur_trames

 _isr (ROOT)

 Address spaces:
Name               Size   Autos  Total    Cost      Usage
BIGRAM             3F0      0       0       0        0.0%
EEDATA             100      0       0       0        0.0%
NULL                 0      0       0       0        0.0%
CODE                 0      0       0       0        0.0%
BITCOMMON            E      0       0       1        0.0%
BITSFR0              0      0       0       1        0.0%
SFR0                 0      0       0       1        0.0%
COMMON               E      B       C       2       85.7%
BITSFR1              0      0       0       2        0.0%
SFR1                 0      0       0       2        0.0%
BITSFR2              0      0       0       3        0.0%
SFR2                 0      0       0       3        0.0%
STACK                0      0       0       3        0.0%
BITBANK0            50      0       0       4        0.0%
BITSFR3              0      0       0       4        0.0%
SFR3                 0      0       0       4        0.0%
BANK0               50     50      50       5      100.0%
BITSFR4              0      0       0       5        0.0%
SFR4                 0      0       0       5        0.0%
BITBANK1            50      0       0       6        0.0%
BITSFR5              0      0       0       6        0.0%
SFR5                 0      0       0       6        0.0%
BANK1               50     50      50       7      100.0%
BITSFR6              0      0       0       7        0.0%
SFR6                 0      0       0       7        0.0%
BITBANK2            50      0       0       8        0.0%
BITSFR7              0      0       0       8        0.0%
SFR7                 0      0       0       8        0.0%
BANK2               50     22      25       9       46.3%
BITSFR8              0      0       0       9        0.0%
SFR8                 0      0       0       9        0.0%
BITBANK3            50      0       0      10        0.0%
BITSFR9              0      0       0      10        0.0%
SFR9                 0      0       0      10        0.0%
BANK3               50      0       0      11        0.0%
BITSFR10             0      0       0      11        0.0%
SFR10                0      0       0      11        0.0%
BITBANK4            50      0       0      12        0.0%
BITSFR11             0      0       0      12        0.0%
SFR11                0      0       0      12        0.0%
BANK4               50      0       0      13        0.0%
BITSFR12             0      0       0      13        0.0%
SFR12                0      0       0      13        0.0%
BITBANK5            50      0       0      14        0.0%
BITSFR13             0      0       0      14        0.0%
SFR13                0      0       0      14        0.0%
BANK5               50      0       0      15        0.0%
BITSFR14             0      0       0      15        0.0%
SFR14                0      0       0      15        0.0%
BITBANK6            50      0       0      16        0.0%
BITSFR15             0      0       0      16        0.0%
SFR15                0      0       0      16        0.0%
BANK6               28      0       0      17        0.0%
BITSFR16             0      0       0      17        0.0%
SFR16                0      0       0      17        0.0%
BITBANK7            50      0       0      18        0.0%
BITSFR17             0      0       0      18        0.0%
SFR17                0      0       0      18        0.0%
BITSFR18             0      0       0      19        0.0%
SFR18                0      0       0      19        0.0%
BANK7                0      0       0      19        0.0%
BITSFR19             0      0       0      20        0.0%
SFR19                0      0       0      20        0.0%
ABS                  0      0      D1      20        0.0%
BITBANK8            50      0       0      21        0.0%
BITSFR20             0      0       0      21        0.0%
SFR20                0      0       0      21        0.0%
BITSFR21             0      0       0      22        0.0%
SFR21                0      0       0      22        0.0%
BANK8                0      0       0      22        0.0%
BITBANK9            50      0       0      23        0.0%
BITSFR22             0      0       0      23        0.0%
SFR22                0      0       0      23        0.0%
BITSFR23             0      0       0      24        0.0%
SFR23                0      0       0      24        0.0%
BANK9                0      0       0      24        0.0%
BITBANK10           50      0       0      25        0.0%
BITSFR24             0      0       0      25        0.0%
SFR24                0      0       0      25        0.0%
BITSFR25             0      0       0      26        0.0%
SFR25                0      0       0      26        0.0%
BANK10               0      0       0      26        0.0%
BITBANK11           50      0       0      27        0.0%
BITSFR26             0      0       0      27        0.0%
SFR26                0      0       0      27        0.0%
BITSFR27             0      0       0      28        0.0%
SFR27                0      0       0      28        0.0%
BANK11               0      0       0      28        0.0%
BITBANK12           30      0       0      29        0.0%
BITSFR28             0      0       0      29        0.0%
SFR28                0      0       0      29        0.0%
BITSFR29             0      0       0      30        0.0%
SFR29                0      0       0      30        0.0%
BANK12               0      0       0      30        0.0%
BITSFR30             0      0       0      31        0.0%
SFR30                0      0       0      31        0.0%
DATA                 0      0      D1      31        0.0%
BITSFR31             0      0       0      32        0.0%
SFR31                0      0       0      32        0.0%


Microchip Technology PIC Macro Assembler V1.44 build -154322312 
Symbol Table                                                                                   Sun Nov 05 00:56:35 2017

                         ___altoft@exp 0024          __size_of_UART_Transmit_string 000F  
            __size_of_decode_trame_GPS 008D                         ___bmul@product 0073  
                          __CFG_CP$OFF 0000                                     PL2 0EAB  
                                   PL4 0ED1                                     PL6 0EF6  
                                   PL8 0EFD                         ?_configure_GPS 0070  
                        ___altoft@sign 0025                            __CFG_CPD$ON 0000  
                         ___awdiv@sign 0077                    ___wmul@multiplicand 0074  
                      main@VBackup_max 0129                        main@VBackup_min 0126  
                 __end_of_decodage_VTG 0A7F                           ___ftadd@exp1 004C  
                         ___ftadd@exp2 004B                                    PL10 05AC  
                                  PL20 05D6                                    PL12 0F05  
                                  PL30 0F2C                                    PL22 09EC  
                                  PL14 05C3                                    PL40 0600  
                                  PL32 1722                                    PL24 0F24  
                                  PL16 0F11                                    PL50 1739  
                                  PL42 0609                                    PL34 05EC  
                                  PL26 05E3                                    PL18 0F1B  
                                  PL60 061A                                    PL52 0F59  
                                  PL44 0612                                    PL36 0F36  
                                  PL28 09F5                                    PL70 1759  
                                  PL62 0620                                    PL54 0F63  
                                  PL46 0F49                                    PL38 05F8  
                          __CFG_LVP$ON 0000                                    PL80 1777  
                                  PL72 1765                                    PL64 0A0E  
                                  PL56 1743                                    PL48 172F  
                                  PL90 0F8A                                    PL82 0F83  
                                  PL74 0F71                                    PL66 062C  
                                  PL58 0F6B                                    PL92 0A1B  
                                  PL84 177E                                    PL76 1771  
                                  PL68 1752                                    PL94 0A25  
                                  PL86 1786                                    PL78 0F77  
                                  PL96 179C                                    PL88 1791  
                                  PL98 0F95                           ___ftadd@sign 004A  
                                  l221 02F9                                    l222 0321  
                                  l223 0415                                    l162 0431  
                                  l154 0040                                    l172 0110  
                                  l181 0179                                    l262 14CB  
                                  l254 1499                                    l406 11B0  
                                  l159 00C2                                    l520 122E  
                                  l194 023B                                    l349 140D  
                                  l357 1283                                    l526 1186  
                                  l542 0D06                                    l368 1348  
                                  l529 1197                                    l801 0BCE  
                                  l651 0E00                                    l496 08A8  
                                  l908 154C                                    l772 0B0A  
                                  l926 1458                                    l790 0B90  
                                  l872 16E0                                    l884 1705  
                                  _GGL 1800                                    _GSA 18CB  
                                  _GSV 18B1                                    _RMC 1897  
                                  _isr 0004      Measure_Vdd_VSolar_VBackup@VBackup 0042  
                         __CFG_BORV$LO 0000                                    wreg 0009  
                         __CFG_IESO$ON 0000                  UART_Transmit_string@a 0077  
                      __end_of_GGA_OFF 1897                                   PL100 0F9C  
                                 PL110 0FAB                                   PL102 17A3  
                                 PL120 17B1                                   PL112 17A9  
                                 PL104 0639                                   PL130 0647  
                                 PL122 17B9                                   PL114 0FB3  
                                 PL106 0FA2                                   PL140 17D4  
                                 PL132 0A2F                                   PL124 0FCB  
                                 PL116 0FBB                                   PL108 0642  
                                 PL150 0654                                   PL142 17DB  
                                 PL134 17C6                                   PL126 17BF  
                                 PL118 0FC3                                   PL160 17E8  
                                 PL152 17E2                                   PL144 0FDF  
                                 PL136 17CD                                   PL128 0FD1  
                                 PL170 0A42                                   PL162 0FEC  
                                 PL154 0A36                                   PL146 064E  
                                 PL138 0FD8                                   PL180 0A4C  
                                 PL172 17F3                                   PL164 0A3C  
                                 PL156 0659                                   PL148 0FE6  
                                 PL182 0FFB                                   PL174 0A47  
                                 PL166 17EE                                   PL158 065F  
                                 PL184 17FC                                   PL176 0FF6  
                                 PL168 0FF1                                   PL186 0A51  
                                 PL178 17F7                  UART_RX_Buffers_Init@i 0074  
                         ___ftdiv@cntr 003B                 ??_init_compteur_trames 0072  
                         ___ftdiv@sign 0040                                   l6011 0468  
                                 l5203 0C26                                   l6005 1570  
                                 l5301 146B                                   l6013 046D  
                                 l6103 1179                                   l5223 0E0A  
                                 l6041 049D                                   l6033 0490  
                                 l5233 1718                                   l5307 1481  
                                 l6211 12AA                                   l5323 04D2  
                                 l6131 161E                                   l5403 09C5  
                                 l5181 16F6                                   l6045 04AB  
                                 l6029 0489                                   l6213 12AB  
                                 l5413 09EA                                   l5511 14C6  
                                 l5175 16E4                                   l6039 0494  
                                 l6071 052A                                   l5319 04C3  
                                 l5343 164D                                   l5255 0C3A  
                                 l5271 0C67                                   l5431 09DE  
                                 l5423 09D2                                   l7015 0288  
                                 l5441 04E2                                   l5185 1703  
                                 l5177 16E8                                   l5361 1661  
                                 l5257 0C44                                   l5601 0AD4  
                                 l7113 042B                                   l5443 149F  
                                 l5187 16FB                                   l5179 16ED  
                                 l6067 0526                                   l6059 0517  
                                 l5339 163F                                   l5603 0AD9  
                                 l5427 09DA                                   l5523 0975  
                                 l7051 02A2                                   l6165 1251  
                                 l5373 166F                                   l5365 1665  
                                 l5461 059B                                   l6093 1130  
                                 l5269 0C66                                   l5525 097B  
                                 l5541 097C                                   l5517 0962  
                                 l6341 0895                                   l7109 0394  
                                 l7053 02BE                                   l7125 0448  
                                 l5279 144A                                   l6167 1252  
                                 l6239 1306                                   l5455 059A  
                                 l5703 0BE5                                   l5631 0B2C  
                                 l6503 0D91                                   l5543 09A5  
                                 l5535 0995                                   l5519 096C  
                                 l6327 0876                                   l7063 02C1  
                                 l7047 02B4                                   l5449 14A3  
                                 l5377 1673                                   l6089 111E  
                                 l6281 0A88                                   l5713 0C02  
                                 l5625 0B1F                                   l6513 0DBC  
                                 l6361 08C6                                   l6337 0886  
                                 l7073 02EF                                   l7065 02DA  
                                 l5483 053C                                   l5555 0E90  
                                 l5723 0C19                                   l5707 0BF2  
                                 l5619 0B0E                                   l6371 08D2  
                                 l7059 02D0                                   l5485 0549  
                                 l5477 0536                                   l6293 0A9A  
                                 l6277 0A82                                   l6285 0A8D  
                                 l5709 0BF7                                   l5637 0B34  
                                 l5629 0B3C                                   l5901 0E36  
                                 l6533 0DF0                                   l6517 0DCC  
                                 l6509 0DAC                                   l5549 09B4  
                                 l6349 08AB                                   l6381 08E4  
                                 l7077 02E0                                   l6607 13BA  
                                 l5751 11B5                                   l5559 0E96  
                                 l5655 0B6C                                   l5639 0B40  
                                 l5583 0AC1                                   l5575 0AAA  
                                 l5903 0E2E                                   l6519 0DD0  
                                 l6543 0A63                                   l6375 08DD  
                                 l6617 13EE                                   l5489 054C  
                                 l5497 0560                                   l5761 11DC  
                                 l6289 0A94                                   l6297 0A9F  
                                 l5729 0BDE                                   l5681 0BA7  
                                 l5585 0ABD                                   l5577 0AB5  
                                 l5921 0E57                                   l5913 0E4F  
                                 l5905 0E3A                                   l6545 0A6C  
                                 l5763 11F6                                   l6643 066F  
                                 l5667 0B78                                   l5659 0B70  
                                 l5595 0AD7                                   l5923 0E7A  
                                 l5915 0E76                                   l5843 0909  
                                 l5835 08F2                                   ?_isr 0070  
                                 l5757 11D4                                   l5685 0BB2  
                                 l5597 0ACB                                   l5589 0AC4  
                                 l6549 0A76                                   l5845 08E9  
                                 l6821 00FC                                   l5943 14FE  
                                 l6591 1394                                   l6671 0698  
                                 l5695 0BC8                                   l5679 0B94  
                                 l5847 0910                                   l5839 08FE  
                                 l5863 092F                                   l5961 151B  
                                 l6649 0678                                   l5929 0E89  
                                 l5865 0925                                   l6905 01A6  
                                 l5971 1532                                   l5939 14F7  
                                 l6675 06A0                                   l6667 0694  
                                 l6659 0685                                   l6691 0579  
                                 l5699 0BC9                                   l5883 0955  
                                 l5875 0945                                   l5867 0935  
                                 l6819 00F9                                   l6771 00AE  
                                 l5981 1548                                   l5973 1536  
                                 l5949 150D                                   l6589 1393  
                                 l5797 16A0                                   l5789 1696  
                                 l6925 01F6                                   l6909 01B2  
                                 l6781 00B9                                   l5967 1529  
                                 l6687 056D                                   l6695 057D  
                                 l6951 0217                                   l6863 0148  
                                 l5993 155F                                   l5969 152D  
                                 l5987 1557                                   l5979 1544  
                                 l6875 0160                                   l6859 0138  
                                 l6795 0445                                   l6957 0222  
                                 l6869 0157                                   l6797 00C5  
                                 l6991 026E                                   l6983 025D  
                                 l6993 0272                                   l6979 0250  
                                 l6899 0189                                   l6997 0274  
                                 l6989 026C                                   STR_1 18FA  
                                 STR_2 18FA                                   STR_3 18FA  
                                 STR_4 190C                                   STR_5 1907  
                                 STR_6 18F3                                   STR_7 1901  
                                 STR_8 181A                                   STR_9 18E5  
                                 _PIE1 0091                                   _PIE2 0092  
                                 u6115 16BF                                   i1l32 0023  
                                 i1l25 0009                                   u5505 04E8  
                                 _RCIF 008D                                   u7045 13A6  
                                 u5295 1478                                   u7135 068D  
                                 u7065 13DF                                   u6525 0470  
                                 u6615 051F                                   u7185 0573  
                                 u7607 04ED                                   u7617 04F4  
                                 u7627 04FB                                   u7637 0502  
                                 u7577 15B2                                   u7587 16A1  
                                 u7597 16A7                           __CFG_WRT$OFF 0000  
                        __CFG_FCMEN$ON 0000  Measure_Vdd_VSolar_VBackup@VBackup_max 0044  
Measure_Vdd_VSolar_VBackup@VBackup_min 0043                                   _atof 0E21  
                                 _atoi 0E2E                                   _main 003A  
                         ___ftpack@arg 0072               UART_Transmit_one_char@tx 0072  
                 _Envoi_message_Erreur 1232                           ___ftpack@exp 0075  
                                 fsr0h 0005                                   fsr1h 0007  
                                 indf0 0000                                   fsr0l 0004  
                                 indf1 0001                                   fsr1l 0006  
                                 btemp 007E                       Delay_100ms@duree 0072  
                                 _xtoi 095E                       __end_of_ADC_Read 16D8  
                      __end_of_VTG_OFF 1863                UART_Frame_Received@flag 0079  
                          main@state_s 012E                                   start 0025  
              UART_Frame_Received@temp 0078                            main@vitesse 00E8  
               UART_Transmit_string@tx 0072                      ___bmul@multiplier 0074  
                        __CFG_MCLRE$ON 0000                decodage_Lat_Long@dopBis 004F  
                         ___ftmul@cntr 0030                           ___ftmul@sign 0031  
                        _Envoi_message 1359                ?_Processing_Temperature 0022  
                         ___fttol@exp1 0059                           ___fttol@lval 0055  
                                ??_isr 0070                     _UART_Get_Next_Char 0582  
                        ?_hex_to_ascii 0070       Envoi_message_service@actual_temp 005A  
                                ?_atof 004B                                  ?_atoi 0078  
                                ?_main 0070                        __end_of___awdiv 06A5  
                         verifierCRC@i 002D                        __end_of___ftadd 1582  
                                STR_10 18EC                        __end_of___ftdiv 1498  
                      __end_of___ftneg 0EAB                        __end_of___ftmul 168D  
                      ___awdiv@divisor 0072                        __end_of___fttol 04B4  
                                ?_xtoi 0076                                  _LATA0 0860  
                                _LATA2 0862                                  _LATC0 0870  
                                _LATA4 0864                                  _LATA5 0865  
                                _LATC1 0871                                  _LATC4 0874  
                                _LATC5 0875                        __end_of___lwdiv 052F  
                      __end_of___lwmod 0582                        ___awdiv@counter 0076  
                                _RCREG 0199                                  u6665o 114C  
                          _Delay_100ms 04E0                    ?_UART_Get_Next_Char 0070  
                                _TXREG 019A                Envoi_message@day_status 0067  
                  ___lmul@multiplicand 0076                           main@tab_temp 00A0  
                 __size_of_chaine_Init 000E                        __end_of_isdigit 0C28  
                        ___ftpack@sign 0076                                  atoi@a 0025  
                                atof@s 004B                                  atoi@s 0078  
                         main@temp_max 0121                           main@temp_min 0120  
                         main@temp_moy 00E4                        __end_of_isspace 0C69  
                       __CFG_BOREN$OFF 0000                        __end_of_isupper 09C7  
                ?_Envoi_message_Erreur 005A                                  status 0003  
                                wtemp0 007E                        __end_of_tolower 09EC  
                                xtoi@c 0024                                  xtoi@s 0023  
              ?_UART_Transmit_one_char 0070                        __end_of_strncmp 0913  
                         __end_ofPL100 0FA2                           __end_ofPL110 0FB3  
                         __end_ofPL102 17A9                           __end_ofPL120 17B9  
                         __end_ofPL112 17B1                           __end_ofPL104 0642  
                         __end_ofPL130 064E                           __end_ofPL122 17BF  
                         __end_ofPL114 0FBB                           __end_ofPL106 0FAB  
                         __end_ofPL140 17DB                           __end_ofPL132 0A36  
                         __end_ofPL124 0FD1                           __end_ofPL116 0FC3  
                         __end_ofPL108 0647                           __end_ofPL150 0659  
                         __end_ofPL142 17E2                           __end_ofPL134 17CD  
                         __end_ofPL126 17C6                           __end_ofPL118 0FCB  
                         __end_ofPL160 17EE                           __end_ofPL152 17E8  
                         __end_ofPL144 0FE6                           __end_ofPL136 17D4  
                         __end_ofPL128 0FD8                           __end_ofPL170 0A47  
                         __end_ofPL162 0FF1                           __end_ofPL154 0A3C  
                         __end_ofPL146 0654                           __end_ofPL138 0FDF  
                         __end_ofPL180 0A51                           __end_ofPL172 17F7  
                         __end_ofPL164 0A42                           __end_ofPL156 065F  
                         __end_ofPL148 0FEC                           __end_ofPL182 1000  
                         __end_ofPL174 0A4C                           __end_ofPL166 17F3  
                         __end_ofPL158 0665                           __end_ofPL184 1800  
                         __end_ofPL176 0FFB                           __end_ofPL168 0FF6  
                         __end_ofPL186 0A56                           __end_ofPL178 17FC  
                 ??_UART_Get_Next_Char 0072                      ?_Reinit_trame_GPS 0070  
       __end_of_Processing_Temperature 1180                   decodage_Lat_Long@Lat 0057  
                       ?_Envoi_message 005A                        __initialization 0027  
                   ??_Reinit_trame_GPS 0020                        ??_configure_GPS 0078  
                         __end_of_atof 0E2E                           __end_of_atoi 0E8E  
                         __end_of_main 045F                           __end_of_xtoi 09B9  
                       ??_hex_to_ascii 0075                      decode_trame_GPS@i 0039  
                    decode_trame_GPS@j 003A                      decode_trame_GPS@k 003B  
                      decodage_VTG@cap 007A                  _Envoi_message_service 1294  
                    _champsTrameGPSGGA 2208                      _champsTrameGPSVTG 2390  
                               ??_atof 007A                                 ??_atoi 0020  
                               ??_main 007B                          ___fttol@sign1 0054  
                               ??_xtoi 0078         Processing_Temperature@tab_temp 0025  
                    _configure_GPS_VTG 1180             decodage_Lat_Long@Char_temp 005C  
                       __CFG_PLLEN$OFF 0000                      _decodage_Lat_Long 0C69  
                   ?_configure_GPS_VTG 0070         Processing_Temperature@temp_max 0023  
       Processing_Temperature@temp_min 0022                     ?_decodage_Lat_Long 004E  
       Processing_Temperature@temp_moy 0024                                 _ADCON0 009D  
                               _ADCON1 009E                       __end_of___altoft 0C57  
                               _ADRESH 009C                                 _ADRESL 009B  
                     ___awdiv@dividend 0074                              ADC_Read@i 0077  
                               _ANSELA 018C                                 _ANSELC 018E  
                     __end_of___ftpack 1716                                 _GGA_ON 1863  
                               i1l4731 0006                                 i1l4729 0021  
                               _FVRCON 0117         __end_of_UART_Transmit_one_char 149F  
                     __end_of___lwtoft 14C5                    ??_configure_GPS_VTG 0078  
                  ??_decodage_Lat_Long 0050                                 _SPBRGH 019C  
                               _SPBRGL 019B                                 _TRISA0 0460  
                               _TRISA1 0461                                 _TRISA2 0462  
                               _TRISC0 0470                                 _TRISA4 0464  
                               _TRISC1 0471                                 _TRISA5 0465  
                               _TRISC2 0472                                 _TRISC3 0473  
                               _TRISC4 0474                                 _TRISC5 0475  
                  verifierCRC@trameGPS 0025                                 _VTG_ON 182F  
                       __CFG_PWRTE$OFF 0000                 main@count_confirmation 00E0  
                               ___bmul 1716                                 ___ftge 04B4  
                               ___lmul 0DFC                  __size_of_decodage_VTG 0029  
                               ___wmul 0E8E                              ??___awdiv 0076  
                     _decode_trame_GPS 085C                              ??___ftadd 0047  
                       __CFG_STVREN$ON 0000                                 _chaine 22C8  
                            ??___ftdiv 0038                              ??___ftneg 0075  
                            ??___ftmul 0029                              ??___fttol 0051  
                            ??___lwdiv 0076                              ??___lwmod 0076  
                      ADC_Read@channel 0076                       ___awdiv@quotient 0078  
          ?_Measure_Vdd_VSolar_VBackup 0041              __end_of_configure_GPS_VTG 119B  
                     ??_Recuperer_Temp 007B                          main@temp_char 006F  
            __end_of_decodage_Lat_Long 0DFC             decodage_Lat_Long@Long_temp 0058  
                               _strtod 0AA5                  ___ftmul@f3_as_product 002D  
                Envoi_message@Latitude 005E                       __end_of_isxdigit 09E0  
                            ??_isdigit 0072                              ?_ADC_Read 0072  
                            ??_isspace 0072                              ??_isupper 0072  
                            ??_tolower 0072                              ??_strncmp 0078  
      Envoi_message_service@sw_version 005E                 ??_Envoi_message_Erreur 007A  
               main@cpt_reveil_service 00E2                        _compteur_trames 0143  
              __end_of__initialization 0037                             ___altoft@c 0020  
                           ___ftadd@f1 0041                             ___ftadd@f2 0044  
                         ?_verifierCRC 0025                           _decodage_VTG 0A56  
                           ___ftge@ff1 0072                             ___ftge@ff2 0075  
        __size_of_UART_RX_Buffers_Init 0016                             ___ftdiv@f1 0035  
                           ___ftdiv@f2 0032                             ___ftdiv@f3 003C  
                      ??_Envoi_message 007A                             ___ftneg@f1 0072  
                  ___bmul@multiplicand 0072                  decodage_Lat_Long@Long 004E  
                           ___ftmul@f1 0023                             ___ftmul@f2 0026  
                           ___fttol@f1 004D                         __pcstackCOMMON 0070  
        Measure_Vdd_VSolar_VBackup@Vdd 004E                       main@flag_protect 00E1  
               ?_Envoi_message_service 005A                             __end_ofPL2 0ED1  
                           __end_ofPL4 0EF6                             __end_ofPL6 0EFD  
                           __end_ofPL8 0F05                             ___lwtoft@c 0020  
                     Envoi_message@cap 006A                       Envoi_message@dop 0062  
                           ??_ADC_Read 0074           __end_of_UART_Transmit_string 14D4  
                       main@day_status 012C                             __pbssBANK2 0142  
                 __end_of_hex_to_ascii 143C                    Envoi_message@Vsolar 0063  
                           __pmaintext 003A                                ?___bmul 0072  
                              ?___ftge 0072                                ?___lmul 0072  
                              ?___wmul 0072                             __pintentry 0004  
         __size_of_UART_Frame_Received 0033                              ?___altoft 0020  
                       ___lmul@product 0020                         verifierCRC@crc 0029  
                       main@cpt_reveil 00E6                              ?___ftpack 0072  
           __size_of_configure_GPS_VTG 001B             __size_of_decodage_Lat_Long 0193  
                              _GGA_OFF 187D                  Envoi_message_Erreur@i 007A  
                            ?___lwtoft 0020                                ?_strtod 0041  
                         ?_Delay_100ms 0072                         _UART_RX_RD_ptr 0144  
                       _UART_RX_WR_ptr 007B                                _VTG_OFF 1849  
        __size_of_init_compteur_trames 0004    __size_of_Measure_Vdd_VSolar_VBackup 00AF  
                            ?_isxdigit 0070                       main@cpt_timeout2 00D8  
                     main@cpt_timeout3 00DA                decode_trame_GPS@flagGPS 0038  
                      __size_of___bmul 000C                        __size_of___ftge 002C  
                              ___awdiv 0665                        __size_of___lmul 0025  
                              ___ftadd 14D4      Processing_Temperature@actual_temp 002E  
                              ___ftdiv 143C                                ___ftneg 0EA3  
                      __size_of___wmul 0015                                ___ftmul 1631  
                              ___fttol 045F                                ___lwdiv 050A  
                              ___lwmod 0562                             ??___altoft 007A  
                           ??___ftpack 0077                    decodage_VTG@vitesse 004E  
                              __ptext1 05A8                                __ptext2 085C  
                              __ptext3 0913                                __ptext4 095E  
                              __ptext5 09E0                                __ptext6 09C7  
                              __ptext7 09B9                                __ptext8 08E9  
                              __ptext9 0A56                          ??_chaine_Init 0072  
                           ??___lwtoft 007A                        __size_of_strtod 0175  
            __size_of_Reinit_trame_GPS 0026                                _isdigit 0C1A  
                         __size_of_isr 0021                                _isspace 0C57  
                              _isupper 09B9                                main@Lat 0138  
                              main@Vdd 0122                                main@cap 00EB  
                              _tolower 09E0                         main@temp_uchar 00D6  
                              clrloop0 06A6               __end_of_decode_trame_GPS 08E9  
                       main@temp_short 00DC                                _strncmp 08E9  
                 end_of_initialization 0037            __size_of_UART_Get_Next_Char 0018  
                        hex_to_ascii@a 0077                          hex_to_ascii@b 0076  
                           ??_isxdigit 0074                   __size_of_verifierCRC 004B  
               Envoi_message@Longitude 005A                              _RCSTAbits 019D  
                 _UART_Transmit_string 14C5                  __end_of_configure_GPS 1232  
                              strtod@s 0041                                xtoi@val 0021  
                   Recuperer_Temp@temp 0020                       __CFG_FOSC$INTOSC 0000  
                __size_of_hex_to_ascii 001E                           Delay_100ms@i 0075  
                    __size_of_ADC_Read 004B                    __end_of_chaine_Init 05A8  
                           main@VSolar 013C             Envoi_message_Erreur@Vsolar 005A  
                       __end_of_GGA_ON 187D       Envoi_message_service@VBackup_max 0060  
     Envoi_message_service@VBackup_min 005F                             main@dopBis 012F  
                          ___ftdiv@exp 003F       Measure_Vdd_VSolar_VBackup@VSolar 0041  
                       _UART_buffer_RX 232C                              _TXSTAbits 019E  
           Envoi_message_Erreur@raison 005F                         __end_of_VTG_ON 1849  
              ??_Envoi_message_service 0061                            ___ftmul@exp 002C  
               decodage_Lat_Long@dop_f 0054                  ?_UART_Transmit_string 0072  
                       __end_of___bmul 1722                         __end_of___ftge 04E0  
                       __end_of___lmul 0E21                         __end_of___wmul 0EA3  
                          _BAUDCONbits 019F                           _hex_to_ascii 141E  
         __end_of_UART_RX_Buffers_Init 14B5                         __end_of_strtod 0C1A  
                          __end_ofPL10 05C3                            __end_ofPL20 05E3  
                          __end_ofPL12 0F11                            __end_ofPL30 0F36  
                          __end_ofPL22 09F5                            __end_ofPL14 05D6  
                          __end_ofPL40 0609                            __end_ofPL32 172F  
                          __end_ofPL24 0F2C                            __end_ofPL16 0F1B  
                          __end_ofPL50 1743                            __end_ofPL42 0612  
                          __end_ofPL34 05F8                            __end_ofPL26 05EC  
                          __end_ofPL18 0F24                            __end_ofPL60 0620  
                          __end_ofPL52 0F63                            __end_ofPL44 061A  
                          __end_ofPL36 0F49                            __end_ofPL28 0A0E  
                          __end_ofPL70 1765                            __end_ofPL62 062C  
                          __end_ofPL54 0F6B                            __end_ofPL46 0F59  
                          __end_ofPL38 0600                            __end_ofPL80 177E  
                          __end_ofPL72 1771                            __end_ofPL64 0A1B  
                          __end_ofPL56 1752                            __end_ofPL48 1739  
                          __end_ofPL90 0F95                            __end_ofPL82 0F8A  
                          __end_ofPL74 0F77                            __end_ofPL66 0639  
                          __end_ofPL58 0F71                            __end_ofPL92 0A25  
                          __end_ofPL84 1786                            __end_ofPL76 1777  
                          __end_ofPL68 1759                            __end_ofPL94 0A2F  
                          __end_ofPL86 1791                            __end_ofPL78 0F83  
                          __end_ofPL96 17A3                            __end_ofPL88 179C  
                          __end_ofPL98 0F9C                    start_initialization 0027  
                          __end_of_GGL 181A                            __end_of_GSA 18E5  
                          __end_of_GSV 18CB                            __end_of_RMC 18B1  
                 __size_of_Delay_100ms 002A                            __end_of_isr 0025  
 Processing_Temperature@index_temp_old 0026                    _UART_Frame_Received 052F  
                      main@actual_temp 0125               ??_Processing_Temperature 0027  
        __size_of_Envoi_message_Erreur 0062                            _APFCON0bits 011D  
                __end_of_Envoi_message 141E                               ??___bmul 0073  
                             ??___ftge 0078                          _isxdigit$1088 0074  
                             ??___lmul 007A            Envoi_message_Erreur@Vbackup 005C  
                             ??___wmul 0076                   ?_UART_Frame_Received 0070  
                 Envoi_message@Vbackup 0065                               ??_strtod 007A  
                    __size_of___altoft 002F                            _chaine_Init 059A  
                     _Reinit_trame_GPS 0A7F                      __size_of___ftpack 003E  
                          __pbssBIGRAM 2208                            __pbssCOMMON 007B  
                         chaine_Init@i 0072                              ___latbits 0002  
                    __size_of___lwtoft 0010                          __pcstackBANK0 0020  
                        __pcstackBANK1 00A0                          __pcstackBANK2 0120  
             ??_UART_Transmit_one_char 0072                           _isdigit$1002 0072  
              __size_of_Recuperer_Temp 0069                        Envoi_message@i2 006B  
                 Envoi_message@timeout 0068                   Envoi_message@vitesse 0069  
                            _main$1280 00D5                              _main$1275 0130  
                            _main$1276 0132                              _main$1277 006D  
                            _main$1278 00D2                              _main$1279 00D4  
               ??_UART_Transmit_string 0074                       ___lwdiv@dividend 0074  
                    __size_of_isxdigit 0019                               ?___awdiv 0072  
                             ?___ftadd 0041                  ??_UART_Frame_Received 0075  
                             ?___ftdiv 0032                               ?___ftneg 0072  
                             ?___ftmul 0023                               ?___fttol 004D  
                             ?___lwdiv 0072                               ?___lwmod 0072  
         __end_of_init_compteur_trames 05AC                               ?_isdigit 0070  
                             _ADC_Read 168D                               ?_isspace 0070  
               decode_trame_GPS@caract 003C                               ?_isupper 0070  
                      main@cpt_timeout 00DE                       __CFG_WDTE$SWDTEN 0000  
                     ___lwdiv@quotient 0077                               ?_tolower 0070  
                             ?_strncmp 0072                      ?_decode_trame_GPS 0070  
      __size_of_Processing_Temperature 0086                     ??_decode_trame_GPS 002E  
                       ___wmul@product 0076                              clear_ram0 06A5  
                 _UART_RX_Buffers_Init 149F                               _PIE1bits 0091  
                   main@nb_slot_protec 00EE                            strtod@flags 0045  
       UART_Frame_Received@rd_ptr_temp 007A                            strtod@expon 0046  
               UART_Get_Next_Char@temp 0074                             _ADCON0bits 009D  
        Envoi_message_service@temp_max 005C          Envoi_message_service@temp_min 005B  
         ??_Measure_Vdd_VSolar_VBackup 0045          Envoi_message_service@temp_moy 005D  
                    ___wmul@multiplier 0072                Envoi_message_service@i2 0063  
                          _nb_ko_modem 0142              Recuperer_Temp@cpt_timeout 0021  
                         _isspace$1005 0072        __size_of_UART_Transmit_one_char 0007  
           Processing_Temperature@temp 002D                      ___lmul@multiplier 0072  
           __end_of_UART_Get_Next_Char 059A                          ??_verifierCRC 0027  
                        ?_decodage_VTG 004E                  ?_UART_RX_Buffers_Init 0070  
                    verifierCRC@result 002C                        main@old_state_s 00D7  
       __size_of_Envoi_message_service 00C5          __end_of_Envoi_message_service 1359  
                     __size_of___awdiv 0040                       __size_of___ftadd 00AE  
                     __size_of___ftdiv 005C                       __size_of___ftneg 0008  
                             ___altoft 0C28                       __size_of___ftmul 005C  
                     __size_of___fttol 0055                       __size_of___lwdiv 0025  
                     __size_of___lwmod 0020                 _Processing_Temperature 10FA  
                             ___ftpack 16D8                      Reinit_trame_GPS@i 0078  
                    Reinit_trame_GPS@j 0079                               ___lwtoft 14B5  
                       Envoi_message@i 006C                           _isupper$1084 0072  
                    ADC_Read@adc_value 0079                       __size_of_isdigit 000E  
                      ___lwdiv@divisor 0072                       __size_of_isspace 0012  
                      ___lwdiv@counter 0076                               __ptext10 0C69  
                             __ptext11 0E2E                               __ptext20 1204  
                             __ptext12 0E21                               __ptext21 0562  
                             __ptext13 0AA5                               __ptext30 1582  
                             __ptext22 0665                               __ptext14 0C57  
                             __ptext31 1631                               __ptext23 0A7F  
                             __ptext15 0C1A                               __ptext40 1498  
                             __ptext32 04B4                               __ptext24 0E8E  
                             __ptext16 0DFC                               __ptext41 14B5  
                             __ptext33 168D                               __ptext25 10FA  
                             __ptext17 0EA3                               __ptext42 045F  
                             __ptext34 1294                               __ptext26 119B  
                             __ptext18 0C28                               __ptext43 143C  
                             __ptext35 050A                               __ptext27 059A  
                             __ptext19 1180                               __ptext44 14D4  
                             __ptext36 1232                               __ptext28 052F  
                             __ptext45 16D8                               __ptext37 1359  
                             __ptext29 0582                               __ptext46 14C5  
                             __ptext38 141E                               __ptext47 149F  
                             __ptext39 1716                               __ptext48 04E0  
                     __size_of_isupper 000E                     main@index_temp_old 012D  
                       _Recuperer_Temp 119B                              isxdigit@c 0075  
                     __size_of_tolower 000C                       __size_of_strncmp 002A  
                      hex_to_ascii@hex 0075                 __size_of_configure_GPS 002E  
                       ??_decodage_VTG 007A                   _init_compteur_trames 05A8  
                        __size_of_atof 000D                          __size_of_atoi 0060  
                        __size_of_main 0425                          __size_of_xtoi 005B  
                           strncmp@len 0076               __end_of_Reinit_trame_GPS 0AA5  
                             _isxdigit 09C7                 _UART_Transmit_one_char 1498  
                  __end_of_verifierCRC 095E                             strtod@eexp 0044  
                             int$flags 007E                               atoi@sign 0024  
                             main@Long 0134                 Envoi_message_service@i 0065  
                 UART_Frame_Received@c 0077           __end_of_Envoi_message_Erreur 1294  
                          _OSCSTATbits 009A                          ??_Delay_100ms 0074  
                         ?_chaine_Init 0070                             _INTCONbits 000B  
               __end_of_Recuperer_Temp 1204                         __pstringtext10 18EC  
                       __pstringtext11 18F3                         __pstringtext12 18FA  
                       __pstringtext13 1901                         __pstringtext14 1907  
                       __pstringtext15 190C                         __pstringtext16 0000  
                             isdigit@c 0073                               intlevel1 0000  
                ?_init_compteur_trames 0070                 ??_UART_RX_Buffers_Init 0072  
                     ___lwmod@dividend 0074                               isspace@c 0073  
                    __CFG_CLKOUTEN$OFF 0000                               isupper@c 0073  
                            strncmp@s1 0072                              strncmp@s2 0074  
                           _OSCCONbits 0099                              strtod@res 0043  
   __end_of_Measure_Vdd_VSolar_VBackup 1631             _Measure_Vdd_VSolar_VBackup 1582  
                        _configure_GPS 1204    Envoi_message_service@nb_slot_protec 0064  
                        __pstringtext1 182F                          __pstringtext2 1849  
                        __pstringtext3 1863                          __pstringtext4 187D  
                        __pstringtext5 1897                          __pstringtext6 18B1  
                        __pstringtext7 18CB                          __pstringtext8 1800  
                        __pstringtext9 18E5         Envoi_message_Erreur@day_status 005E  
                             tolower@c 0072                        ___lwmod@divisor 0072  
                      ___lwmod@counter 0076                        ?_Recuperer_Temp 0070  
                             strtod@_u 0047                             _WDTCONbits 0097  
               __size_of_Envoi_message 00C5                               xtoi@sign 0020  
                  __end_of_Delay_100ms 050A                            _verifierCRC 0913  
  Measure_Vdd_VSolar_VBackup@ADC_data1 0048    Measure_Vdd_VSolar_VBackup@ADC_data2 004A  
          __end_of_UART_Frame_Received 0562     Measure_Vdd_VSolar_VBackup@ADC_data 004C  
                          main@VBackup 013F  
